
ar8020_gndcpu1.bin.elf:     file format elf32-littlearm


Disassembly of section .vectors:

00000000 <vectors>:
   0:	20040000 	andcs	r0, r4, r0
   4:	00000191 	muleq	r0, r1, r1
   8:	000034b5 			; <UNDEFINED> instruction: 0x000034b5
   c:	000035dd 	ldrdeq	r3, [r0], -sp
  10:	000034b5 			; <UNDEFINED> instruction: 0x000034b5
  14:	000034b5 			; <UNDEFINED> instruction: 0x000034b5
  18:	000034b5 			; <UNDEFINED> instruction: 0x000034b5
  1c:	000034b5 			; <UNDEFINED> instruction: 0x000034b5
  20:	000034b5 			; <UNDEFINED> instruction: 0x000034b5
  24:	000034b5 			; <UNDEFINED> instruction: 0x000034b5
  28:	000034b5 			; <UNDEFINED> instruction: 0x000034b5
  2c:	000001f1 	strdeq	r0, [r0], -r1
  30:	000034b5 			; <UNDEFINED> instruction: 0x000034b5
  34:	000034b5 			; <UNDEFINED> instruction: 0x000034b5
  38:	000001f1 	strdeq	r0, [r0], -r1
  3c:	000034a9 	andeq	r3, r0, r9, lsr #9
  40:	000035f1 	strdeq	r3, [r0], -r1
  44:	00003611 	andeq	r3, r0, r1, lsl r6
  48:	00003631 	andeq	r3, r0, r1, lsr r6
  4c:	00003651 	andeq	r3, r0, r1, asr r6
  50:	00003671 	andeq	r3, r0, r1, ror r6
  54:	00003691 	muleq	r0, r1, r6
  58:	000036b1 			; <UNDEFINED> instruction: 0x000036b1
  5c:	000036d1 	ldrdeq	r3, [r0], -r1
  60:	000036f1 	strdeq	r3, [r0], -r1
  64:	00003711 	andeq	r3, r0, r1, lsl r7
  68:	00003731 	andeq	r3, r0, r1, lsr r7
  6c:	00003751 	andeq	r3, r0, r1, asr r7
  70:	00003771 	andeq	r3, r0, r1, ror r7
  74:	00003791 	muleq	r0, r1, r7
  78:	000037b1 			; <UNDEFINED> instruction: 0x000037b1
  7c:	000037d1 	ldrdeq	r3, [r0], -r1
  80:	000037f1 	strdeq	r3, [r0], -r1
  84:	00003811 	andeq	r3, r0, r1, lsl r8
  88:	00003831 	andeq	r3, r0, r1, lsr r8
  8c:	00003851 	andeq	r3, r0, r1, asr r8
  90:	00003871 	andeq	r3, r0, r1, ror r8
  94:	00003891 	muleq	r0, r1, r8
  98:	000038b1 			; <UNDEFINED> instruction: 0x000038b1
  9c:	000038d1 	ldrdeq	r3, [r0], -r1
  a0:	000038f1 	strdeq	r3, [r0], -r1
  a4:	00003911 	andeq	r3, r0, r1, lsl r9
  a8:	00003931 	andeq	r3, r0, r1, lsr r9
  ac:	00003951 	andeq	r3, r0, r1, asr r9
  b0:	00003971 	andeq	r3, r0, r1, ror r9
  b4:	00003991 	muleq	r0, r1, r9
  b8:	000039b1 			; <UNDEFINED> instruction: 0x000039b1
  bc:	000039d1 	ldrdeq	r3, [r0], -r1
  c0:	000039f1 	strdeq	r3, [r0], -r1
  c4:	00003a15 	andeq	r3, r0, r5, lsl sl
  c8:	00003a39 	andeq	r3, r0, r9, lsr sl
  cc:	00003a5d 	andeq	r3, r0, sp, asr sl
  d0:	00003a81 	andeq	r3, r0, r1, lsl #21
  d4:	00003aa5 	andeq	r3, r0, r5, lsr #21
  d8:	00003ac9 	andeq	r3, r0, r9, asr #21
  dc:	00003aed 	andeq	r3, r0, sp, ror #21
  e0:	00003b11 	andeq	r3, r0, r1, lsl fp
  e4:	00003b35 	andeq	r3, r0, r5, lsr fp
  e8:	00003b59 	andeq	r3, r0, r9, asr fp
  ec:	00003b7d 	andeq	r3, r0, sp, ror fp
  f0:	00003ba1 	andeq	r3, r0, r1, lsr #23
  f4:	00003bc5 	andeq	r3, r0, r5, asr #23
  f8:	00003be9 	andeq	r3, r0, r9, ror #23
  fc:	00003c0d 	andeq	r3, r0, sp, lsl #24
 100:	00003c31 	andeq	r3, r0, r1, lsr ip
 104:	00003c55 	andeq	r3, r0, r5, asr ip
 108:	00003c79 	andeq	r3, r0, r9, ror ip
 10c:	00003c9d 	muleq	r0, sp, ip
 110:	00003cc1 	andeq	r3, r0, r1, asr #25
 114:	00003ce5 	andeq	r3, r0, r5, ror #25
 118:	00003d09 	andeq	r3, r0, r9, lsl #26
 11c:	00003d2d 	andeq	r3, r0, sp, lsr #26
 120:	00003d51 	andeq	r3, r0, r1, asr sp
 124:	00003d75 	andeq	r3, r0, r5, ror sp
 128:	00003d99 	muleq	r0, r9, sp
 12c:	00003dbd 			; <UNDEFINED> instruction: 0x00003dbd
 130:	00003de1 	andeq	r3, r0, r1, ror #27
 134:	00003e05 	andeq	r3, r0, r5, lsl #28
 138:	00003e29 	andeq	r3, r0, r9, lsr #28
 13c:	00003e4d 	andeq	r3, r0, sp, asr #28
 140:	00003e71 	andeq	r3, r0, r1, ror lr
 144:	00003e95 	muleq	r0, r5, lr
 148:	00003eb9 			; <UNDEFINED> instruction: 0x00003eb9
 14c:	00003edd 	ldrdeq	r3, [r0], -sp
 150:	00003f01 	andeq	r3, r0, r1, lsl #30
 154:	00003f25 	andeq	r3, r0, r5, lsr #30
 158:	00003f49 	andeq	r3, r0, r9, asr #30
 15c:	00003f6d 	andeq	r3, r0, sp, ror #30
 160:	00003f91 	muleq	r0, r1, pc	; <UNPREDICTABLE>
 164:	00003fb5 			; <UNDEFINED> instruction: 0x00003fb5
 168:	00003fd9 	ldrdeq	r3, [r0], -r9
 16c:	00003ffd 	strdeq	r3, [r0], -sp
 170:	00004021 	andeq	r4, r0, r1, lsr #32
 174:	00004045 	andeq	r4, r0, r5, asr #32
 178:	00004069 	andeq	r4, r0, r9, rrx
 17c:	0000408d 	andeq	r4, r0, sp, lsl #1
 180:	000040b1 	strheq	r4, [r0], -r1
 184:	000040d5 	ldrdeq	r4, [r0], -r5
 188:	000040f9 	strdeq	r4, [r0], -r9
 18c:	00000001 	andeq	r0, r0, r1

Disassembly of section .start:

00000190 <Reset_Handler>:
 190:	f8df d048 	ldr.w	sp, [pc, #72]	; 1dc <loop_bss_end+0x6>
 194:	2400      	movs	r4, #0
 196:	2500      	movs	r5, #0
 198:	2600      	movs	r6, #0
 19a:	2700      	movs	r7, #0
 19c:	f05f 0800 	movs.w	r8, #0
 1a0:	f05f 0900 	movs.w	r9, #0
 1a4:	f05f 0a00 	movs.w	sl, #0
 1a8:	f05f 0b00 	movs.w	fp, #0
 1ac:	f05f 0c00 	movs.w	ip, #0
 1b0:	480b      	ldr	r0, [pc, #44]	; (1e0 <loop_bss_end+0xa>)
 1b2:	490c      	ldr	r1, [pc, #48]	; (1e4 <loop_bss_end+0xe>)
 1b4:	f04f 5200 	mov.w	r2, #536870912	; 0x20000000

000001b8 <loop_mov>:
 1b8:	4288      	cmp	r0, r1
 1ba:	d004      	beq.n	1c6 <loop_end>
 1bc:	6803      	ldr	r3, [r0, #0]
 1be:	6013      	str	r3, [r2, #0]
 1c0:	3004      	adds	r0, #4
 1c2:	3204      	adds	r2, #4
 1c4:	e7f8      	b.n	1b8 <loop_mov>

000001c6 <loop_end>:
 1c6:	4808      	ldr	r0, [pc, #32]	; (1e8 <loop_bss_end+0x12>)
 1c8:	4908      	ldr	r1, [pc, #32]	; (1ec <loop_bss_end+0x16>)
 1ca:	2200      	movs	r2, #0

000001cc <loop_bss>:
 1cc:	4288      	cmp	r0, r1
 1ce:	d002      	beq.n	1d6 <loop_bss_end>
 1d0:	6002      	str	r2, [r0, #0]
 1d2:	3004      	adds	r0, #4
 1d4:	e7fa      	b.n	1cc <loop_bss>

000001d6 <loop_bss_end>:
 1d6:	f000 f827 	bl	228 <main>
 1da:	00000000 	andeq	r0, r0, r0
 1de:	ebc42004 	bl	ff1081f6 <_estack+0xdf0c81f6>
 1e2:	edcc0000 	stcl	0, cr0, [ip]
 1e6:	02080000 	andeq	r0, r8, #0
 1ea:	40342000 	eorsmi	r2, r4, r0
 1ee:	e7fe2000 	ldrb	r2, [lr, r0]!

000001f0 <PendSV_Handler>:
 1f0:	e7fe      	b.n	1f0 <PendSV_Handler>
	...

Disassembly of section .text:

00000200 <Gnd_TIM2_0_IRQHandler-0x10>:
     200:	0000ebc4 	andeq	lr, r0, r4, asr #23
     204:	0000edcc 	andeq	lr, r0, ip, asr #27
     208:	20000208 	andcs	r0, r0, r8, lsl #4
     20c:	20004034 	andcs	r4, r0, r4, lsr r0

00000210 <Gnd_TIM2_0_IRQHandler>:
     210:	200d      	movs	r0, #13
     212:	f000 be2f 	b.w	e74 <HAL_LED_TOGGLE>
     216:	bf00      	nop

00000218 <CONSOLE_Init>:
     218:	2201      	movs	r2, #1
     21a:	2100      	movs	r1, #0
     21c:	4801      	ldr	r0, [pc, #4]	; (224 <CONSOLE_Init+0xc>)
     21e:	f006 bd2d 	b.w	6c7c <DLOG_Init>
     222:	bf00      	nop
     224:	00007815 	andeq	r7, r0, r5, lsl r8

00000228 <main>:
     228:	b508      	push	{r3, lr}
     22a:	2000      	movs	r0, #0
     22c:	f000 fc0e 	bl	a4c <HAL_SYS_CTL_Init>
     230:	f001 fc5a 	bl	1ae8 <WATCHDOG_Init>
     234:	2201      	movs	r2, #1
     236:	2100      	movs	r1, #0
     238:	480d      	ldr	r0, [pc, #52]	; (270 <main+0x48>)
     23a:	f006 fd1f 	bl	6c7c <DLOG_Init>
     23e:	2003      	movs	r0, #3
     240:	f006 fefe 	bl	7040 <dlog_set_output_level>
     244:	f006 ff08 	bl	7058 <dlog_get_output_level>
     248:	b950      	cbnz	r0, 260 <main+0x38>
     24a:	4a0a      	ldr	r2, [pc, #40]	; (274 <main+0x4c>)
     24c:	2010      	movs	r0, #16
     24e:	490a      	ldr	r1, [pc, #40]	; (278 <main+0x50>)
     250:	f000 fe44 	bl	edc <HAL_TIMER_RegisterTimer>
     254:	f006 fad0 	bl	67f8 <SYS_EVENT_Process>
     258:	2000      	movs	r0, #0
     25a:	f006 fe77 	bl	6f4c <DLOG_Process>
     25e:	e7f9      	b.n	254 <main+0x2c>
     260:	f44f 73c6 	mov.w	r3, #396	; 0x18c
     264:	4a05      	ldr	r2, [pc, #20]	; (27c <main+0x54>)
     266:	4806      	ldr	r0, [pc, #24]	; (280 <main+0x58>)
     268:	6819      	ldr	r1, [r3, #0]
     26a:	f007 fe07 	bl	7e7c <iprintf>
     26e:	e7ec      	b.n	24a <main+0x22>
     270:	00007815 	andeq	r7, r0, r5, lsl r8
     274:	00000211 	andeq	r0, r0, r1, lsl r2
     278:	000f4240 	andeq	r4, pc, r0, asr #4
     27c:	0000ce90 	muleq	r0, r0, lr
     280:	0000ce98 	muleq	r0, r8, lr

00000284 <rcvDataHandler>:
     284:	b510      	push	{r4, lr}
     286:	f5ad 6d82 	sub.w	sp, sp, #1040	; 0x410
     28a:	2400      	movs	r4, #0
     28c:	f44f 6280 	mov.w	r2, #1024	; 0x400
     290:	2002      	movs	r0, #2
     292:	ab03      	add	r3, sp, #12
     294:	a904      	add	r1, sp, #16
     296:	9403      	str	r4, [sp, #12]
     298:	f001 f8d2 	bl	1440 <HAL_BB_ComReceiveMsg>
     29c:	9a03      	ldr	r2, [sp, #12]
     29e:	a904      	add	r1, sp, #16
     2a0:	2314      	movs	r3, #20
     2a2:	2003      	movs	r0, #3
     2a4:	f000 ffd4 	bl	1250 <HAL_UART_TxData>
     2a8:	f006 fed6 	bl	7058 <dlog_get_output_level>
     2ac:	b9a8      	cbnz	r0, 2da <rcvDataHandler+0x56>
     2ae:	f006 fed3 	bl	7058 <dlog_get_output_level>
     2b2:	b158      	cbz	r0, 2cc <rcvDataHandler+0x48>
     2b4:	f89d 2011 	ldrb.w	r2, [sp, #17]
     2b8:	f44f 71c6 	mov.w	r1, #396	; 0x18c
     2bc:	f89d 3010 	ldrb.w	r3, [sp, #16]
     2c0:	6809      	ldr	r1, [r1, #0]
     2c2:	480a      	ldr	r0, [pc, #40]	; (2ec <rcvDataHandler+0x68>)
     2c4:	9200      	str	r2, [sp, #0]
     2c6:	4a0a      	ldr	r2, [pc, #40]	; (2f0 <rcvDataHandler+0x6c>)
     2c8:	f007 fdd8 	bl	7e7c <iprintf>
     2cc:	f44f 707a 	mov.w	r0, #1000	; 0x3e8
     2d0:	f006 fd7e 	bl	6dd0 <DLOG_Output>
     2d4:	f50d 6d82 	add.w	sp, sp, #1040	; 0x410
     2d8:	bd10      	pop	{r4, pc}
     2da:	f44f 71c6 	mov.w	r1, #396	; 0x18c
     2de:	9b03      	ldr	r3, [sp, #12]
     2e0:	4a03      	ldr	r2, [pc, #12]	; (2f0 <rcvDataHandler+0x6c>)
     2e2:	6809      	ldr	r1, [r1, #0]
     2e4:	4803      	ldr	r0, [pc, #12]	; (2f4 <rcvDataHandler+0x70>)
     2e6:	f007 fdc9 	bl	7e7c <iprintf>
     2ea:	e7e0      	b.n	2ae <rcvDataHandler+0x2a>
     2ec:	0000cf2c 	andeq	ip, r0, ip, lsr #30
     2f0:	0000cf08 	andeq	ip, r0, r8, lsl #30
     2f4:	0000cf18 	andeq	ip, r0, r8, lsl pc

000002f8 <command_test_BB_uart>:
     2f8:	2200      	movs	r2, #0
     2fa:	b500      	push	{lr}
     2fc:	4611      	mov	r1, r2
     2fe:	f5ad 7d01 	sub.w	sp, sp, #516	; 0x204
     302:	f007 fed1 	bl	80a8 <strtoul>
     306:	b2c1      	uxtb	r1, r0
     308:	b1d1      	cbz	r1, 340 <command_test_BB_uart+0x48>
     30a:	2901      	cmp	r1, #1
     30c:	d007      	beq.n	31e <command_test_BB_uart+0x26>
     30e:	2902      	cmp	r1, #2
     310:	d01f      	beq.n	352 <command_test_BB_uart+0x5a>
     312:	2903      	cmp	r1, #3
     314:	d02d      	beq.n	372 <command_test_BB_uart+0x7a>
     316:	f50d 7d01 	add.w	sp, sp, #516	; 0x204
     31a:	f85d fb04 	ldr.w	pc, [sp], #4
     31e:	4669      	mov	r1, sp
     320:	f10d 0016 	add.w	r0, sp, #22
     324:	466b      	mov	r3, sp
     326:	1a5a      	subs	r2, r3, r1
     328:	f803 2b01 	strb.w	r2, [r3], #1
     32c:	4298      	cmp	r0, r3
     32e:	d1fa      	bne.n	326 <command_test_BB_uart+0x2e>
     330:	2216      	movs	r2, #22
     332:	2002      	movs	r0, #2
     334:	f001 f83e 	bl	13b4 <HAL_BB_ComSendMsg>
     338:	f50d 7d01 	add.w	sp, sp, #516	; 0x204
     33c:	f85d fb04 	ldr.w	pc, [sp], #4
     340:	4b14      	ldr	r3, [pc, #80]	; (394 <command_test_BB_uart+0x9c>)
     342:	2201      	movs	r2, #1
     344:	2002      	movs	r0, #2
     346:	f000 ffeb 	bl	1320 <HAL_BB_ComRegisterSession>
     34a:	f50d 7d01 	add.w	sp, sp, #516	; 0x204
     34e:	f85d fb04 	ldr.w	pc, [sp], #4
     352:	4669      	mov	r1, sp
     354:	a820      	add	r0, sp, #128	; 0x80
     356:	466b      	mov	r3, sp
     358:	1a5a      	subs	r2, r3, r1
     35a:	f803 2b01 	strb.w	r2, [r3], #1
     35e:	4283      	cmp	r3, r0
     360:	d1fa      	bne.n	358 <command_test_BB_uart+0x60>
     362:	2280      	movs	r2, #128	; 0x80
     364:	2002      	movs	r0, #2
     366:	f001 f825 	bl	13b4 <HAL_BB_ComSendMsg>
     36a:	f50d 7d01 	add.w	sp, sp, #516	; 0x204
     36e:	f85d fb04 	ldr.w	pc, [sp], #4
     372:	4669      	mov	r1, sp
     374:	a880      	add	r0, sp, #512	; 0x200
     376:	466b      	mov	r3, sp
     378:	1a5a      	subs	r2, r3, r1
     37a:	f803 2b01 	strb.w	r2, [r3], #1
     37e:	4283      	cmp	r3, r0
     380:	d1fa      	bne.n	378 <command_test_BB_uart+0x80>
     382:	f44f 7200 	mov.w	r2, #512	; 0x200
     386:	2002      	movs	r0, #2
     388:	f001 f814 	bl	13b4 <HAL_BB_ComSendMsg>
     38c:	f50d 7d01 	add.w	sp, sp, #516	; 0x204
     390:	f85d fb04 	ldr.w	pc, [sp], #4
     394:	00000285 	andeq	r0, r0, r5, lsl #5

00000398 <command_test_BB_spi>:
     398:	4770      	bx	lr
     39a:	bf00      	nop

0000039c <command_BB_add_cmds>:
     39c:	e92d 41f0 	stmdb	sp!, {r4, r5, r6, r7, r8, lr}
     3a0:	4616      	mov	r6, r2
     3a2:	2200      	movs	r2, #0
     3a4:	460d      	mov	r5, r1
     3a6:	461f      	mov	r7, r3
     3a8:	4611      	mov	r1, r2
     3aa:	f8dd 8018 	ldr.w	r8, [sp, #24]
     3ae:	f007 fe7b 	bl	80a8 <strtoul>
     3b2:	2200      	movs	r2, #0
     3b4:	4604      	mov	r4, r0
     3b6:	4628      	mov	r0, r5
     3b8:	4611      	mov	r1, r2
     3ba:	f007 fe75 	bl	80a8 <strtoul>
     3be:	2200      	movs	r2, #0
     3c0:	4605      	mov	r5, r0
     3c2:	4630      	mov	r0, r6
     3c4:	4611      	mov	r1, r2
     3c6:	f007 fe6f 	bl	80a8 <strtoul>
     3ca:	2200      	movs	r2, #0
     3cc:	4606      	mov	r6, r0
     3ce:	4638      	mov	r0, r7
     3d0:	4611      	mov	r1, r2
     3d2:	f007 fe69 	bl	80a8 <strtoul>
     3d6:	2200      	movs	r2, #0
     3d8:	4607      	mov	r7, r0
     3da:	4640      	mov	r0, r8
     3dc:	4611      	mov	r1, r2
     3de:	f007 fe63 	bl	80a8 <strtoul>
     3e2:	463b      	mov	r3, r7
     3e4:	9006      	str	r0, [sp, #24]
     3e6:	4632      	mov	r2, r6
     3e8:	4629      	mov	r1, r5
     3ea:	b2e0      	uxtb	r0, r4
     3ec:	e8bd 41f0 	ldmia.w	sp!, {r4, r5, r6, r7, r8, lr}
     3f0:	f00c b86a 	b.w	c4c8 <BB_add_cmds>

000003f4 <command_BB_GroundconnectToskyByRcId>:
     3f4:	b570      	push	{r4, r5, r6, lr}
     3f6:	4615      	mov	r5, r2
     3f8:	2200      	movs	r2, #0
     3fa:	b084      	sub	sp, #16
     3fc:	460e      	mov	r6, r1
     3fe:	4611      	mov	r1, r2
     400:	461c      	mov	r4, r3
     402:	f007 fe51 	bl	80a8 <strtoul>
     406:	2200      	movs	r2, #0
     408:	f88d 0008 	strb.w	r0, [sp, #8]
     40c:	4630      	mov	r0, r6
     40e:	4611      	mov	r1, r2
     410:	f007 fe4a 	bl	80a8 <strtoul>
     414:	2200      	movs	r2, #0
     416:	f88d 0009 	strb.w	r0, [sp, #9]
     41a:	4628      	mov	r0, r5
     41c:	4611      	mov	r1, r2
     41e:	f007 fe43 	bl	80a8 <strtoul>
     422:	2200      	movs	r2, #0
     424:	f88d 000a 	strb.w	r0, [sp, #10]
     428:	4620      	mov	r0, r4
     42a:	4611      	mov	r1, r2
     42c:	f007 fe3c 	bl	80a8 <strtoul>
     430:	2200      	movs	r2, #0
     432:	f88d 000b 	strb.w	r0, [sp, #11]
     436:	4611      	mov	r1, r2
     438:	9808      	ldr	r0, [sp, #32]
     43a:	f007 fe35 	bl	80a8 <strtoul>
     43e:	2200      	movs	r2, #0
     440:	f88d 000c 	strb.w	r0, [sp, #12]
     444:	4611      	mov	r1, r2
     446:	9809      	ldr	r0, [sp, #36]	; 0x24
     448:	f007 fe2e 	bl	80a8 <strtoul>
     44c:	2200      	movs	r2, #0
     44e:	f88d 0004 	strb.w	r0, [sp, #4]
     452:	4611      	mov	r1, r2
     454:	980a      	ldr	r0, [sp, #40]	; 0x28
     456:	f007 fe27 	bl	80a8 <strtoul>
     45a:	a901      	add	r1, sp, #4
     45c:	f88d 0005 	strb.w	r0, [sp, #5]
     460:	a802      	add	r0, sp, #8
     462:	f001 f837 	bl	14d4 <HAL_BB_GroundConnectToSkyByRcId>
     466:	b004      	add	sp, #16
     468:	bd70      	pop	{r4, r5, r6, pc}
     46a:	bf00      	nop

0000046c <command_searchRcId>:
     46c:	2200      	movs	r2, #0
     46e:	b508      	push	{r3, lr}
     470:	4611      	mov	r1, r2
     472:	f007 fe19 	bl	80a8 <strtoul>
     476:	b2c0      	uxtb	r0, r0
     478:	e8bd 4008 	ldmia.w	sp!, {r3, lr}
     47c:	f001 b856 	b.w	152c <HAL_BB_SearchRcId>

00000480 <command_setTargetPower>:
     480:	2200      	movs	r2, #0
     482:	b538      	push	{r3, r4, r5, lr}
     484:	460d      	mov	r5, r1
     486:	4611      	mov	r1, r2
     488:	f007 fe0e 	bl	80a8 <strtoul>
     48c:	2200      	movs	r2, #0
     48e:	4604      	mov	r4, r0
     490:	4628      	mov	r0, r5
     492:	4611      	mov	r1, r2
     494:	f007 fe08 	bl	80a8 <strtoul>
     498:	b2c1      	uxtb	r1, r0
     49a:	b2e0      	uxtb	r0, r4
     49c:	e8bd 4038 	ldmia.w	sp!, {r3, r4, r5, lr}
     4a0:	f001 b93e 	b.w	1720 <HAL_BB_SetPower>

000004a4 <command_setTargetStardard>:
     4a4:	2200      	movs	r2, #0
     4a6:	b508      	push	{r3, lr}
     4a8:	4611      	mov	r1, r2
     4aa:	f007 fdfd 	bl	80a8 <strtoul>
     4ae:	b2c0      	uxtb	r0, r0
     4b0:	e8bd 4008 	ldmia.w	sp!, {r3, lr}
     4b4:	f001 b94e 	b.w	1754 <HAL_BB_SetPowerWorkMode>

000004b8 <command_SetBbFilter>:
     4b8:	2200      	movs	r2, #0
     4ba:	b508      	push	{r3, lr}
     4bc:	4611      	mov	r1, r2
     4be:	f007 fdf3 	bl	80a8 <strtoul>
     4c2:	b2c0      	uxtb	r0, r0
     4c4:	e8bd 4008 	ldmia.w	sp!, {r3, lr}
     4c8:	f005 bc5c 	b.w	5d84 <BB_SetFilterWorkMode>

000004cc <command_setSubBBch>:
     4cc:	2200      	movs	r2, #0
     4ce:	b508      	push	{r3, lr}
     4d0:	4611      	mov	r1, r2
     4d2:	f007 fde9 	bl	80a8 <strtoul>
     4d6:	b2c0      	uxtb	r0, r0
     4d8:	e8bd 4008 	ldmia.w	sp!, {r3, lr}
     4dc:	f001 b9ce 	b.w	187c <HAL_BB_SubBandSetCH>

000004e0 <command_readMemory>:
     4e0:	b5f0      	push	{r4, r5, r6, r7, lr}
     4e2:	b089      	sub	sp, #36	; 0x24
     4e4:	4604      	mov	r4, r0
     4e6:	f006 fdb7 	bl	7058 <dlog_get_output_level>
     4ea:	2800      	cmp	r0, #0
     4ec:	d14e      	bne.n	58c <command_readMemory+0xac>
     4ee:	2200      	movs	r2, #0
     4f0:	4620      	mov	r0, r4
     4f2:	4611      	mov	r1, r2
     4f4:	f007 fdd8 	bl	80a8 <strtoul>
     4f8:	1c43      	adds	r3, r0, #1
     4fa:	d05a      	beq.n	5b2 <command_readMemory+0xd2>
     4fc:	f020 0403 	bic.w	r4, r0, #3
     500:	f44f 77c6 	mov.w	r7, #396	; 0x18c
     504:	f504 7580 	add.w	r5, r4, #256	; 0x100
     508:	e002      	b.n	510 <command_readMemory+0x30>
     50a:	3420      	adds	r4, #32
     50c:	42ac      	cmp	r4, r5
     50e:	d023      	beq.n	558 <command_readMemory+0x78>
     510:	f006 fda2 	bl	7058 <dlog_get_output_level>
     514:	2800      	cmp	r0, #0
     516:	d0f8      	beq.n	50a <command_readMemory+0x2a>
     518:	69e2      	ldr	r2, [r4, #28]
     51a:	4623      	mov	r3, r4
     51c:	6839      	ldr	r1, [r7, #0]
     51e:	3420      	adds	r4, #32
     520:	9207      	str	r2, [sp, #28]
     522:	f854 0c08 	ldr.w	r0, [r4, #-8]
     526:	4a2a      	ldr	r2, [pc, #168]	; (5d0 <command_readMemory+0xf0>)
     528:	9006      	str	r0, [sp, #24]
     52a:	f854 6c0c 	ldr.w	r6, [r4, #-12]
     52e:	4829      	ldr	r0, [pc, #164]	; (5d4 <command_readMemory+0xf4>)
     530:	9605      	str	r6, [sp, #20]
     532:	f854 6c10 	ldr.w	r6, [r4, #-16]
     536:	9604      	str	r6, [sp, #16]
     538:	f854 6c14 	ldr.w	r6, [r4, #-20]
     53c:	9603      	str	r6, [sp, #12]
     53e:	f854 6c18 	ldr.w	r6, [r4, #-24]
     542:	9602      	str	r6, [sp, #8]
     544:	f854 6c1c 	ldr.w	r6, [r4, #-28]
     548:	9601      	str	r6, [sp, #4]
     54a:	f854 6c20 	ldr.w	r6, [r4, #-32]
     54e:	9600      	str	r6, [sp, #0]
     550:	f007 fc94 	bl	7e7c <iprintf>
     554:	42ac      	cmp	r4, r5
     556:	d1db      	bne.n	510 <command_readMemory+0x30>
     558:	f006 fd7e 	bl	7058 <dlog_get_output_level>
     55c:	bb00      	cbnz	r0, 5a0 <command_readMemory+0xc0>
     55e:	481e      	ldr	r0, [pc, #120]	; (5d8 <command_readMemory+0xf8>)
     560:	f000 f8b4 	bl	6cc <AUTO_TEST_PrintResult>
     564:	2100      	movs	r1, #0
     566:	481d      	ldr	r0, [pc, #116]	; (5dc <command_readMemory+0xfc>)
     568:	f000 f8c4 	bl	6f4 <AUTO_TEST_PrintApiRunTime>
     56c:	f006 fd74 	bl	7058 <dlog_get_output_level>
     570:	b908      	cbnz	r0, 576 <command_readMemory+0x96>
     572:	b009      	add	sp, #36	; 0x24
     574:	bdf0      	pop	{r4, r5, r6, r7, pc}
     576:	f44f 71c6 	mov.w	r1, #396	; 0x18c
     57a:	4b19      	ldr	r3, [pc, #100]	; (5e0 <command_readMemory+0x100>)
     57c:	4a14      	ldr	r2, [pc, #80]	; (5d0 <command_readMemory+0xf0>)
     57e:	6809      	ldr	r1, [r1, #0]
     580:	4818      	ldr	r0, [pc, #96]	; (5e4 <command_readMemory+0x104>)
     582:	b009      	add	sp, #36	; 0x24
     584:	e8bd 40f0 	ldmia.w	sp!, {r4, r5, r6, r7, lr}
     588:	f007 bc78 	b.w	7e7c <iprintf>
     58c:	f44f 72c6 	mov.w	r2, #396	; 0x18c
     590:	4b0f      	ldr	r3, [pc, #60]	; (5d0 <command_readMemory+0xf0>)
     592:	4815      	ldr	r0, [pc, #84]	; (5e8 <command_readMemory+0x108>)
     594:	6811      	ldr	r1, [r2, #0]
     596:	461a      	mov	r2, r3
     598:	9400      	str	r4, [sp, #0]
     59a:	f007 fc6f 	bl	7e7c <iprintf>
     59e:	e7a6      	b.n	4ee <command_readMemory+0xe>
     5a0:	f44f 71c6 	mov.w	r1, #396	; 0x18c
     5a4:	4b11      	ldr	r3, [pc, #68]	; (5ec <command_readMemory+0x10c>)
     5a6:	4a0a      	ldr	r2, [pc, #40]	; (5d0 <command_readMemory+0xf0>)
     5a8:	6809      	ldr	r1, [r1, #0]
     5aa:	480e      	ldr	r0, [pc, #56]	; (5e4 <command_readMemory+0x104>)
     5ac:	f007 fc66 	bl	7e7c <iprintf>
     5b0:	e7d5      	b.n	55e <command_readMemory+0x7e>
     5b2:	f006 fd51 	bl	7058 <dlog_get_output_level>
     5b6:	2800      	cmp	r0, #0
     5b8:	d0db      	beq.n	572 <command_readMemory+0x92>
     5ba:	f44f 73c6 	mov.w	r3, #396	; 0x18c
     5be:	4a04      	ldr	r2, [pc, #16]	; (5d0 <command_readMemory+0xf0>)
     5c0:	480b      	ldr	r0, [pc, #44]	; (5f0 <command_readMemory+0x110>)
     5c2:	6819      	ldr	r1, [r3, #0]
     5c4:	b009      	add	sp, #36	; 0x24
     5c6:	e8bd 40f0 	ldmia.w	sp!, {r4, r5, r6, r7, lr}
     5ca:	f007 bc57 	b.w	7e7c <iprintf>
     5ce:	bf00      	nop
     5d0:	0000cf40 	andeq	ip, r0, r0, asr #30
     5d4:	0000cfbc 			; <UNDEFINED> instruction: 0x0000cfbc
     5d8:	0000d058 	andeq	sp, r0, r8, asr r0
     5dc:	0000d060 	andeq	sp, r0, r0, rrx
     5e0:	0000d064 	andeq	sp, r0, r4, rrx
     5e4:	0000d014 	andeq	sp, r0, r4, lsl r0
     5e8:	0000cf7c 	andeq	ip, r0, ip, ror pc
     5ec:	0000d00c 	andeq	sp, r0, ip
     5f0:	0000cf98 	muleq	r0, r8, pc	; <UNPREDICTABLE>

000005f4 <command_writeMemory>:
     5f4:	2200      	movs	r2, #0
     5f6:	b538      	push	{r3, r4, r5, lr}
     5f8:	460d      	mov	r5, r1
     5fa:	4611      	mov	r1, r2
     5fc:	f007 fd54 	bl	80a8 <strtoul>
     600:	1c43      	adds	r3, r0, #1
     602:	d007      	beq.n	614 <command_writeMemory+0x20>
     604:	2200      	movs	r2, #0
     606:	4604      	mov	r4, r0
     608:	4628      	mov	r0, r5
     60a:	4611      	mov	r1, r2
     60c:	f007 fd4c 	bl	80a8 <strtoul>
     610:	6020      	str	r0, [r4, #0]
     612:	bd38      	pop	{r3, r4, r5, pc}
     614:	f006 fd20 	bl	7058 <dlog_get_output_level>
     618:	2801      	cmp	r0, #1
     61a:	d9fa      	bls.n	612 <command_writeMemory+0x1e>
     61c:	f44f 73c6 	mov.w	r3, #396	; 0x18c
     620:	4a03      	ldr	r2, [pc, #12]	; (630 <command_writeMemory+0x3c>)
     622:	4804      	ldr	r0, [pc, #16]	; (634 <command_writeMemory+0x40>)
     624:	6819      	ldr	r1, [r3, #0]
     626:	e8bd 4038 	ldmia.w	sp!, {r3, r4, r5, lr}
     62a:	f007 bc27 	b.w	7e7c <iprintf>
     62e:	bf00      	nop
     630:	0000cf54 	andeq	ip, r0, r4, asr pc
     634:	0000d068 	andeq	sp, r0, r8, rrx

00000638 <command_set_loglevel>:
     638:	460b      	mov	r3, r1
     63a:	2200      	movs	r2, #0
     63c:	b570      	push	{r4, r5, r6, lr}
     63e:	4611      	mov	r1, r2
     640:	4605      	mov	r5, r0
     642:	4618      	mov	r0, r3
     644:	f007 fd30 	bl	80a8 <strtoul>
     648:	4606      	mov	r6, r0
     64a:	f002 fd57 	bl	30fc <CPUINFO_GetLocalCpuId>
     64e:	4604      	mov	r4, r0
     650:	2204      	movs	r2, #4
     652:	4628      	mov	r0, r5
     654:	490e      	ldr	r1, [pc, #56]	; (690 <command_set_loglevel+0x58>)
     656:	f007 fb41 	bl	7cdc <memcmp>
     65a:	b92c      	cbnz	r4, 668 <command_set_loglevel+0x30>
     65c:	b920      	cbnz	r0, 668 <command_set_loglevel+0x30>
     65e:	b2f0      	uxtb	r0, r6
     660:	e8bd 4070 	ldmia.w	sp!, {r4, r5, r6, lr}
     664:	f006 bcec 	b.w	7040 <dlog_set_output_level>
     668:	2204      	movs	r2, #4
     66a:	490a      	ldr	r1, [pc, #40]	; (694 <command_set_loglevel+0x5c>)
     66c:	4628      	mov	r0, r5
     66e:	f007 fb35 	bl	7cdc <memcmp>
     672:	2c01      	cmp	r4, #1
     674:	d101      	bne.n	67a <command_set_loglevel+0x42>
     676:	2800      	cmp	r0, #0
     678:	d0f1      	beq.n	65e <command_set_loglevel+0x26>
     67a:	4628      	mov	r0, r5
     67c:	2204      	movs	r2, #4
     67e:	4906      	ldr	r1, [pc, #24]	; (698 <command_set_loglevel+0x60>)
     680:	f007 fb2c 	bl	7cdc <memcmp>
     684:	2c02      	cmp	r4, #2
     686:	d101      	bne.n	68c <command_set_loglevel+0x54>
     688:	2800      	cmp	r0, #0
     68a:	d0e8      	beq.n	65e <command_set_loglevel+0x26>
     68c:	bd70      	pop	{r4, r5, r6, pc}
     68e:	bf00      	nop
     690:	0000d090 	muleq	r0, r0, r0
     694:	0000d098 	muleq	r0, r8, r0
     698:	0000d0a0 	andeq	sp, r0, r0, lsr #1

0000069c <command_getVersion>:
     69c:	b500      	push	{lr}
     69e:	b091      	sub	sp, #68	; 0x44
     6a0:	4668      	mov	r0, sp
     6a2:	f000 f85d 	bl	760 <HAL_GetVersion>
     6a6:	f006 fcd7 	bl	7058 <dlog_get_output_level>
     6aa:	2802      	cmp	r0, #2
     6ac:	d907      	bls.n	6be <command_getVersion+0x22>
     6ae:	f44f 71c6 	mov.w	r1, #396	; 0x18c
     6b2:	466b      	mov	r3, sp
     6b4:	4a03      	ldr	r2, [pc, #12]	; (6c4 <command_getVersion+0x28>)
     6b6:	6809      	ldr	r1, [r1, #0]
     6b8:	4803      	ldr	r0, [pc, #12]	; (6c8 <command_getVersion+0x2c>)
     6ba:	f007 fbdf 	bl	7e7c <iprintf>
     6be:	b011      	add	sp, #68	; 0x44
     6c0:	f85d fb04 	ldr.w	pc, [sp], #4
     6c4:	0000cf68 	andeq	ip, r0, r8, ror #30
     6c8:	0000d0a8 	andeq	sp, r0, r8, lsr #1

000006cc <AUTO_TEST_PrintResult>:
     6cc:	b510      	push	{r4, lr}
     6ce:	4604      	mov	r4, r0
     6d0:	f006 fcc2 	bl	7058 <dlog_get_output_level>
     6d4:	b900      	cbnz	r0, 6d8 <AUTO_TEST_PrintResult+0xc>
     6d6:	bd10      	pop	{r4, pc}
     6d8:	f44f 71c6 	mov.w	r1, #396	; 0x18c
     6dc:	4623      	mov	r3, r4
     6de:	4a03      	ldr	r2, [pc, #12]	; (6ec <AUTO_TEST_PrintResult+0x20>)
     6e0:	6809      	ldr	r1, [r1, #0]
     6e2:	4803      	ldr	r0, [pc, #12]	; (6f0 <AUTO_TEST_PrintResult+0x24>)
     6e4:	e8bd 4010 	ldmia.w	sp!, {r4, lr}
     6e8:	f007 bbc8 	b.w	7e7c <iprintf>
     6ec:	0000d0b8 	strheq	sp, [r0], -r8
     6f0:	0000d0ec 	andeq	sp, r0, ip, ror #1

000006f4 <AUTO_TEST_PrintApiRunTime>:
     6f4:	b530      	push	{r4, r5, lr}
     6f6:	b083      	sub	sp, #12
     6f8:	4605      	mov	r5, r0
     6fa:	460c      	mov	r4, r1
     6fc:	f006 fcac 	bl	7058 <dlog_get_output_level>
     700:	b140      	cbz	r0, 714 <AUTO_TEST_PrintApiRunTime+0x20>
     702:	f44f 71c6 	mov.w	r1, #396	; 0x18c
     706:	462b      	mov	r3, r5
     708:	4a03      	ldr	r2, [pc, #12]	; (718 <AUTO_TEST_PrintApiRunTime+0x24>)
     70a:	6809      	ldr	r1, [r1, #0]
     70c:	4803      	ldr	r0, [pc, #12]	; (71c <AUTO_TEST_PrintApiRunTime+0x28>)
     70e:	9400      	str	r4, [sp, #0]
     710:	f007 fbb4 	bl	7e7c <iprintf>
     714:	b003      	add	sp, #12
     716:	bd30      	pop	{r4, r5, pc}
     718:	0000d0d0 	ldrdeq	sp, [r0], -r0
     71c:	0000d104 	andeq	sp, r0, r4, lsl #2

00000720 <AUTO_TEST_TimeRecord>:
     720:	b508      	push	{r3, lr}
     722:	f000 f81b 	bl	75c <HAL_GetSysUsTick>
     726:	4b02      	ldr	r3, [pc, #8]	; (730 <AUTO_TEST_TimeRecord+0x10>)
     728:	e9c3 0100 	strd	r0, r1, [r3]
     72c:	bd08      	pop	{r3, pc}
     72e:	bf00      	nop
     730:	20000208 	andcs	r0, r0, r8, lsl #4

00000734 <AUTO_TEST_CalcTimeDiff>:
     734:	b510      	push	{r4, lr}
     736:	4c05      	ldr	r4, [pc, #20]	; (74c <AUTO_TEST_CalcTimeDiff+0x18>)
     738:	f000 f810 	bl	75c <HAL_GetSysUsTick>
     73c:	4602      	mov	r2, r0
     73e:	460b      	mov	r3, r1
     740:	e9d4 0100 	ldrd	r0, r1, [r4]
     744:	e8bd 4010 	ldmia.w	sp!, {r4, lr}
     748:	f002 bca2 	b.w	3090 <SysTicks_GetUsDiff>
     74c:	20000208 	andcs	r0, r0, r8, lsl #4

00000750 <HAL_Delay>:
     750:	b508      	push	{r3, lr}
     752:	f002 fcad 	bl	30b0 <ar_osDelay>
     756:	bd08      	pop	{r3, pc}

00000758 <HAL_GetSysMsTick>:
     758:	f002 bbc2 	b.w	2ee0 <SysTicks_GetTickCount>

0000075c <HAL_GetSysUsTick>:
     75c:	f002 bbc6 	b.w	2eec <SysTicks_GetUsTickCount>

00000760 <HAL_GetVersion>:
     760:	b5f0      	push	{r4, r5, r6, r7, lr}
     762:	4c87      	ldr	r4, [pc, #540]	; (980 <HAL_GetVersion+0x220>)
     764:	b089      	sub	sp, #36	; 0x24
     766:	4607      	mov	r7, r0
     768:	4e86      	ldr	r6, [pc, #536]	; (984 <HAL_GetVersion+0x224>)
     76a:	6820      	ldr	r0, [r4, #0]
     76c:	466a      	mov	r2, sp
     76e:	4986      	ldr	r1, [pc, #536]	; (988 <HAL_GetVersion+0x228>)
     770:	463b      	mov	r3, r7
     772:	9000      	str	r0, [sp, #0]
     774:	f04f 0e3a 	mov.w	lr, #58	; 0x3a
     778:	88a5      	ldrh	r5, [r4, #4]
     77a:	79a0      	ldrb	r0, [r4, #6]
     77c:	f8ad 5004 	strh.w	r5, [sp, #4]
     780:	2500      	movs	r5, #0
     782:	f88d 0006 	strb.w	r0, [sp, #6]
     786:	8834      	ldrh	r4, [r6, #0]
     788:	78b0      	ldrb	r0, [r6, #2]
     78a:	2620      	movs	r6, #32
     78c:	f8ad 4007 	strh.w	r4, [sp, #7]
     790:	242e      	movs	r4, #46	; 0x2e
     792:	f88d 0009 	strb.w	r0, [sp, #9]
     796:	6808      	ldr	r0, [r1, #0]
     798:	f8cd 000a 	str.w	r0, [sp, #10]
     79c:	8888      	ldrh	r0, [r1, #4]
     79e:	7989      	ldrb	r1, [r1, #6]
     7a0:	f8ad 000e 	strh.w	r0, [sp, #14]
     7a4:	f88d 1010 	strb.w	r1, [sp, #16]
     7a8:	4978      	ldr	r1, [pc, #480]	; (98c <HAL_GetVersion+0x22c>)
     7aa:	8808      	ldrh	r0, [r1, #0]
     7ac:	7889      	ldrb	r1, [r1, #2]
     7ae:	f8ad 0011 	strh.w	r0, [sp, #17]
     7b2:	f88d 1013 	strb.w	r1, [sp, #19]
     7b6:	79d1      	ldrb	r1, [r2, #7]
     7b8:	331d      	adds	r3, #29
     7ba:	f803 4c1b 	strb.w	r4, [r3, #-27]
     7be:	320a      	adds	r2, #10
     7c0:	0908      	lsrs	r0, r1, #4
     7c2:	f001 010f 	and.w	r1, r1, #15
     7c6:	f803 4c18 	strb.w	r4, [r3, #-24]
     7ca:	2809      	cmp	r0, #9
     7cc:	f803 6c15 	strb.w	r6, [r3, #-21]
     7d0:	f803 4c10 	strb.w	r4, [r3, #-16]
     7d4:	bf94      	ite	ls
     7d6:	3030      	addls	r0, #48	; 0x30
     7d8:	3037      	addhi	r0, #55	; 0x37
     7da:	2909      	cmp	r1, #9
     7dc:	f803 4c0d 	strb.w	r4, [r3, #-13]
     7e0:	f803 0c1d 	strb.w	r0, [r3, #-29]
     7e4:	bf94      	ite	ls
     7e6:	f101 0030 	addls.w	r0, r1, #48	; 0x30
     7ea:	f101 0037 	addhi.w	r0, r1, #55	; 0x37
     7ee:	f812 1c02 	ldrb.w	r1, [r2, #-2]
     7f2:	f803 0c1c 	strb.w	r0, [r3, #-28]
     7f6:	0908      	lsrs	r0, r1, #4
     7f8:	f001 010f 	and.w	r1, r1, #15
     7fc:	f803 6c0a 	strb.w	r6, [r3, #-10]
     800:	2809      	cmp	r0, #9
     802:	f803 ec07 	strb.w	lr, [r3, #-7]
     806:	bf94      	ite	ls
     808:	3030      	addls	r0, #48	; 0x30
     80a:	3037      	addhi	r0, #55	; 0x37
     80c:	2909      	cmp	r1, #9
     80e:	f803 0c1a 	strb.w	r0, [r3, #-26]
     812:	bf94      	ite	ls
     814:	f101 0030 	addls.w	r0, r1, #48	; 0x30
     818:	f101 0037 	addhi.w	r0, r1, #55	; 0x37
     81c:	f812 1c01 	ldrb.w	r1, [r2, #-1]
     820:	f803 0c19 	strb.w	r0, [r3, #-25]
     824:	0908      	lsrs	r0, r1, #4
     826:	f001 010f 	and.w	r1, r1, #15
     82a:	2809      	cmp	r0, #9
     82c:	bf94      	ite	ls
     82e:	3030      	addls	r0, #48	; 0x30
     830:	3037      	addhi	r0, #55	; 0x37
     832:	2909      	cmp	r1, #9
     834:	f803 0c17 	strb.w	r0, [r3, #-23]
     838:	bf94      	ite	ls
     83a:	f101 0030 	addls.w	r0, r1, #48	; 0x30
     83e:	f101 0037 	addhi.w	r0, r1, #55	; 0x37
     842:	f81d 1005 	ldrb.w	r1, [sp, r5]
     846:	350a      	adds	r5, #10
     848:	f803 0c16 	strb.w	r0, [r3, #-22]
     84c:	0908      	lsrs	r0, r1, #4
     84e:	f001 010f 	and.w	r1, r1, #15
     852:	2809      	cmp	r0, #9
     854:	bf94      	ite	ls
     856:	3030      	addls	r0, #48	; 0x30
     858:	3037      	addhi	r0, #55	; 0x37
     85a:	2909      	cmp	r1, #9
     85c:	f803 0c14 	strb.w	r0, [r3, #-20]
     860:	bf94      	ite	ls
     862:	f101 0030 	addls.w	r0, r1, #48	; 0x30
     866:	f101 0037 	addhi.w	r0, r1, #55	; 0x37
     86a:	f812 1c09 	ldrb.w	r1, [r2, #-9]
     86e:	f803 0c13 	strb.w	r0, [r3, #-19]
     872:	0908      	lsrs	r0, r1, #4
     874:	f001 010f 	and.w	r1, r1, #15
     878:	2809      	cmp	r0, #9
     87a:	bf94      	ite	ls
     87c:	3030      	addls	r0, #48	; 0x30
     87e:	3037      	addhi	r0, #55	; 0x37
     880:	2909      	cmp	r1, #9
     882:	f803 0c12 	strb.w	r0, [r3, #-18]
     886:	bf94      	ite	ls
     888:	f101 0030 	addls.w	r0, r1, #48	; 0x30
     88c:	f101 0037 	addhi.w	r0, r1, #55	; 0x37
     890:	f812 1c08 	ldrb.w	r1, [r2, #-8]
     894:	f803 0c11 	strb.w	r0, [r3, #-17]
     898:	0908      	lsrs	r0, r1, #4
     89a:	f001 010f 	and.w	r1, r1, #15
     89e:	2809      	cmp	r0, #9
     8a0:	bf94      	ite	ls
     8a2:	3030      	addls	r0, #48	; 0x30
     8a4:	3037      	addhi	r0, #55	; 0x37
     8a6:	2909      	cmp	r1, #9
     8a8:	f803 0c0f 	strb.w	r0, [r3, #-15]
     8ac:	bf94      	ite	ls
     8ae:	f101 0030 	addls.w	r0, r1, #48	; 0x30
     8b2:	f101 0037 	addhi.w	r0, r1, #55	; 0x37
     8b6:	f812 1c07 	ldrb.w	r1, [r2, #-7]
     8ba:	f803 0c0e 	strb.w	r0, [r3, #-14]
     8be:	0908      	lsrs	r0, r1, #4
     8c0:	f001 010f 	and.w	r1, r1, #15
     8c4:	2809      	cmp	r0, #9
     8c6:	bf94      	ite	ls
     8c8:	3030      	addls	r0, #48	; 0x30
     8ca:	3037      	addhi	r0, #55	; 0x37
     8cc:	2909      	cmp	r1, #9
     8ce:	f803 0c0c 	strb.w	r0, [r3, #-12]
     8d2:	bf94      	ite	ls
     8d4:	f101 0030 	addls.w	r0, r1, #48	; 0x30
     8d8:	f101 0037 	addhi.w	r0, r1, #55	; 0x37
     8dc:	f812 1c06 	ldrb.w	r1, [r2, #-6]
     8e0:	f803 0c0b 	strb.w	r0, [r3, #-11]
     8e4:	0908      	lsrs	r0, r1, #4
     8e6:	f001 010f 	and.w	r1, r1, #15
     8ea:	2809      	cmp	r0, #9
     8ec:	bf94      	ite	ls
     8ee:	3030      	addls	r0, #48	; 0x30
     8f0:	3037      	addhi	r0, #55	; 0x37
     8f2:	2909      	cmp	r1, #9
     8f4:	f803 0c09 	strb.w	r0, [r3, #-9]
     8f8:	bf94      	ite	ls
     8fa:	f101 0030 	addls.w	r0, r1, #48	; 0x30
     8fe:	f101 0037 	addhi.w	r0, r1, #55	; 0x37
     902:	f812 1c05 	ldrb.w	r1, [r2, #-5]
     906:	f803 0c08 	strb.w	r0, [r3, #-8]
     90a:	0908      	lsrs	r0, r1, #4
     90c:	f001 010f 	and.w	r1, r1, #15
     910:	2809      	cmp	r0, #9
     912:	bf94      	ite	ls
     914:	3030      	addls	r0, #48	; 0x30
     916:	3037      	addhi	r0, #55	; 0x37
     918:	2909      	cmp	r1, #9
     91a:	f803 0c06 	strb.w	r0, [r3, #-6]
     91e:	bf94      	ite	ls
     920:	f101 0030 	addls.w	r0, r1, #48	; 0x30
     924:	f101 0037 	addhi.w	r0, r1, #55	; 0x37
     928:	f812 1c04 	ldrb.w	r1, [r2, #-4]
     92c:	f803 0c05 	strb.w	r0, [r3, #-5]
     930:	0908      	lsrs	r0, r1, #4
     932:	f001 010f 	and.w	r1, r1, #15
     936:	f803 ec04 	strb.w	lr, [r3, #-4]
     93a:	2809      	cmp	r0, #9
     93c:	f803 6c01 	strb.w	r6, [r3, #-1]
     940:	bf94      	ite	ls
     942:	3030      	addls	r0, #48	; 0x30
     944:	3037      	addhi	r0, #55	; 0x37
     946:	2909      	cmp	r1, #9
     948:	f803 0c03 	strb.w	r0, [r3, #-3]
     94c:	bf94      	ite	ls
     94e:	3130      	addls	r1, #48	; 0x30
     950:	3137      	addhi	r1, #55	; 0x37
     952:	2d14      	cmp	r5, #20
     954:	f803 1c02 	strb.w	r1, [r3, #-2]
     958:	f47f af2d 	bne.w	7b6 <HAL_GetVersion+0x56>
     95c:	2300      	movs	r3, #0
     95e:	f887 303a 	strb.w	r3, [r7, #58]	; 0x3a
     962:	f006 fb79 	bl	7058 <dlog_get_output_level>
     966:	2802      	cmp	r0, #2
     968:	d907      	bls.n	97a <HAL_GetVersion+0x21a>
     96a:	f44f 71c6 	mov.w	r1, #396	; 0x18c
     96e:	233b      	movs	r3, #59	; 0x3b
     970:	4a07      	ldr	r2, [pc, #28]	; (990 <HAL_GetVersion+0x230>)
     972:	6809      	ldr	r1, [r1, #0]
     974:	4807      	ldr	r0, [pc, #28]	; (994 <HAL_GetVersion+0x234>)
     976:	f007 fa81 	bl	7e7c <iprintf>
     97a:	2000      	movs	r0, #0
     97c:	b009      	add	sp, #36	; 0x24
     97e:	bdf0      	pop	{r4, r5, r6, r7, pc}
     980:	10028001 	andne	r8, r2, r1
     984:	10028009 	andne	r8, r2, r9
     988:	10008001 	andne	r8, r0, r1
     98c:	10008009 	andne	r8, r0, r9
     990:	0000d24c 	andeq	sp, r0, ip, asr #4
     994:	0000d25c 	andeq	sp, r0, ip, asr r2

00000998 <HAL_SYS_CTL_SetCpuClk>:
     998:	b570      	push	{r4, r5, r6, lr}
     99a:	4606      	mov	r6, r0
     99c:	460d      	mov	r5, r1
     99e:	f002 fbad 	bl	30fc <CPUINFO_GetLocalCpuId>
     9a2:	b108      	cbz	r0, 9a8 <HAL_SYS_CTL_SetCpuClk+0x10>
     9a4:	4808      	ldr	r0, [pc, #32]	; (9c8 <HAL_SYS_CTL_SetCpuClk+0x30>)
     9a6:	bd70      	pop	{r4, r5, r6, pc}
     9a8:	4604      	mov	r4, r0
     9aa:	f003 fbb7 	bl	411c <BB_SPI_init>
     9ae:	4630      	mov	r0, r6
     9b0:	4621      	mov	r1, r4
     9b2:	f001 f945 	bl	1c40 <PLLCTRL_SetCoreClk>
     9b6:	4628      	mov	r0, r5
     9b8:	2102      	movs	r1, #2
     9ba:	f001 f941 	bl	1c40 <PLLCTRL_SetCoreClk>
     9be:	4620      	mov	r0, r4
     9c0:	f003 fc3e 	bl	4240 <BB_SPI_DisableEnable>
     9c4:	4620      	mov	r0, r4
     9c6:	bd70      	pop	{r4, r5, r6, pc}
     9c8:	00060002 	andeq	r0, r6, r2

000009cc <HAL_SYS_CTL_FpuEnable>:
     9cc:	2801      	cmp	r0, #1
     9ce:	b508      	push	{r3, lr}
     9d0:	d004      	beq.n	9dc <HAL_SYS_CTL_FpuEnable+0x10>
     9d2:	b908      	cbnz	r0, 9d8 <HAL_SYS_CTL_FpuEnable+0xc>
     9d4:	f002 fb8a 	bl	30ec <FPU_AccessDisable>
     9d8:	2000      	movs	r0, #0
     9da:	bd08      	pop	{r3, pc}
     9dc:	f002 fb7e 	bl	30dc <FPU_AccessEnable>
     9e0:	e7fa      	b.n	9d8 <HAL_SYS_CTL_FpuEnable+0xc>
     9e2:	bf00      	nop

000009e4 <HAL_SYS_CTL_SysTickInit>:
     9e4:	b508      	push	{r3, lr}
     9e6:	22f8      	movs	r2, #248	; 0xf8
     9e8:	4b03      	ldr	r3, [pc, #12]	; (9f8 <HAL_SYS_CTL_SysTickInit+0x14>)
     9ea:	f883 2023 	strb.w	r2, [r3, #35]	; 0x23
     9ee:	f002 fa4f 	bl	2e90 <SysTicks_Init>
     9f2:	2000      	movs	r0, #0
     9f4:	bd08      	pop	{r3, pc}
     9f6:	bf00      	nop
     9f8:	e000ed00 	and	lr, r0, r0, lsl #26

000009fc <HAL_SYS_CTL_GetConfig>:
     9fc:	4b01      	ldr	r3, [pc, #4]	; (a04 <HAL_SYS_CTL_GetConfig+0x8>)
     9fe:	6003      	str	r3, [r0, #0]
     a00:	2000      	movs	r0, #0
     a02:	4770      	bx	lr
     a04:	20000040 	andcs	r0, r0, r0, asr #32

00000a08 <SYS_ClearResouce>:
     a08:	b508      	push	{r3, lr}
     a0a:	f006 fc71 	bl	72f0 <COMMON_driverMutexInit>
     a0e:	e8bd 4008 	ldmia.w	sp!, {r3, lr}
     a12:	f003 bde7 	b.w	45e4 <BB_ComClearResource>
     a16:	bf00      	nop

00000a18 <BB_ledInit>:
     a18:	b508      	push	{r3, lr}
     a1a:	2102      	movs	r1, #2
     a1c:	2047      	movs	r0, #71	; 0x47
     a1e:	f000 f90d 	bl	c3c <HAL_GPIO_SetMode>
     a22:	2047      	movs	r0, #71	; 0x47
     a24:	f000 f918 	bl	c58 <HAL_GPIO_OutPut>
     a28:	2102      	movs	r1, #2
     a2a:	2043      	movs	r0, #67	; 0x43
     a2c:	f000 f906 	bl	c3c <HAL_GPIO_SetMode>
     a30:	2043      	movs	r0, #67	; 0x43
     a32:	f000 f911 	bl	c58 <HAL_GPIO_OutPut>
     a36:	2101      	movs	r1, #1
     a38:	2047      	movs	r0, #71	; 0x47
     a3a:	f000 f96d 	bl	d18 <HAL_GPIO_SetPin>
     a3e:	2101      	movs	r1, #1
     a40:	2043      	movs	r0, #67	; 0x43
     a42:	e8bd 4008 	ldmia.w	sp!, {r3, lr}
     a46:	f000 b967 	b.w	d18 <HAL_GPIO_SetPin>
     a4a:	bf00      	nop

00000a4c <HAL_SYS_CTL_Init>:
     a4c:	b510      	push	{r4, lr}
     a4e:	2300      	movs	r3, #0
     a50:	b082      	sub	sp, #8
     a52:	4c38      	ldr	r4, [pc, #224]	; (b34 <HAL_SYS_CTL_Init+0xe8>)
     a54:	f8ad 3006 	strh.w	r3, [sp, #6]
     a58:	4298      	cmp	r0, r3
     a5a:	bf18      	it	ne
     a5c:	4604      	movne	r4, r0
     a5e:	f002 fb4d 	bl	30fc <CPUINFO_GetLocalCpuId>
     a62:	2800      	cmp	r0, #0
     a64:	d150      	bne.n	b08 <HAL_SYS_CTL_Init+0xbc>
     a66:	7aa3      	ldrb	r3, [r4, #10]
     a68:	4833      	ldr	r0, [pc, #204]	; (b38 <HAL_SYS_CTL_Init+0xec>)
     a6a:	2b00      	cmp	r3, #0
     a6c:	bf14      	ite	ne
     a6e:	2103      	movne	r1, #3
     a70:	2101      	moveq	r1, #1
     a72:	f001 f8d5 	bl	1c20 <Reg_Write32>
     a76:	7aa3      	ldrb	r3, [r4, #10]
     a78:	2b00      	cmp	r3, #0
     a7a:	d04b      	beq.n	b14 <HAL_SYS_CTL_Init+0xc8>
     a7c:	f006 fc38 	bl	72f0 <COMMON_driverMutexInit>
     a80:	f003 fdb0 	bl	45e4 <BB_ComClearResource>
     a84:	f001 f95c 	bl	1d40 <InterCore_Init>
     a88:	2002      	movs	r0, #2
     a8a:	f000 ff1f 	bl	18cc <HAL_NVIC_SetPriorityGrouping>
     a8e:	8861      	ldrh	r1, [r4, #2]
     a90:	8820      	ldrh	r0, [r4, #0]
     a92:	f7ff ff81 	bl	998 <HAL_SYS_CTL_SetCpuClk>
     a96:	f002 fb31 	bl	30fc <CPUINFO_GetLocalCpuId>
     a9a:	b910      	cbnz	r0, aa2 <HAL_SYS_CTL_Init+0x56>
     a9c:	4b27      	ldr	r3, [pc, #156]	; (b3c <HAL_SYS_CTL_Init+0xf0>)
     a9e:	4a28      	ldr	r2, [pc, #160]	; (b40 <HAL_SYS_CTL_Init+0xf4>)
     aa0:	601a      	str	r2, [r3, #0]
     aa2:	f001 f91d 	bl	1ce0 <PLLCTRL_CheckCoreClkReady>
     aa6:	2800      	cmp	r0, #0
     aa8:	d0fb      	beq.n	aa2 <HAL_SYS_CTL_Init+0x56>
     aaa:	7923      	ldrb	r3, [r4, #4]
     aac:	2b01      	cmp	r3, #1
     aae:	d03e      	beq.n	b2e <HAL_SYS_CTL_Init+0xe2>
     ab0:	b90b      	cbnz	r3, ab6 <HAL_SYS_CTL_Init+0x6a>
     ab2:	f002 fb1b 	bl	30ec <FPU_AccessDisable>
     ab6:	2200      	movs	r2, #0
     ab8:	211f      	movs	r1, #31
     aba:	f04f 30ff 	mov.w	r0, #4294967295
     abe:	f000 ff19 	bl	18f4 <HAL_NVIC_SetPriority>
     ac2:	f002 fb1b 	bl	30fc <CPUINFO_GetLocalCpuId>
     ac6:	4601      	mov	r1, r0
     ac8:	f10d 0006 	add.w	r0, sp, #6
     acc:	f001 f8fc 	bl	1cc8 <PLLCTRL_GetCoreClk>
     ad0:	f8bd 2006 	ldrh.w	r2, [sp, #6]
     ad4:	4b1b      	ldr	r3, [pc, #108]	; (b44 <HAL_SYS_CTL_Init+0xf8>)
     ad6:	21f8      	movs	r1, #248	; 0xf8
     ad8:	8920      	ldrh	r0, [r4, #8]
     ada:	fb03 f302 	mul.w	r3, r3, r2
     ade:	4a1a      	ldr	r2, [pc, #104]	; (b48 <HAL_SYS_CTL_Init+0xfc>)
     ae0:	fbb3 f0f0 	udiv	r0, r3, r0
     ae4:	f882 1023 	strb.w	r1, [r2, #35]	; 0x23
     ae8:	f002 f9d2 	bl	2e90 <SysTicks_Init>
     aec:	200a      	movs	r0, #10
     aee:	f002 fa5b 	bl	2fa8 <SysTicks_DelayMS>
     af2:	7960      	ldrb	r0, [r4, #5]
     af4:	f002 fb06 	bl	3104 <CPUINFO_ICacheEnable>
     af8:	79a0      	ldrb	r0, [r4, #6]
     afa:	f002 fb31 	bl	3160 <CPUINFO_DCacheEnable>
     afe:	f007 f8ad 	bl	7c5c <cpp_run_init_array>
     b02:	2000      	movs	r0, #0
     b04:	b002      	add	sp, #8
     b06:	bd10      	pop	{r4, pc}
     b08:	490c      	ldr	r1, [pc, #48]	; (b3c <HAL_SYS_CTL_Init+0xf0>)
     b0a:	4a0d      	ldr	r2, [pc, #52]	; (b40 <HAL_SYS_CTL_Init+0xf4>)
     b0c:	680b      	ldr	r3, [r1, #0]
     b0e:	4293      	cmp	r3, r2
     b10:	d1fc      	bne.n	b0c <HAL_SYS_CTL_Init+0xc0>
     b12:	e7b7      	b.n	a84 <HAL_SYS_CTL_Init+0x38>
     b14:	490d      	ldr	r1, [pc, #52]	; (b4c <HAL_SYS_CTL_Init+0x100>)
     b16:	480e      	ldr	r0, [pc, #56]	; (b50 <HAL_SYS_CTL_Init+0x104>)
     b18:	f001 f882 	bl	1c20 <Reg_Write32>
     b1c:	490d      	ldr	r1, [pc, #52]	; (b54 <HAL_SYS_CTL_Init+0x108>)
     b1e:	480e      	ldr	r0, [pc, #56]	; (b58 <HAL_SYS_CTL_Init+0x10c>)
     b20:	f001 f87e 	bl	1c20 <Reg_Write32>
     b24:	2136      	movs	r1, #54	; 0x36
     b26:	480d      	ldr	r0, [pc, #52]	; (b5c <HAL_SYS_CTL_Init+0x110>)
     b28:	f001 f87a 	bl	1c20 <Reg_Write32>
     b2c:	e7a6      	b.n	a7c <HAL_SYS_CTL_Init+0x30>
     b2e:	f002 fad5 	bl	30dc <FPU_AccessEnable>
     b32:	e7c0      	b.n	ab6 <HAL_SYS_CTL_Init+0x6a>
     b34:	20000040 	andcs	r0, r0, r0, asr #32
     b38:	40b00068 	adcsmi	r0, r0, r8, rrx
     b3c:	40b00048 	adcsmi	r0, r0, r8, asr #32
     b40:	35533553 	ldrbcc	r3, [r3, #-1363]	; 0xfffffaad
     b44:	000f4240 	andeq	r4, pc, r0, asr #4
     b48:	e000ed00 	and	lr, r0, r0, lsl #26
     b4c:	81c00000 	bichi	r0, r0, r0
     b50:	a003007c 	andge	r0, r3, ip, ror r0
     b54:	81d00000 	bicshi	r0, r0, r0
     b58:	a0030080 	andge	r0, r3, r0, lsl #1
     b5c:	a0030084 	andge	r0, r3, r4, lsl #1

00000b60 <GPIO_VectorFunctionN3>:
     b60:	b5f8      	push	{r3, r4, r5, r6, r7, lr}
     b62:	4607      	mov	r7, r0
     b64:	f001 fd26 	bl	25b4 <GPIO_Intr_GetIntrGroupStatus>
     b68:	b2c6      	uxtb	r6, r0
     b6a:	4d0a      	ldr	r5, [pc, #40]	; (b94 <GPIO_VectorFunctionN3+0x34>)
     b6c:	4638      	mov	r0, r7
     b6e:	2400      	movs	r4, #0
     b70:	4631      	mov	r1, r6
     b72:	f001 fd5d 	bl	2630 <GPIO_Intr_ClearIntrGroup>
     b76:	fa46 f304 	asr.w	r3, r6, r4
     b7a:	3401      	adds	r4, #1
     b7c:	f013 0f01 	tst.w	r3, #1
     b80:	d003      	beq.n	b8a <GPIO_VectorFunctionN3+0x2a>
     b82:	682b      	ldr	r3, [r5, #0]
     b84:	4638      	mov	r0, r7
     b86:	b103      	cbz	r3, b8a <GPIO_VectorFunctionN3+0x2a>
     b88:	4798      	blx	r3
     b8a:	2c08      	cmp	r4, #8
     b8c:	f105 0504 	add.w	r5, r5, #4
     b90:	d1f1      	bne.n	b76 <GPIO_VectorFunctionN3+0x16>
     b92:	bdf8      	pop	{r3, r4, r5, r6, r7, pc}
     b94:	20000270 	andcs	r0, r0, r0, ror r2

00000b98 <GPIO_VectorFunctionN2>:
     b98:	b5f8      	push	{r3, r4, r5, r6, r7, lr}
     b9a:	4607      	mov	r7, r0
     b9c:	f001 fd0a 	bl	25b4 <GPIO_Intr_GetIntrGroupStatus>
     ba0:	b2c6      	uxtb	r6, r0
     ba2:	4d0a      	ldr	r5, [pc, #40]	; (bcc <GPIO_VectorFunctionN2+0x34>)
     ba4:	4638      	mov	r0, r7
     ba6:	2400      	movs	r4, #0
     ba8:	4631      	mov	r1, r6
     baa:	f001 fd41 	bl	2630 <GPIO_Intr_ClearIntrGroup>
     bae:	fa46 f304 	asr.w	r3, r6, r4
     bb2:	3401      	adds	r4, #1
     bb4:	f013 0f01 	tst.w	r3, #1
     bb8:	d003      	beq.n	bc2 <GPIO_VectorFunctionN2+0x2a>
     bba:	682b      	ldr	r3, [r5, #0]
     bbc:	4638      	mov	r0, r7
     bbe:	b103      	cbz	r3, bc2 <GPIO_VectorFunctionN2+0x2a>
     bc0:	4798      	blx	r3
     bc2:	2c08      	cmp	r4, #8
     bc4:	f105 0504 	add.w	r5, r5, #4
     bc8:	d1f1      	bne.n	bae <GPIO_VectorFunctionN2+0x16>
     bca:	bdf8      	pop	{r3, r4, r5, r6, r7, pc}
     bcc:	20000250 	andcs	r0, r0, r0, asr r2

00000bd0 <GPIO_VectorFunctionN1>:
     bd0:	b5f8      	push	{r3, r4, r5, r6, r7, lr}
     bd2:	4607      	mov	r7, r0
     bd4:	f001 fcee 	bl	25b4 <GPIO_Intr_GetIntrGroupStatus>
     bd8:	b2c6      	uxtb	r6, r0
     bda:	4d0a      	ldr	r5, [pc, #40]	; (c04 <GPIO_VectorFunctionN1+0x34>)
     bdc:	4638      	mov	r0, r7
     bde:	2400      	movs	r4, #0
     be0:	4631      	mov	r1, r6
     be2:	f001 fd25 	bl	2630 <GPIO_Intr_ClearIntrGroup>
     be6:	fa46 f304 	asr.w	r3, r6, r4
     bea:	3401      	adds	r4, #1
     bec:	f013 0f01 	tst.w	r3, #1
     bf0:	d003      	beq.n	bfa <GPIO_VectorFunctionN1+0x2a>
     bf2:	682b      	ldr	r3, [r5, #0]
     bf4:	4638      	mov	r0, r7
     bf6:	b103      	cbz	r3, bfa <GPIO_VectorFunctionN1+0x2a>
     bf8:	4798      	blx	r3
     bfa:	2c08      	cmp	r4, #8
     bfc:	f105 0504 	add.w	r5, r5, #4
     c00:	d1f1      	bne.n	be6 <GPIO_VectorFunctionN1+0x16>
     c02:	bdf8      	pop	{r3, r4, r5, r6, r7, pc}
     c04:	20000230 	andcs	r0, r0, r0, lsr r2

00000c08 <GPIO_VectorFunctionN0>:
     c08:	b5f8      	push	{r3, r4, r5, r6, r7, lr}
     c0a:	4606      	mov	r6, r0
     c0c:	f001 fcd2 	bl	25b4 <GPIO_Intr_GetIntrGroupStatus>
     c10:	b2c5      	uxtb	r5, r0
     c12:	2400      	movs	r4, #0
     c14:	4630      	mov	r0, r6
     c16:	4f08      	ldr	r7, [pc, #32]	; (c38 <GPIO_VectorFunctionN0+0x30>)
     c18:	4629      	mov	r1, r5
     c1a:	f001 fd09 	bl	2630 <GPIO_Intr_ClearIntrGroup>
     c1e:	fa45 f304 	asr.w	r3, r5, r4
     c22:	07db      	lsls	r3, r3, #31
     c24:	d504      	bpl.n	c30 <GPIO_VectorFunctionN0+0x28>
     c26:	f857 3024 	ldr.w	r3, [r7, r4, lsl #2]
     c2a:	4630      	mov	r0, r6
     c2c:	b103      	cbz	r3, c30 <GPIO_VectorFunctionN0+0x28>
     c2e:	4798      	blx	r3
     c30:	3401      	adds	r4, #1
     c32:	2c08      	cmp	r4, #8
     c34:	d1f3      	bne.n	c1e <GPIO_VectorFunctionN0+0x16>
     c36:	bdf8      	pop	{r3, r4, r5, r6, r7, pc}
     c38:	20000210 	andcs	r0, r0, r0, lsl r2

00000c3c <HAL_GPIO_SetMode>:
     c3c:	b508      	push	{r3, lr}
     c3e:	09c3      	lsrs	r3, r0, #7
     c40:	d003      	beq.n	c4a <HAL_GPIO_SetMode+0xe>
     c42:	2902      	cmp	r1, #2
     c44:	d901      	bls.n	c4a <HAL_GPIO_SetMode+0xe>
     c46:	4803      	ldr	r0, [pc, #12]	; (c54 <HAL_GPIO_SetMode+0x18>)
     c48:	bd08      	pop	{r3, pc}
     c4a:	f001 fb6d 	bl	2328 <GPIO_SetMode>
     c4e:	2000      	movs	r0, #0
     c50:	bd08      	pop	{r3, pc}
     c52:	bf00      	nop
     c54:	00030001 	andeq	r0, r3, r1

00000c58 <HAL_GPIO_OutPut>:
     c58:	0603      	lsls	r3, r0, #24
     c5a:	d501      	bpl.n	c60 <HAL_GPIO_OutPut+0x8>
     c5c:	4808      	ldr	r0, [pc, #32]	; (c80 <HAL_GPIO_OutPut+0x28>)
     c5e:	4770      	bx	lr
     c60:	b510      	push	{r4, lr}
     c62:	4604      	mov	r4, r0
     c64:	2102      	movs	r1, #2
     c66:	f001 fb5f 	bl	2328 <GPIO_SetMode>
     c6a:	2101      	movs	r1, #1
     c6c:	4620      	mov	r0, r4
     c6e:	f001 fbbb 	bl	23e8 <GPIO_SetPinDirect>
     c72:	4620      	mov	r0, r4
     c74:	2100      	movs	r1, #0
     c76:	f001 fbdf 	bl	2438 <GPIO_SetPinCtrl>
     c7a:	2000      	movs	r0, #0
     c7c:	bd10      	pop	{r4, pc}
     c7e:	bf00      	nop
     c80:	00030001 	andeq	r0, r3, r1

00000c84 <HAL_GPIO_InPut>:
     c84:	0603      	lsls	r3, r0, #24
     c86:	d501      	bpl.n	c8c <HAL_GPIO_InPut+0x8>
     c88:	4808      	ldr	r0, [pc, #32]	; (cac <HAL_GPIO_InPut+0x28>)
     c8a:	4770      	bx	lr
     c8c:	b510      	push	{r4, lr}
     c8e:	4604      	mov	r4, r0
     c90:	2102      	movs	r1, #2
     c92:	f001 fb49 	bl	2328 <GPIO_SetMode>
     c96:	2100      	movs	r1, #0
     c98:	4620      	mov	r0, r4
     c9a:	f001 fba5 	bl	23e8 <GPIO_SetPinDirect>
     c9e:	4620      	mov	r0, r4
     ca0:	2100      	movs	r1, #0
     ca2:	f001 fbc9 	bl	2438 <GPIO_SetPinCtrl>
     ca6:	2000      	movs	r0, #0
     ca8:	bd10      	pop	{r4, pc}
     caa:	bf00      	nop
     cac:	00030001 	andeq	r0, r3, r1

00000cb0 <HAL_GPIO_GetPin>:
     cb0:	0603      	lsls	r3, r0, #24
     cb2:	d502      	bpl.n	cba <HAL_GPIO_GetPin+0xa>
     cb4:	4b05      	ldr	r3, [pc, #20]	; (ccc <HAL_GPIO_GetPin+0x1c>)
     cb6:	4618      	mov	r0, r3
     cb8:	4770      	bx	lr
     cba:	b510      	push	{r4, lr}
     cbc:	460c      	mov	r4, r1
     cbe:	f001 fb91 	bl	23e4 <GPIO_GetPin>
     cc2:	2300      	movs	r3, #0
     cc4:	6020      	str	r0, [r4, #0]
     cc6:	4618      	mov	r0, r3
     cc8:	bd10      	pop	{r4, pc}
     cca:	bf00      	nop
     ccc:	00030001 	andeq	r0, r3, r1

00000cd0 <GPIO_GetOutPin>:
     cd0:	0943      	lsrs	r3, r0, #5
     cd2:	2b03      	cmp	r3, #3
     cd4:	b510      	push	{r4, lr}
     cd6:	4604      	mov	r4, r0
     cd8:	d814      	bhi.n	d04 <GPIO_GetOutPin+0x34>
     cda:	4a0e      	ldr	r2, [pc, #56]	; (d14 <GPIO_GetOutPin+0x44>)
     cdc:	f852 1023 	ldr.w	r1, [r2, r3, lsl #2]
     ce0:	f3c4 03c1 	ubfx	r3, r4, #3, #2
     ce4:	3b01      	subs	r3, #1
     ce6:	2b02      	cmp	r3, #2
     ce8:	d812      	bhi.n	d10 <GPIO_GetOutPin+0x40>
     cea:	4a0a      	ldr	r2, [pc, #40]	; (d14 <GPIO_GetOutPin+0x44>)
     cec:	eb02 0383 	add.w	r3, r2, r3, lsl #2
     cf0:	6918      	ldr	r0, [r3, #16]
     cf2:	f004 0407 	and.w	r4, r4, #7
     cf6:	4408      	add	r0, r1
     cf8:	f000 ff90 	bl	1c1c <Reg_Read32>
     cfc:	40e0      	lsrs	r0, r4
     cfe:	f000 0001 	and.w	r0, r0, #1
     d02:	bd10      	pop	{r4, pc}
     d04:	f3c4 03c1 	ubfx	r3, r4, #3, #2
     d08:	2100      	movs	r1, #0
     d0a:	3b01      	subs	r3, #1
     d0c:	2b02      	cmp	r3, #2
     d0e:	d9ec      	bls.n	cea <GPIO_GetOutPin+0x1a>
     d10:	2000      	movs	r0, #0
     d12:	e7ee      	b.n	cf2 <GPIO_GetOutPin+0x22>
     d14:	0000d274 	andeq	sp, r0, r4, ror r2

00000d18 <HAL_GPIO_SetPin>:
     d18:	0602      	lsls	r2, r0, #24
     d1a:	d501      	bpl.n	d20 <HAL_GPIO_SetPin+0x8>
     d1c:	4803      	ldr	r0, [pc, #12]	; (d2c <HAL_GPIO_SetPin+0x14>)
     d1e:	4770      	bx	lr
     d20:	b508      	push	{r3, lr}
     d22:	f001 fb13 	bl	234c <GPIO_SetPin>
     d26:	2000      	movs	r0, #0
     d28:	bd08      	pop	{r3, pc}
     d2a:	bf00      	nop
     d2c:	00030001 	andeq	r0, r3, r1

00000d30 <HAL_GPIO_RegisterInterrupt>:
     d30:	b5f8      	push	{r3, r4, r5, r6, r7, lr}
     d32:	f000 041f 	and.w	r4, r0, #31
     d36:	2c07      	cmp	r4, #7
     d38:	d901      	bls.n	d3e <HAL_GPIO_RegisterInterrupt+0xe>
     d3a:	4821      	ldr	r0, [pc, #132]	; (dc0 <HAL_GPIO_RegisterInterrupt+0x90>)
     d3c:	bdf8      	pop	{r3, r4, r5, r6, r7, pc}
     d3e:	ea4f 1e50 	mov.w	lr, r0, lsr #5
     d42:	460d      	mov	r5, r1
     d44:	491f      	ldr	r1, [pc, #124]	; (dc4 <HAL_GPIO_RegisterInterrupt+0x94>)
     d46:	4616      	mov	r6, r2
     d48:	f000 0207 	and.w	r2, r0, #7
     d4c:	f10e 0732 	add.w	r7, lr, #50	; 0x32
     d50:	eb01 018e 	add.w	r1, r1, lr, lsl #2
     d54:	f8df c074 	ldr.w	ip, [pc, #116]	; dcc <HAL_GPIO_RegisterInterrupt+0x9c>
     d58:	eb02 0ece 	add.w	lr, r2, lr, lsl #3
     d5c:	4604      	mov	r4, r0
     d5e:	2200      	movs	r2, #0
     d60:	4638      	mov	r0, r7
     d62:	69c9      	ldr	r1, [r1, #28]
     d64:	f84c 302e 	str.w	r3, [ip, lr, lsl #2]
     d68:	f002 fb7a 	bl	3460 <reg_IrqHandle>
     d6c:	4620      	mov	r0, r4
     d6e:	2100      	movs	r1, #0
     d70:	f001 fb3a 	bl	23e8 <GPIO_SetPinDirect>
     d74:	4620      	mov	r0, r4
     d76:	2100      	movs	r1, #0
     d78:	f001 fb5e 	bl	2438 <GPIO_SetPinCtrl>
     d7c:	4620      	mov	r0, r4
     d7e:	2102      	movs	r1, #2
     d80:	f001 fad2 	bl	2328 <GPIO_SetMode>
     d84:	4620      	mov	r0, r4
     d86:	2101      	movs	r1, #1
     d88:	f001 fb7c 	bl	2484 <GPIO_Intr_SetPinIntrEn>
     d8c:	4620      	mov	r0, r4
     d8e:	2100      	movs	r1, #0
     d90:	f001 fb9a 	bl	24c8 <GPIO_Intr_SetPinIntrMask>
     d94:	4629      	mov	r1, r5
     d96:	4620      	mov	r0, r4
     d98:	f001 fbb6 	bl	2508 <GPIO_Intr_SetPinIntrType>
     d9c:	4631      	mov	r1, r6
     d9e:	4620      	mov	r0, r4
     da0:	2448      	movs	r4, #72	; 0x48
     da2:	f001 fbd3 	bl	254c <GPIO_Intr_SetPinIntrPol>
     da6:	f007 001f 	and.w	r0, r7, #31
     daa:	4a07      	ldr	r2, [pc, #28]	; (dc8 <HAL_GPIO_RegisterInterrupt+0x98>)
     dac:	2301      	movs	r3, #1
     dae:	4611      	mov	r1, r2
     db0:	4083      	lsls	r3, r0
     db2:	443a      	add	r2, r7
     db4:	2000      	movs	r0, #0
     db6:	f882 4300 	strb.w	r4, [r2, #768]	; 0x300
     dba:	604b      	str	r3, [r1, #4]
     dbc:	bdf8      	pop	{r3, r4, r5, r6, r7, pc}
     dbe:	bf00      	nop
     dc0:	00030001 	andeq	r0, r3, r1
     dc4:	0000d274 	andeq	sp, r0, r4, ror r2
     dc8:	e000e100 	and	lr, r0, r0, lsl #2
     dcc:	20000210 	andcs	r0, r0, r0, lsl r2

00000dd0 <HAL_GPIO_DisableNvic>:
     dd0:	f000 031f 	and.w	r3, r0, #31
     dd4:	2b07      	cmp	r3, #7
     dd6:	d901      	bls.n	ddc <HAL_GPIO_DisableNvic+0xc>
     dd8:	4817      	ldr	r0, [pc, #92]	; (e38 <HAL_GPIO_DisableNvic+0x68>)
     dda:	4770      	bx	lr
     ddc:	b470      	push	{r4, r5, r6}
     dde:	0945      	lsrs	r5, r0, #5
     de0:	f000 0007 	and.w	r0, r0, #7
     de4:	4915      	ldr	r1, [pc, #84]	; (e3c <HAL_GPIO_DisableNvic+0x6c>)
     de6:	2600      	movs	r6, #0
     de8:	016b      	lsls	r3, r5, #5
     dea:	eb00 00c5 	add.w	r0, r0, r5, lsl #3
     dee:	4634      	mov	r4, r6
     df0:	f103 0220 	add.w	r2, r3, #32
     df4:	440b      	add	r3, r1
     df6:	f841 6020 	str.w	r6, [r1, r0, lsl #2]
     dfa:	4411      	add	r1, r2
     dfc:	e001      	b.n	e02 <HAL_GPIO_DisableNvic+0x32>
     dfe:	428b      	cmp	r3, r1
     e00:	d007      	beq.n	e12 <HAL_GPIO_DisableNvic+0x42>
     e02:	f853 2b04 	ldr.w	r2, [r3], #4
     e06:	2a00      	cmp	r2, #0
     e08:	d1f9      	bne.n	dfe <HAL_GPIO_DisableNvic+0x2e>
     e0a:	3401      	adds	r4, #1
     e0c:	428b      	cmp	r3, r1
     e0e:	b2e4      	uxtb	r4, r4
     e10:	d1f7      	bne.n	e02 <HAL_GPIO_DisableNvic+0x32>
     e12:	2c08      	cmp	r4, #8
     e14:	d002      	beq.n	e1c <HAL_GPIO_DisableNvic+0x4c>
     e16:	2000      	movs	r0, #0
     e18:	bc70      	pop	{r4, r5, r6}
     e1a:	4770      	bx	lr
     e1c:	3532      	adds	r5, #50	; 0x32
     e1e:	2301      	movs	r3, #1
     e20:	4a07      	ldr	r2, [pc, #28]	; (e40 <HAL_GPIO_DisableNvic+0x70>)
     e22:	2000      	movs	r0, #0
     e24:	f005 051f 	and.w	r5, r5, #31
     e28:	fa03 f505 	lsl.w	r5, r3, r5
     e2c:	f8c2 5084 	str.w	r5, [r2, #132]	; 0x84
     e30:	f8c2 5184 	str.w	r5, [r2, #388]	; 0x184
     e34:	bc70      	pop	{r4, r5, r6}
     e36:	4770      	bx	lr
     e38:	00030001 	andeq	r0, r3, r1
     e3c:	20000210 	andcs	r0, r0, r0, lsl r2
     e40:	e000e100 	and	lr, r0, r0, lsl #2

00000e44 <HAL_LED_ON>:
     e44:	0602      	lsls	r2, r0, #24
     e46:	d501      	bpl.n	e4c <HAL_LED_ON+0x8>
     e48:	4803      	ldr	r0, [pc, #12]	; (e58 <HAL_LED_ON+0x14>)
     e4a:	4770      	bx	lr
     e4c:	b508      	push	{r3, lr}
     e4e:	2100      	movs	r1, #0
     e50:	f001 fa7c 	bl	234c <GPIO_SetPin>
     e54:	2000      	movs	r0, #0
     e56:	bd08      	pop	{r3, pc}
     e58:	00030001 	andeq	r0, r3, r1

00000e5c <HAL_LED_OFF>:
     e5c:	0602      	lsls	r2, r0, #24
     e5e:	d501      	bpl.n	e64 <HAL_LED_OFF+0x8>
     e60:	4803      	ldr	r0, [pc, #12]	; (e70 <HAL_LED_OFF+0x14>)
     e62:	4770      	bx	lr
     e64:	b508      	push	{r3, lr}
     e66:	2101      	movs	r1, #1
     e68:	f001 fa70 	bl	234c <GPIO_SetPin>
     e6c:	2000      	movs	r0, #0
     e6e:	bd08      	pop	{r3, pc}
     e70:	00030001 	andeq	r0, r3, r1

00000e74 <HAL_LED_TOGGLE>:
     e74:	b538      	push	{r3, r4, r5, lr}
     e76:	4605      	mov	r5, r0
     e78:	f7ff ff2a 	bl	cd0 <GPIO_GetOutPin>
     e7c:	b940      	cbnz	r0, e90 <HAL_LED_TOGGLE+0x1c>
     e7e:	062a      	lsls	r2, r5, #24
     e80:	d40e      	bmi.n	ea0 <HAL_LED_TOGGLE+0x2c>
     e82:	4604      	mov	r4, r0
     e84:	2101      	movs	r1, #1
     e86:	4628      	mov	r0, r5
     e88:	f001 fa60 	bl	234c <GPIO_SetPin>
     e8c:	4620      	mov	r0, r4
     e8e:	bd38      	pop	{r3, r4, r5, pc}
     e90:	062b      	lsls	r3, r5, #24
     e92:	d405      	bmi.n	ea0 <HAL_LED_TOGGLE+0x2c>
     e94:	4628      	mov	r0, r5
     e96:	2100      	movs	r1, #0
     e98:	f001 fa58 	bl	234c <GPIO_SetPin>
     e9c:	2000      	movs	r0, #0
     e9e:	bd38      	pop	{r3, r4, r5, pc}
     ea0:	4800      	ldr	r0, [pc, #0]	; (ea4 <HAL_LED_TOGGLE+0x30>)
     ea2:	bd38      	pop	{r3, r4, r5, pc}
     ea4:	00030001 	andeq	r0, r3, r1

00000ea8 <TIMER_ClearNvic>:
     ea8:	3809      	subs	r0, #9
     eaa:	2817      	cmp	r0, #23
     eac:	d900      	bls.n	eb0 <TIMER_ClearNvic+0x8>
     eae:	4770      	bx	lr
     eb0:	2303      	movs	r3, #3
     eb2:	b2c0      	uxtb	r0, r0
     eb4:	2100      	movs	r1, #0
     eb6:	fa20 f203 	lsr.w	r2, r0, r3
     eba:	f000 0007 	and.w	r0, r0, #7
     ebe:	b500      	push	{lr}
     ec0:	b083      	sub	sp, #12
     ec2:	9101      	str	r1, [sp, #4]
     ec4:	f88d 2004 	strb.w	r2, [sp, #4]
     ec8:	f88d 0005 	strb.w	r0, [sp, #5]
     ecc:	f88d 3006 	strb.w	r3, [sp, #6]
     ed0:	9801      	ldr	r0, [sp, #4]
     ed2:	f001 f889 	bl	1fe8 <TIM_ClearNvic>
     ed6:	b003      	add	sp, #12
     ed8:	f85d fb04 	ldr.w	pc, [sp], #4

00000edc <HAL_TIMER_RegisterTimer>:
     edc:	2817      	cmp	r0, #23
     ede:	d901      	bls.n	ee4 <HAL_TIMER_RegisterTimer+0x8>
     ee0:	4827      	ldr	r0, [pc, #156]	; (f80 <HAL_TIMER_RegisterTimer+0xa4>)
     ee2:	4770      	bx	lr
     ee4:	b5f0      	push	{r4, r5, r6, r7, lr}
     ee6:	460e      	mov	r6, r1
     ee8:	b083      	sub	sp, #12
     eea:	4601      	mov	r1, r0
     eec:	4604      	mov	r4, r0
     eee:	2004      	movs	r0, #4
     ef0:	4617      	mov	r7, r2
     ef2:	f006 fb93 	bl	761c <COMMON_driverMutexGet>
     ef6:	3001      	adds	r0, #1
     ef8:	d031      	beq.n	f5e <HAL_TIMER_RegisterTimer+0x82>
     efa:	4621      	mov	r1, r4
     efc:	2004      	movs	r0, #4
     efe:	f006 facf 	bl	74a0 <COMMON_driverMutexSet>
     f02:	4621      	mov	r1, r4
     f04:	2004      	movs	r0, #4
     f06:	2500      	movs	r5, #0
     f08:	f006 f970 	bl	71ec <COMMON_driverInitSet>
     f0c:	f004 0207 	and.w	r2, r4, #7
     f10:	2303      	movs	r3, #3
     f12:	08e0      	lsrs	r0, r4, #3
     f14:	3409      	adds	r4, #9
     f16:	9501      	str	r5, [sp, #4]
     f18:	f88d 3006 	strb.w	r3, [sp, #6]
     f1c:	4631      	mov	r1, r6
     f1e:	b2e4      	uxtb	r4, r4
     f20:	f88d 2005 	strb.w	r2, [sp, #5]
     f24:	f88d 0004 	strb.w	r0, [sp, #4]
     f28:	2648      	movs	r6, #72	; 0x48
     f2a:	9801      	ldr	r0, [sp, #4]
     f2c:	f001 f92a 	bl	2184 <TIM_RegisterTimer>
     f30:	4639      	mov	r1, r7
     f32:	4a14      	ldr	r2, [pc, #80]	; (f84 <HAL_TIMER_RegisterTimer+0xa8>)
     f34:	b260      	sxtb	r0, r4
     f36:	f002 fa93 	bl	3460 <reg_IrqHandle>
     f3a:	f004 011f 	and.w	r1, r4, #31
     f3e:	2301      	movs	r3, #1
     f40:	4a11      	ldr	r2, [pc, #68]	; (f88 <HAL_TIMER_RegisterTimer+0xac>)
     f42:	0960      	lsrs	r0, r4, #5
     f44:	408b      	lsls	r3, r1
     f46:	4422      	add	r2, r4
     f48:	490f      	ldr	r1, [pc, #60]	; (f88 <HAL_TIMER_RegisterTimer+0xac>)
     f4a:	f882 6300 	strb.w	r6, [r2, #768]	; 0x300
     f4e:	f841 3020 	str.w	r3, [r1, r0, lsl #2]
     f52:	9801      	ldr	r0, [sp, #4]
     f54:	f001 f8e8 	bl	2128 <TIM_StartTimer>
     f58:	4628      	mov	r0, r5
     f5a:	b003      	add	sp, #12
     f5c:	bdf0      	pop	{r4, r5, r6, r7, pc}
     f5e:	f006 f87b 	bl	7058 <dlog_get_output_level>
     f62:	2801      	cmp	r0, #1
     f64:	d909      	bls.n	f7a <HAL_TIMER_RegisterTimer+0x9e>
     f66:	f44f 71c6 	mov.w	r1, #396	; 0x18c
     f6a:	4623      	mov	r3, r4
     f6c:	4a07      	ldr	r2, [pc, #28]	; (f8c <HAL_TIMER_RegisterTimer+0xb0>)
     f6e:	6809      	ldr	r1, [r1, #0]
     f70:	4807      	ldr	r0, [pc, #28]	; (f90 <HAL_TIMER_RegisterTimer+0xb4>)
     f72:	f006 ff83 	bl	7e7c <iprintf>
     f76:	20fd      	movs	r0, #253	; 0xfd
     f78:	e7ef      	b.n	f5a <HAL_TIMER_RegisterTimer+0x7e>
     f7a:	20fd      	movs	r0, #253	; 0xfd
     f7c:	e7ed      	b.n	f5a <HAL_TIMER_RegisterTimer+0x7e>
     f7e:	bf00      	nop
     f80:	00040001 	andeq	r0, r4, r1
     f84:	00000ea9 	andeq	r0, r0, r9, lsr #29
     f88:	e000e100 	and	lr, r0, r0, lsl #2
     f8c:	0000d2a0 	andeq	sp, r0, r0, lsr #5
     f90:	0000d2d8 	ldrdeq	sp, [r0], -r8

00000f94 <HAL_TIMER_Stop>:
     f94:	2817      	cmp	r0, #23
     f96:	d901      	bls.n	f9c <HAL_TIMER_Stop+0x8>
     f98:	481e      	ldr	r0, [pc, #120]	; (1014 <HAL_TIMER_Stop+0x80>)
     f9a:	4770      	bx	lr
     f9c:	b570      	push	{r4, r5, r6, lr}
     f9e:	4601      	mov	r1, r0
     fa0:	b082      	sub	sp, #8
     fa2:	4604      	mov	r4, r0
     fa4:	2004      	movs	r0, #4
     fa6:	f006 f95b 	bl	7260 <COMMON_driverInitGet>
     faa:	3001      	adds	r0, #1
     fac:	d021      	beq.n	ff2 <HAL_TIMER_Stop+0x5e>
     fae:	f104 0309 	add.w	r3, r4, #9
     fb2:	2500      	movs	r5, #0
     fb4:	f004 0607 	and.w	r6, r4, #7
     fb8:	08e4      	lsrs	r4, r4, #3
     fba:	b2db      	uxtb	r3, r3
     fbc:	2101      	movs	r1, #1
     fbe:	4a16      	ldr	r2, [pc, #88]	; (1018 <HAL_TIMER_Stop+0x84>)
     fc0:	0958      	lsrs	r0, r3, #5
     fc2:	f003 031f 	and.w	r3, r3, #31
     fc6:	9501      	str	r5, [sp, #4]
     fc8:	0080      	lsls	r0, r0, #2
     fca:	f88d 4004 	strb.w	r4, [sp, #4]
     fce:	2403      	movs	r4, #3
     fd0:	fa01 f303 	lsl.w	r3, r1, r3
     fd4:	4402      	add	r2, r0
     fd6:	f88d 6005 	strb.w	r6, [sp, #5]
     fda:	f88d 4006 	strb.w	r4, [sp, #6]
     fde:	f8c2 3080 	str.w	r3, [r2, #128]	; 0x80
     fe2:	9801      	ldr	r0, [sp, #4]
     fe4:	f8c2 3180 	str.w	r3, [r2, #384]	; 0x180
     fe8:	f001 f86e 	bl	20c8 <TIM_StopTimer>
     fec:	4628      	mov	r0, r5
     fee:	b002      	add	sp, #8
     ff0:	bd70      	pop	{r4, r5, r6, pc}
     ff2:	f006 f831 	bl	7058 <dlog_get_output_level>
     ff6:	2801      	cmp	r0, #1
     ff8:	d909      	bls.n	100e <HAL_TIMER_Stop+0x7a>
     ffa:	f44f 71c6 	mov.w	r1, #396	; 0x18c
     ffe:	4623      	mov	r3, r4
    1000:	4a06      	ldr	r2, [pc, #24]	; (101c <HAL_TIMER_Stop+0x88>)
    1002:	6809      	ldr	r1, [r1, #0]
    1004:	4806      	ldr	r0, [pc, #24]	; (1020 <HAL_TIMER_Stop+0x8c>)
    1006:	f006 ff39 	bl	7e7c <iprintf>
    100a:	20fc      	movs	r0, #252	; 0xfc
    100c:	e7ef      	b.n	fee <HAL_TIMER_Stop+0x5a>
    100e:	20fc      	movs	r0, #252	; 0xfc
    1010:	e7ed      	b.n	fee <HAL_TIMER_Stop+0x5a>
    1012:	bf00      	nop
    1014:	00040001 	andeq	r0, r4, r1
    1018:	e000e100 	and	lr, r0, r0, lsl #2
    101c:	0000d2b8 			; <UNDEFINED> instruction: 0x0000d2b8
    1020:	0000d2f8 	strdeq	sp, [r0], -r8

00001024 <HAL_TIMER_Start>:
    1024:	2817      	cmp	r0, #23
    1026:	d901      	bls.n	102c <HAL_TIMER_Start+0x8>
    1028:	481e      	ldr	r0, [pc, #120]	; (10a4 <HAL_TIMER_Start+0x80>)
    102a:	4770      	bx	lr
    102c:	b5f0      	push	{r4, r5, r6, r7, lr}
    102e:	4601      	mov	r1, r0
    1030:	b083      	sub	sp, #12
    1032:	4604      	mov	r4, r0
    1034:	2004      	movs	r0, #4
    1036:	f006 f913 	bl	7260 <COMMON_driverInitGet>
    103a:	3001      	adds	r0, #1
    103c:	d021      	beq.n	1082 <HAL_TIMER_Start+0x5e>
    103e:	f104 0309 	add.w	r3, r4, #9
    1042:	2201      	movs	r2, #1
    1044:	4918      	ldr	r1, [pc, #96]	; (10a8 <HAL_TIMER_Start+0x84>)
    1046:	f004 0e07 	and.w	lr, r4, #7
    104a:	b2db      	uxtb	r3, r3
    104c:	2500      	movs	r5, #0
    104e:	08e4      	lsrs	r4, r4, #3
    1050:	2703      	movs	r7, #3
    1052:	f003 001f 	and.w	r0, r3, #31
    1056:	4419      	add	r1, r3
    1058:	2648      	movs	r6, #72	; 0x48
    105a:	095b      	lsrs	r3, r3, #5
    105c:	4082      	lsls	r2, r0
    105e:	4812      	ldr	r0, [pc, #72]	; (10a8 <HAL_TIMER_Start+0x84>)
    1060:	9501      	str	r5, [sp, #4]
    1062:	f88d 4004 	strb.w	r4, [sp, #4]
    1066:	f88d e005 	strb.w	lr, [sp, #5]
    106a:	f88d 7006 	strb.w	r7, [sp, #6]
    106e:	f881 6300 	strb.w	r6, [r1, #768]	; 0x300
    1072:	f840 2023 	str.w	r2, [r0, r3, lsl #2]
    1076:	9801      	ldr	r0, [sp, #4]
    1078:	f001 f856 	bl	2128 <TIM_StartTimer>
    107c:	4628      	mov	r0, r5
    107e:	b003      	add	sp, #12
    1080:	bdf0      	pop	{r4, r5, r6, r7, pc}
    1082:	f005 ffe9 	bl	7058 <dlog_get_output_level>
    1086:	2801      	cmp	r0, #1
    1088:	d909      	bls.n	109e <HAL_TIMER_Start+0x7a>
    108a:	f44f 71c6 	mov.w	r1, #396	; 0x18c
    108e:	4623      	mov	r3, r4
    1090:	4a06      	ldr	r2, [pc, #24]	; (10ac <HAL_TIMER_Start+0x88>)
    1092:	6809      	ldr	r1, [r1, #0]
    1094:	4806      	ldr	r0, [pc, #24]	; (10b0 <HAL_TIMER_Start+0x8c>)
    1096:	f006 fef1 	bl	7e7c <iprintf>
    109a:	20fc      	movs	r0, #252	; 0xfc
    109c:	e7ef      	b.n	107e <HAL_TIMER_Start+0x5a>
    109e:	20fc      	movs	r0, #252	; 0xfc
    10a0:	e7ed      	b.n	107e <HAL_TIMER_Start+0x5a>
    10a2:	bf00      	nop
    10a4:	00040001 	andeq	r0, r4, r1
    10a8:	e000e100 	and	lr, r0, r0, lsl #2
    10ac:	0000d2c8 	andeq	sp, r0, r8, asr #5
    10b0:	0000d2f8 	strdeq	sp, [r0], -r8

000010b4 <HAL_UART_WaitTillIdle.part.0>:
    10b4:	b570      	push	{r4, r5, r6, lr}
    10b6:	4604      	mov	r4, r0
    10b8:	460e      	mov	r6, r1
    10ba:	f001 ff11 	bl	2ee0 <SysTicks_GetTickCount>
    10be:	4605      	mov	r5, r0
    10c0:	e00d      	b.n	10de <HAL_UART_WaitTillIdle.part.0+0x2a>
    10c2:	f001 ff0d 	bl	2ee0 <SysTicks_GetTickCount>
    10c6:	4601      	mov	r1, r0
    10c8:	4628      	mov	r0, r5
    10ca:	f001 ffd9 	bl	3080 <SysTicks_GetDiff>
    10ce:	42b0      	cmp	r0, r6
    10d0:	f04f 0100 	mov.w	r1, #0
    10d4:	f04f 0064 	mov.w	r0, #100	; 0x64
    10d8:	d207      	bcs.n	10ea <HAL_UART_WaitTillIdle.part.0+0x36>
    10da:	f001 ff7b 	bl	2fd4 <SysTicks_DelayUS>
    10de:	4620      	mov	r0, r4
    10e0:	f001 fbfc 	bl	28dc <uart_checkoutFifoStatus>
    10e4:	2800      	cmp	r0, #0
    10e6:	d1ec      	bne.n	10c2 <HAL_UART_WaitTillIdle.part.0+0xe>
    10e8:	bd70      	pop	{r4, r5, r6, pc}
    10ea:	4801      	ldr	r0, [pc, #4]	; (10f0 <HAL_UART_WaitTillIdle.part.0+0x3c>)
    10ec:	bd70      	pop	{r4, r5, r6, pc}
    10ee:	bf00      	nop
    10f0:	000b0005 	andeq	r0, fp, r5

000010f4 <HAL_UART_WaitTillIdle>:
    10f4:	b909      	cbnz	r1, 10fa <HAL_UART_WaitTillIdle+0x6>
    10f6:	4608      	mov	r0, r1
    10f8:	4770      	bx	lr
    10fa:	f7ff bfdb 	b.w	10b4 <HAL_UART_WaitTillIdle.part.0>
    10fe:	bf00      	nop

00001100 <HAL_UART_Init>:
    1100:	2807      	cmp	r0, #7
    1102:	d809      	bhi.n	1118 <HAL_UART_Init+0x18>
    1104:	2908      	cmp	r1, #8
    1106:	e92d 41f0 	stmdb	sp!, {r4, r5, r6, r7, r8, lr}
    110a:	bf94      	ite	ls
    110c:	2400      	movls	r4, #0
    110e:	2401      	movhi	r4, #1
    1110:	b124      	cbz	r4, 111c <HAL_UART_Init+0x1c>
    1112:	4826      	ldr	r0, [pc, #152]	; (11ac <HAL_UART_Init+0xac>)
    1114:	e8bd 81f0 	ldmia.w	sp!, {r4, r5, r6, r7, r8, pc}
    1118:	4824      	ldr	r0, [pc, #144]	; (11ac <HAL_UART_Init+0xac>)
    111a:	4770      	bx	lr
    111c:	460e      	mov	r6, r1
    111e:	4605      	mov	r5, r0
    1120:	4601      	mov	r1, r0
    1122:	4620      	mov	r0, r4
    1124:	4617      	mov	r7, r2
    1126:	f006 fa79 	bl	761c <COMMON_driverMutexGet>
    112a:	3001      	adds	r0, #1
    112c:	d029      	beq.n	1182 <HAL_UART_Init+0x82>
    112e:	fa4f f885 	sxtb.w	r8, r5
    1132:	4629      	mov	r1, r5
    1134:	4620      	mov	r0, r4
    1136:	f006 f9b3 	bl	74a0 <COMMON_driverMutexSet>
    113a:	4629      	mov	r1, r5
    113c:	4620      	mov	r0, r4
    113e:	f006 f855 	bl	71ec <COMMON_driverInitSet>
    1142:	4640      	mov	r0, r8
    1144:	f000 fc22 	bl	198c <HAL_NVIC_DisableIrq>
    1148:	4639      	mov	r1, r7
    114a:	4628      	mov	r0, r5
    114c:	f001 fe3a 	bl	2dc4 <UART_RegisterUserRxHandler>
    1150:	4917      	ldr	r1, [pc, #92]	; (11b0 <HAL_UART_Init+0xb0>)
    1152:	4622      	mov	r2, r4
    1154:	4640      	mov	r0, r8
    1156:	eb01 0686 	add.w	r6, r1, r6, lsl #2
    115a:	2105      	movs	r1, #5
    115c:	6936      	ldr	r6, [r6, #16]
    115e:	f000 fbc9 	bl	18f4 <HAL_NVIC_SetPriority>
    1162:	4914      	ldr	r1, [pc, #80]	; (11b4 <HAL_UART_Init+0xb4>)
    1164:	4622      	mov	r2, r4
    1166:	4640      	mov	r0, r8
    1168:	f000 fba4 	bl	18b4 <HAL_NVIC_RegisterHandler>
    116c:	4631      	mov	r1, r6
    116e:	4628      	mov	r0, r5
    1170:	f001 fb20 	bl	27b4 <uart_init>
    1174:	b1a7      	cbz	r7, 11a0 <HAL_UART_Init+0xa0>
    1176:	4640      	mov	r0, r8
    1178:	f000 fbf8 	bl	196c <HAL_NVIC_EnableIrq>
    117c:	4620      	mov	r0, r4
    117e:	e8bd 81f0 	ldmia.w	sp!, {r4, r5, r6, r7, r8, pc}
    1182:	f005 ff69 	bl	7058 <dlog_get_output_level>
    1186:	2801      	cmp	r0, #1
    1188:	d90d      	bls.n	11a6 <HAL_UART_Init+0xa6>
    118a:	f44f 71c6 	mov.w	r1, #396	; 0x18c
    118e:	462b      	mov	r3, r5
    1190:	4a07      	ldr	r2, [pc, #28]	; (11b0 <HAL_UART_Init+0xb0>)
    1192:	6809      	ldr	r1, [r1, #0]
    1194:	4808      	ldr	r0, [pc, #32]	; (11b8 <HAL_UART_Init+0xb8>)
    1196:	f006 fe71 	bl	7e7c <iprintf>
    119a:	20fd      	movs	r0, #253	; 0xfd
    119c:	e8bd 81f0 	ldmia.w	sp!, {r4, r5, r6, r7, r8, pc}
    11a0:	4638      	mov	r0, r7
    11a2:	e8bd 81f0 	ldmia.w	sp!, {r4, r5, r6, r7, r8, pc}
    11a6:	20fd      	movs	r0, #253	; 0xfd
    11a8:	e8bd 81f0 	ldmia.w	sp!, {r4, r5, r6, r7, r8, pc}
    11ac:	000b0002 	andeq	r0, fp, r2
    11b0:	0000d314 	andeq	sp, r0, r4, lsl r3
    11b4:	00002d29 	andeq	r2, r0, r9, lsr #26
    11b8:	0000d368 	andeq	sp, r0, r8, ror #6

000011bc <HAL_SBUS_Init>:
    11bc:	2807      	cmp	r0, #7
    11be:	d901      	bls.n	11c4 <HAL_SBUS_Init+0x8>
    11c0:	481f      	ldr	r0, [pc, #124]	; (1240 <HAL_SBUS_Init+0x84>)
    11c2:	4770      	bx	lr
    11c4:	b5f8      	push	{r3, r4, r5, r6, r7, lr}
    11c6:	460e      	mov	r6, r1
    11c8:	4605      	mov	r5, r0
    11ca:	4601      	mov	r1, r0
    11cc:	2000      	movs	r0, #0
    11ce:	4614      	mov	r4, r2
    11d0:	f006 fa24 	bl	761c <COMMON_driverMutexGet>
    11d4:	3001      	adds	r0, #1
    11d6:	d023      	beq.n	1220 <HAL_SBUS_Init+0x64>
    11d8:	b26f      	sxtb	r7, r5
    11da:	4629      	mov	r1, r5
    11dc:	2000      	movs	r0, #0
    11de:	f006 f95f 	bl	74a0 <COMMON_driverMutexSet>
    11e2:	4629      	mov	r1, r5
    11e4:	2000      	movs	r0, #0
    11e6:	f006 f801 	bl	71ec <COMMON_driverInitSet>
    11ea:	4638      	mov	r0, r7
    11ec:	f000 fbce 	bl	198c <HAL_NVIC_DisableIrq>
    11f0:	4621      	mov	r1, r4
    11f2:	4628      	mov	r0, r5
    11f4:	f001 fde6 	bl	2dc4 <UART_RegisterUserRxHandler>
    11f8:	2200      	movs	r2, #0
    11fa:	2105      	movs	r1, #5
    11fc:	4638      	mov	r0, r7
    11fe:	f000 fb79 	bl	18f4 <HAL_NVIC_SetPriority>
    1202:	4910      	ldr	r1, [pc, #64]	; (1244 <HAL_SBUS_Init+0x88>)
    1204:	4638      	mov	r0, r7
    1206:	2200      	movs	r2, #0
    1208:	f000 fb54 	bl	18b4 <HAL_NVIC_RegisterHandler>
    120c:	4631      	mov	r1, r6
    120e:	4628      	mov	r0, r5
    1210:	f001 fb1c 	bl	284c <sbus_init>
    1214:	b114      	cbz	r4, 121c <HAL_SBUS_Init+0x60>
    1216:	4638      	mov	r0, r7
    1218:	f000 fba8 	bl	196c <HAL_NVIC_EnableIrq>
    121c:	2000      	movs	r0, #0
    121e:	bdf8      	pop	{r3, r4, r5, r6, r7, pc}
    1220:	f005 ff1a 	bl	7058 <dlog_get_output_level>
    1224:	2801      	cmp	r0, #1
    1226:	d909      	bls.n	123c <HAL_SBUS_Init+0x80>
    1228:	f44f 71c6 	mov.w	r1, #396	; 0x18c
    122c:	462b      	mov	r3, r5
    122e:	4a06      	ldr	r2, [pc, #24]	; (1248 <HAL_SBUS_Init+0x8c>)
    1230:	6809      	ldr	r1, [r1, #0]
    1232:	4806      	ldr	r0, [pc, #24]	; (124c <HAL_SBUS_Init+0x90>)
    1234:	f006 fe22 	bl	7e7c <iprintf>
    1238:	20fd      	movs	r0, #253	; 0xfd
    123a:	bdf8      	pop	{r3, r4, r5, r6, r7, pc}
    123c:	20fd      	movs	r0, #253	; 0xfd
    123e:	bdf8      	pop	{r3, r4, r5, r6, r7, pc}
    1240:	000b0002 	andeq	r0, fp, r2
    1244:	00002d29 	andeq	r2, r0, r9, lsr #26
    1248:	0000d348 	andeq	sp, r0, r8, asr #6
    124c:	0000d368 	andeq	sp, r0, r8, ror #6

00001250 <HAL_UART_TxData>:
    1250:	2900      	cmp	r1, #0
    1252:	bf18      	it	ne
    1254:	2a00      	cmpne	r2, #0
    1256:	d009      	beq.n	126c <HAL_UART_TxData+0x1c>
    1258:	2807      	cmp	r0, #7
    125a:	e92d 41f0 	stmdb	sp!, {r4, r5, r6, r7, r8, lr}
    125e:	bf94      	ite	ls
    1260:	2500      	movls	r5, #0
    1262:	2501      	movhi	r5, #1
    1264:	b125      	cbz	r5, 1270 <HAL_UART_TxData+0x20>
    1266:	481c      	ldr	r0, [pc, #112]	; (12d8 <HAL_UART_TxData+0x88>)
    1268:	e8bd 81f0 	ldmia.w	sp!, {r4, r5, r6, r7, r8, pc}
    126c:	481a      	ldr	r0, [pc, #104]	; (12d8 <HAL_UART_TxData+0x88>)
    126e:	4770      	bx	lr
    1270:	4688      	mov	r8, r1
    1272:	4607      	mov	r7, r0
    1274:	4601      	mov	r1, r0
    1276:	4628      	mov	r0, r5
    1278:	4616      	mov	r6, r2
    127a:	461c      	mov	r4, r3
    127c:	f005 fff0 	bl	7260 <COMMON_driverInitGet>
    1280:	3001      	adds	r0, #1
    1282:	d007      	beq.n	1294 <HAL_UART_TxData+0x44>
    1284:	4638      	mov	r0, r7
    1286:	f001 fb29 	bl	28dc <uart_checkoutFifoStatus>
    128a:	2801      	cmp	r0, #1
    128c:	d111      	bne.n	12b2 <HAL_UART_TxData+0x62>
    128e:	20fe      	movs	r0, #254	; 0xfe
    1290:	e8bd 81f0 	ldmia.w	sp!, {r4, r5, r6, r7, r8, pc}
    1294:	f005 fee0 	bl	7058 <dlog_get_output_level>
    1298:	2801      	cmp	r0, #1
    129a:	d913      	bls.n	12c4 <HAL_UART_TxData+0x74>
    129c:	f44f 71c6 	mov.w	r1, #396	; 0x18c
    12a0:	463b      	mov	r3, r7
    12a2:	4a0e      	ldr	r2, [pc, #56]	; (12dc <HAL_UART_TxData+0x8c>)
    12a4:	6809      	ldr	r1, [r1, #0]
    12a6:	480e      	ldr	r0, [pc, #56]	; (12e0 <HAL_UART_TxData+0x90>)
    12a8:	f006 fde8 	bl	7e7c <iprintf>
    12ac:	20fc      	movs	r0, #252	; 0xfc
    12ae:	e8bd 81f0 	ldmia.w	sp!, {r4, r5, r6, r7, r8, pc}
    12b2:	b2b2      	uxth	r2, r6
    12b4:	4641      	mov	r1, r8
    12b6:	4638      	mov	r0, r7
    12b8:	f001 fca4 	bl	2c04 <uart_putdata>
    12bc:	b92c      	cbnz	r4, 12ca <HAL_UART_TxData+0x7a>
    12be:	4620      	mov	r0, r4
    12c0:	e8bd 81f0 	ldmia.w	sp!, {r4, r5, r6, r7, r8, pc}
    12c4:	20fc      	movs	r0, #252	; 0xfc
    12c6:	e8bd 81f0 	ldmia.w	sp!, {r4, r5, r6, r7, r8, pc}
    12ca:	4621      	mov	r1, r4
    12cc:	4638      	mov	r0, r7
    12ce:	f7ff fef1 	bl	10b4 <HAL_UART_WaitTillIdle.part.0>
    12d2:	4628      	mov	r0, r5
    12d4:	e8bd 81f0 	ldmia.w	sp!, {r4, r5, r6, r7, r8, pc}
    12d8:	000b0003 	andeq	r0, fp, r3
    12dc:	0000d358 	andeq	sp, r0, r8, asr r3
    12e0:	0000d368 	andeq	sp, r0, r8, ror #6

000012e4 <HAL_BB_SetEncoderBitrateProxy>:
    12e4:	b500      	push	{lr}
    12e6:	2302      	movs	r3, #2
    12e8:	b085      	sub	sp, #20
    12ea:	460a      	mov	r2, r1
    12ec:	f88d 3004 	strb.w	r3, [sp, #4]
    12f0:	b978      	cbnz	r0, 1312 <HAL_BB_SetEncoderBitrateProxy+0x2e>
    12f2:	2301      	movs	r3, #1
    12f4:	f88d 3005 	strb.w	r3, [sp, #5]
    12f8:	a901      	add	r1, sp, #4
    12fa:	4807      	ldr	r0, [pc, #28]	; (1318 <HAL_BB_SetEncoderBitrateProxy+0x34>)
    12fc:	9202      	str	r2, [sp, #8]
    12fe:	f005 fa6d 	bl	67dc <SYS_EVENT_NotifyInterCore>
    1302:	4b06      	ldr	r3, [pc, #24]	; (131c <HAL_BB_SetEncoderBitrateProxy+0x38>)
    1304:	2800      	cmp	r0, #0
    1306:	bf0c      	ite	eq
    1308:	4618      	moveq	r0, r3
    130a:	2000      	movne	r0, #0
    130c:	b005      	add	sp, #20
    130e:	f85d fb04 	ldr.w	pc, [sp], #4
    1312:	f88d 3005 	strb.w	r3, [sp, #5]
    1316:	e7ef      	b.n	12f8 <HAL_BB_SetEncoderBitrateProxy+0x14>
    1318:	10000004 	andne	r0, r0, r4
    131c:	000f0002 	andeq	r0, pc, r2

00001320 <HAL_BB_ComRegisterSession>:
    1320:	2806      	cmp	r0, #6
    1322:	b530      	push	{r4, r5, lr}
    1324:	461d      	mov	r5, r3
    1326:	b083      	sub	sp, #12
    1328:	d007      	beq.n	133a <HAL_BB_ComRegisterSession+0x1a>
    132a:	4604      	mov	r4, r0
    132c:	f003 fa30 	bl	4790 <BB_ComRegisterSession>
    1330:	2801      	cmp	r0, #1
    1332:	d009      	beq.n	1348 <HAL_BB_ComRegisterSession+0x28>
    1334:	480b      	ldr	r0, [pc, #44]	; (1364 <HAL_BB_ComRegisterSession+0x44>)
    1336:	b003      	add	sp, #12
    1338:	bd30      	pop	{r4, r5, pc}
    133a:	4619      	mov	r1, r3
    133c:	480a      	ldr	r0, [pc, #40]	; (1368 <HAL_BB_ComRegisterSession+0x48>)
    133e:	f005 f973 	bl	6628 <SYS_EVENT_RegisterHandler>
    1342:	2000      	movs	r0, #0
    1344:	b003      	add	sp, #12
    1346:	bd30      	pop	{r4, r5, pc}
    1348:	4620      	mov	r0, r4
    134a:	a901      	add	r1, sp, #4
    134c:	f002 ffea 	bl	4324 <get_session_eventid>
    1350:	2800      	cmp	r0, #0
    1352:	d0ef      	beq.n	1334 <HAL_BB_ComRegisterSession+0x14>
    1354:	b11d      	cbz	r5, 135e <HAL_BB_ComRegisterSession+0x3e>
    1356:	4629      	mov	r1, r5
    1358:	9801      	ldr	r0, [sp, #4]
    135a:	f005 f965 	bl	6628 <SYS_EVENT_RegisterHandler>
    135e:	2000      	movs	r0, #0
    1360:	e7e9      	b.n	1336 <HAL_BB_ComRegisterSession+0x16>
    1362:	bf00      	nop
    1364:	000f0004 	andeq	r0, pc, r4
    1368:	1000001a 	andne	r0, r0, sl, lsl r0

0000136c <HAL_BB_ComUnRegisterSession>:
    136c:	2806      	cmp	r0, #6
    136e:	b530      	push	{r4, r5, lr}
    1370:	b083      	sub	sp, #12
    1372:	d013      	beq.n	139c <HAL_BB_ComUnRegisterSession+0x30>
    1374:	4605      	mov	r5, r0
    1376:	460c      	mov	r4, r1
    1378:	f003 fa66 	bl	4848 <BB_ComUnRegisterSession>
    137c:	a901      	add	r1, sp, #4
    137e:	4628      	mov	r0, r5
    1380:	f002 ffd0 	bl	4324 <get_session_eventid>
    1384:	b910      	cbnz	r0, 138c <HAL_BB_ComUnRegisterSession+0x20>
    1386:	4809      	ldr	r0, [pc, #36]	; (13ac <HAL_BB_ComUnRegisterSession+0x40>)
    1388:	b003      	add	sp, #12
    138a:	bd30      	pop	{r4, r5, pc}
    138c:	b164      	cbz	r4, 13a8 <HAL_BB_ComUnRegisterSession+0x3c>
    138e:	4621      	mov	r1, r4
    1390:	9801      	ldr	r0, [sp, #4]
    1392:	f005 f983 	bl	669c <SYS_EVENT_UnRegisterHandler>
    1396:	2000      	movs	r0, #0
    1398:	b003      	add	sp, #12
    139a:	bd30      	pop	{r4, r5, pc}
    139c:	4804      	ldr	r0, [pc, #16]	; (13b0 <HAL_BB_ComUnRegisterSession+0x44>)
    139e:	f005 f97d 	bl	669c <SYS_EVENT_UnRegisterHandler>
    13a2:	2000      	movs	r0, #0
    13a4:	b003      	add	sp, #12
    13a6:	bd30      	pop	{r4, r5, pc}
    13a8:	4620      	mov	r0, r4
    13aa:	e7ed      	b.n	1388 <HAL_BB_ComUnRegisterSession+0x1c>
    13ac:	000f0005 	andeq	r0, pc, r5
    13b0:	1000001a 	andne	r0, r0, sl, lsl r0

000013b4 <HAL_BB_ComSendMsg>:
    13b4:	2806      	cmp	r0, #6
    13b6:	b570      	push	{r4, r5, r6, lr}
    13b8:	d015      	beq.n	13e6 <HAL_BB_ComSendMsg+0x32>
    13ba:	b960      	cbnz	r0, 13d6 <HAL_BB_ComSendMsg+0x22>
    13bc:	f005 fe4c 	bl	7058 <dlog_get_output_level>
    13c0:	2801      	cmp	r0, #1
    13c2:	d90c      	bls.n	13de <HAL_BB_ComSendMsg+0x2a>
    13c4:	f44f 73c6 	mov.w	r3, #396	; 0x18c
    13c8:	4a18      	ldr	r2, [pc, #96]	; (142c <HAL_BB_ComSendMsg+0x78>)
    13ca:	4819      	ldr	r0, [pc, #100]	; (1430 <HAL_BB_ComSendMsg+0x7c>)
    13cc:	6819      	ldr	r1, [r3, #0]
    13ce:	f006 fd55 	bl	7e7c <iprintf>
    13d2:	4818      	ldr	r0, [pc, #96]	; (1434 <HAL_BB_ComSendMsg+0x80>)
    13d4:	bd70      	pop	{r4, r5, r6, pc}
    13d6:	b292      	uxth	r2, r2
    13d8:	f003 fa46 	bl	4868 <BB_ComSendMsg>
    13dc:	b908      	cbnz	r0, 13e2 <HAL_BB_ComSendMsg+0x2e>
    13de:	4815      	ldr	r0, [pc, #84]	; (1434 <HAL_BB_ComSendMsg+0x80>)
    13e0:	bd70      	pop	{r4, r5, r6, pc}
    13e2:	2000      	movs	r0, #0
    13e4:	bd70      	pop	{r4, r5, r6, pc}
    13e6:	4c14      	ldr	r4, [pc, #80]	; (1438 <HAL_BB_ComSendMsg+0x84>)
    13e8:	7823      	ldrb	r3, [r4, #0]
    13ea:	07d8      	lsls	r0, r3, #31
    13ec:	d401      	bmi.n	13f2 <HAL_BB_ComSendMsg+0x3e>
    13ee:	20fc      	movs	r0, #252	; 0xfc
    13f0:	bd70      	pop	{r4, r5, r6, pc}
    13f2:	f003 0002 	and.w	r0, r3, #2
    13f6:	f000 05ff 	and.w	r5, r0, #255	; 0xff
    13fa:	b108      	cbz	r0, 1400 <HAL_BB_ComSendMsg+0x4c>
    13fc:	20fe      	movs	r0, #254	; 0xfe
    13fe:	bd70      	pop	{r4, r5, r6, pc}
    1400:	7866      	ldrb	r6, [r4, #1]
    1402:	b2d2      	uxtb	r2, r2
    1404:	f043 0302 	orr.w	r3, r3, #2
    1408:	480c      	ldr	r0, [pc, #48]	; (143c <HAL_BB_ComSendMsg+0x88>)
    140a:	4296      	cmp	r6, r2
    140c:	7023      	strb	r3, [r4, #0]
    140e:	bfa8      	it	ge
    1410:	4616      	movge	r6, r2
    1412:	4632      	mov	r2, r6
    1414:	f006 fc71 	bl	7cfa <memcpy>
    1418:	7823      	ldrb	r3, [r4, #0]
    141a:	70a6      	strb	r6, [r4, #2]
    141c:	4628      	mov	r0, r5
    141e:	f043 0304 	orr.w	r3, r3, #4
    1422:	f365 0341 	bfi	r3, r5, #1, #1
    1426:	7023      	strb	r3, [r4, #0]
    1428:	bd70      	pop	{r4, r5, r6, pc}
    142a:	bf00      	nop
    142c:	0000d390 	muleq	r0, r0, r3
    1430:	0000d3a4 	andeq	sp, r0, r4, lsr #7
    1434:	000f0006 	andeq	r0, pc, r6
    1438:	210076a0 	smlatbcs	r0, r0, r6, r7
    143c:	210076a3 	smlatbcs	r0, r3, r6, r7

00001440 <HAL_BB_ComReceiveMsg>:
    1440:	2806      	cmp	r0, #6
    1442:	b570      	push	{r4, r5, r6, lr}
    1444:	461c      	mov	r4, r3
    1446:	d005      	beq.n	1454 <HAL_BB_ComReceiveMsg+0x14>
    1448:	f003 faf8 	bl	4a3c <BB_ComReceiveMsg>
    144c:	2300      	movs	r3, #0
    144e:	6020      	str	r0, [r4, #0]
    1450:	4618      	mov	r0, r3
    1452:	bd70      	pop	{r4, r5, r6, pc}
    1454:	460d      	mov	r5, r1
    1456:	4616      	mov	r6, r2
    1458:	f003 fdfe 	bl	5058 <BB_SpiChkDataTransChValid>
    145c:	b358      	cbz	r0, 14b6 <HAL_BB_ComReceiveMsg+0x76>
    145e:	4a1b      	ldr	r2, [pc, #108]	; (14cc <HAL_BB_ComReceiveMsg+0x8c>)
    1460:	7893      	ldrb	r3, [r2, #2]
    1462:	7851      	ldrb	r1, [r2, #1]
    1464:	4299      	cmp	r1, r3
    1466:	d326      	bcc.n	14b6 <HAL_BB_ComReceiveMsg+0x76>
    1468:	b32b      	cbz	r3, 14b6 <HAL_BB_ComReceiveMsg+0x76>
    146a:	7811      	ldrb	r1, [r2, #0]
    146c:	f001 0006 	and.w	r0, r1, #6
    1470:	2804      	cmp	r0, #4
    1472:	d120      	bne.n	14b6 <HAL_BB_ComReceiveMsg+0x76>
    1474:	b1fd      	cbz	r5, 14b6 <HAL_BB_ComReceiveMsg+0x76>
    1476:	b2f6      	uxtb	r6, r6
    1478:	f041 0102 	orr.w	r1, r1, #2
    147c:	429e      	cmp	r6, r3
    147e:	7011      	strb	r1, [r2, #0]
    1480:	bfa8      	it	ge
    1482:	461e      	movge	r6, r3
    1484:	b1fe      	cbz	r6, 14c6 <HAL_BB_ComReceiveMsg+0x86>
    1486:	2100      	movs	r1, #0
    1488:	460b      	mov	r3, r1
    148a:	4a10      	ldr	r2, [pc, #64]	; (14cc <HAL_BB_ComReceiveMsg+0x8c>)
    148c:	1c58      	adds	r0, r3, #1
    148e:	440a      	add	r2, r1
    1490:	78d2      	ldrb	r2, [r2, #3]
    1492:	54ea      	strb	r2, [r5, r3]
    1494:	b2c3      	uxtb	r3, r0
    1496:	429e      	cmp	r6, r3
    1498:	4619      	mov	r1, r3
    149a:	dcf6      	bgt.n	148a <HAL_BB_ComReceiveMsg+0x4a>
    149c:	b104      	cbz	r4, 14a0 <HAL_BB_ComReceiveMsg+0x60>
    149e:	6023      	str	r3, [r4, #0]
    14a0:	490a      	ldr	r1, [pc, #40]	; (14cc <HAL_BB_ComReceiveMsg+0x8c>)
    14a2:	2000      	movs	r0, #0
    14a4:	780a      	ldrb	r2, [r1, #0]
    14a6:	4603      	mov	r3, r0
    14a8:	7088      	strb	r0, [r1, #2]
    14aa:	f002 02fb 	and.w	r2, r2, #251	; 0xfb
    14ae:	f360 0241 	bfi	r2, r0, #1, #1
    14b2:	700a      	strb	r2, [r1, #0]
    14b4:	e7cc      	b.n	1450 <HAL_BB_ComReceiveMsg+0x10>
    14b6:	b124      	cbz	r4, 14c2 <HAL_BB_ComReceiveMsg+0x82>
    14b8:	2200      	movs	r2, #0
    14ba:	4b05      	ldr	r3, [pc, #20]	; (14d0 <HAL_BB_ComReceiveMsg+0x90>)
    14bc:	6022      	str	r2, [r4, #0]
    14be:	4618      	mov	r0, r3
    14c0:	bd70      	pop	{r4, r5, r6, pc}
    14c2:	4b03      	ldr	r3, [pc, #12]	; (14d0 <HAL_BB_ComReceiveMsg+0x90>)
    14c4:	e7c4      	b.n	1450 <HAL_BB_ComReceiveMsg+0x10>
    14c6:	4633      	mov	r3, r6
    14c8:	e7e8      	b.n	149c <HAL_BB_ComReceiveMsg+0x5c>
    14ca:	bf00      	nop
    14cc:	210076a0 	smlatbcs	r0, r0, r6, r7
    14d0:	000f000b 	andeq	r0, pc, fp

000014d4 <HAL_BB_GroundConnectToSkyByRcId>:
    14d4:	b5f0      	push	{r4, r5, r6, r7, lr}
    14d6:	7842      	ldrb	r2, [r0, #1]
    14d8:	b085      	sub	sp, #20
    14da:	460d      	mov	r5, r1
    14dc:	7803      	ldrb	r3, [r0, #0]
    14de:	2705      	movs	r7, #5
    14e0:	0412      	lsls	r2, r2, #16
    14e2:	78c4      	ldrb	r4, [r0, #3]
    14e4:	2601      	movs	r6, #1
    14e6:	f88d 7004 	strb.w	r7, [sp, #4]
    14ea:	ea42 6203 	orr.w	r2, r2, r3, lsl #24
    14ee:	782f      	ldrb	r7, [r5, #0]
    14f0:	a901      	add	r1, sp, #4
    14f2:	7903      	ldrb	r3, [r0, #4]
    14f4:	4322      	orrs	r2, r4
    14f6:	7880      	ldrb	r0, [r0, #2]
    14f8:	786c      	ldrb	r4, [r5, #1]
    14fa:	ea43 2307 	orr.w	r3, r3, r7, lsl #8
    14fe:	ea42 2200 	orr.w	r2, r2, r0, lsl #8
    1502:	4808      	ldr	r0, [pc, #32]	; (1524 <HAL_BB_GroundConnectToSkyByRcId+0x50>)
    1504:	ea43 4304 	orr.w	r3, r3, r4, lsl #16
    1508:	f88d 6005 	strb.w	r6, [sp, #5]
    150c:	9202      	str	r2, [sp, #8]
    150e:	9303      	str	r3, [sp, #12]
    1510:	f005 f964 	bl	67dc <SYS_EVENT_NotifyInterCore>
    1514:	4b04      	ldr	r3, [pc, #16]	; (1528 <HAL_BB_GroundConnectToSkyByRcId+0x54>)
    1516:	2800      	cmp	r0, #0
    1518:	bf0c      	ite	eq
    151a:	4618      	moveq	r0, r3
    151c:	2000      	movne	r0, #0
    151e:	b005      	add	sp, #20
    1520:	bdf0      	pop	{r4, r5, r6, r7, pc}
    1522:	bf00      	nop
    1524:	10000004 	andne	r0, r0, r4
    1528:	000f0002 	andeq	r0, pc, r2

0000152c <HAL_BB_SearchRcId>:
    152c:	b500      	push	{lr}
    152e:	b085      	sub	sp, #20
    1530:	2205      	movs	r2, #5
    1532:	2300      	movs	r3, #0
    1534:	9002      	str	r0, [sp, #8]
    1536:	a901      	add	r1, sp, #4
    1538:	4807      	ldr	r0, [pc, #28]	; (1558 <HAL_BB_SearchRcId+0x2c>)
    153a:	f88d 3005 	strb.w	r3, [sp, #5]
    153e:	f88d 2004 	strb.w	r2, [sp, #4]
    1542:	f005 f94b 	bl	67dc <SYS_EVENT_NotifyInterCore>
    1546:	4b05      	ldr	r3, [pc, #20]	; (155c <HAL_BB_SearchRcId+0x30>)
    1548:	2800      	cmp	r0, #0
    154a:	bf0c      	ite	eq
    154c:	4618      	moveq	r0, r3
    154e:	2000      	movne	r0, #0
    1550:	b005      	add	sp, #20
    1552:	f85d fb04 	ldr.w	pc, [sp], #4
    1556:	bf00      	nop
    1558:	10000004 	andne	r0, r0, r4
    155c:	000f0002 	andeq	r0, pc, r2

00001560 <HAL_BB_StopSearchRcId>:
    1560:	b500      	push	{lr}
    1562:	2304      	movs	r3, #4
    1564:	b085      	sub	sp, #20
    1566:	2205      	movs	r2, #5
    1568:	4808      	ldr	r0, [pc, #32]	; (158c <HAL_BB_StopSearchRcId+0x2c>)
    156a:	eb0d 0103 	add.w	r1, sp, r3
    156e:	f88d 3005 	strb.w	r3, [sp, #5]
    1572:	f88d 2004 	strb.w	r2, [sp, #4]
    1576:	f005 f931 	bl	67dc <SYS_EVENT_NotifyInterCore>
    157a:	4b05      	ldr	r3, [pc, #20]	; (1590 <HAL_BB_StopSearchRcId+0x30>)
    157c:	2800      	cmp	r0, #0
    157e:	bf0c      	ite	eq
    1580:	4618      	moveq	r0, r3
    1582:	2000      	movne	r0, #0
    1584:	b005      	add	sp, #20
    1586:	f85d fb04 	ldr.w	pc, [sp], #4
    158a:	bf00      	nop
    158c:	10000004 	andne	r0, r0, r4
    1590:	000f0002 	andeq	r0, pc, r2

00001594 <HAL_BB_SaveRcId>:
    1594:	b5f0      	push	{r4, r5, r6, r7, lr}
    1596:	7842      	ldrb	r2, [r0, #1]
    1598:	b085      	sub	sp, #20
    159a:	460d      	mov	r5, r1
    159c:	7803      	ldrb	r3, [r0, #0]
    159e:	2705      	movs	r7, #5
    15a0:	0412      	lsls	r2, r2, #16
    15a2:	78c4      	ldrb	r4, [r0, #3]
    15a4:	2603      	movs	r6, #3
    15a6:	f88d 7004 	strb.w	r7, [sp, #4]
    15aa:	ea42 6203 	orr.w	r2, r2, r3, lsl #24
    15ae:	782f      	ldrb	r7, [r5, #0]
    15b0:	a901      	add	r1, sp, #4
    15b2:	7903      	ldrb	r3, [r0, #4]
    15b4:	4322      	orrs	r2, r4
    15b6:	7880      	ldrb	r0, [r0, #2]
    15b8:	786c      	ldrb	r4, [r5, #1]
    15ba:	ea43 2307 	orr.w	r3, r3, r7, lsl #8
    15be:	ea42 2200 	orr.w	r2, r2, r0, lsl #8
    15c2:	4808      	ldr	r0, [pc, #32]	; (15e4 <HAL_BB_SaveRcId+0x50>)
    15c4:	ea43 4304 	orr.w	r3, r3, r4, lsl #16
    15c8:	f88d 6005 	strb.w	r6, [sp, #5]
    15cc:	9202      	str	r2, [sp, #8]
    15ce:	9303      	str	r3, [sp, #12]
    15d0:	f005 f904 	bl	67dc <SYS_EVENT_NotifyInterCore>
    15d4:	4b04      	ldr	r3, [pc, #16]	; (15e8 <HAL_BB_SaveRcId+0x54>)
    15d6:	2800      	cmp	r0, #0
    15d8:	bf0c      	ite	eq
    15da:	4618      	moveq	r0, r3
    15dc:	2000      	movne	r0, #0
    15de:	b005      	add	sp, #20
    15e0:	bdf0      	pop	{r4, r5, r6, r7, pc}
    15e2:	bf00      	nop
    15e4:	10000004 	andne	r0, r0, r4
    15e8:	000f0002 	andeq	r0, pc, r2

000015ec <HAL_BB_SetTmpRcVtId>:
    15ec:	b5f0      	push	{r4, r5, r6, r7, lr}
    15ee:	7842      	ldrb	r2, [r0, #1]
    15f0:	460e      	mov	r6, r1
    15f2:	7807      	ldrb	r7, [r0, #0]
    15f4:	b085      	sub	sp, #20
    15f6:	0412      	lsls	r2, r2, #16
    15f8:	78c4      	ldrb	r4, [r0, #3]
    15fa:	7903      	ldrb	r3, [r0, #4]
    15fc:	2505      	movs	r5, #5
    15fe:	ea42 6207 	orr.w	r2, r2, r7, lsl #24
    1602:	7837      	ldrb	r7, [r6, #0]
    1604:	7880      	ldrb	r0, [r0, #2]
    1606:	a901      	add	r1, sp, #4
    1608:	4322      	orrs	r2, r4
    160a:	ea43 2307 	orr.w	r3, r3, r7, lsl #8
    160e:	7874      	ldrb	r4, [r6, #1]
    1610:	ea42 2200 	orr.w	r2, r2, r0, lsl #8
    1614:	4808      	ldr	r0, [pc, #32]	; (1638 <HAL_BB_SetTmpRcVtId+0x4c>)
    1616:	ea43 4304 	orr.w	r3, r3, r4, lsl #16
    161a:	f88d 5004 	strb.w	r5, [sp, #4]
    161e:	9202      	str	r2, [sp, #8]
    1620:	9303      	str	r3, [sp, #12]
    1622:	f88d 5005 	strb.w	r5, [sp, #5]
    1626:	f005 f8d9 	bl	67dc <SYS_EVENT_NotifyInterCore>
    162a:	4b04      	ldr	r3, [pc, #16]	; (163c <HAL_BB_SetTmpRcVtId+0x50>)
    162c:	2800      	cmp	r0, #0
    162e:	bf0c      	ite	eq
    1630:	4618      	moveq	r0, r3
    1632:	2000      	movne	r0, #0
    1634:	b005      	add	sp, #20
    1636:	bdf0      	pop	{r4, r5, r6, r7, pc}
    1638:	10000004 	andne	r0, r0, r4
    163c:	000f0002 	andeq	r0, pc, r2

00001640 <HAL_BB_SetObjRcVtId>:
    1640:	b5f0      	push	{r4, r5, r6, r7, lr}
    1642:	7842      	ldrb	r2, [r0, #1]
    1644:	b085      	sub	sp, #20
    1646:	460d      	mov	r5, r1
    1648:	7803      	ldrb	r3, [r0, #0]
    164a:	2705      	movs	r7, #5
    164c:	0412      	lsls	r2, r2, #16
    164e:	78c4      	ldrb	r4, [r0, #3]
    1650:	2606      	movs	r6, #6
    1652:	f88d 7004 	strb.w	r7, [sp, #4]
    1656:	ea42 6203 	orr.w	r2, r2, r3, lsl #24
    165a:	782f      	ldrb	r7, [r5, #0]
    165c:	a901      	add	r1, sp, #4
    165e:	7903      	ldrb	r3, [r0, #4]
    1660:	4322      	orrs	r2, r4
    1662:	7880      	ldrb	r0, [r0, #2]
    1664:	786c      	ldrb	r4, [r5, #1]
    1666:	ea43 2307 	orr.w	r3, r3, r7, lsl #8
    166a:	ea42 2200 	orr.w	r2, r2, r0, lsl #8
    166e:	4808      	ldr	r0, [pc, #32]	; (1690 <HAL_BB_SetObjRcVtId+0x50>)
    1670:	ea43 4304 	orr.w	r3, r3, r4, lsl #16
    1674:	f88d 6005 	strb.w	r6, [sp, #5]
    1678:	9202      	str	r2, [sp, #8]
    167a:	9303      	str	r3, [sp, #12]
    167c:	f005 f8ae 	bl	67dc <SYS_EVENT_NotifyInterCore>
    1680:	4b04      	ldr	r3, [pc, #16]	; (1694 <HAL_BB_SetObjRcVtId+0x54>)
    1682:	2800      	cmp	r0, #0
    1684:	bf0c      	ite	eq
    1686:	4618      	moveq	r0, r3
    1688:	2000      	movne	r0, #0
    168a:	b005      	add	sp, #20
    168c:	bdf0      	pop	{r4, r5, r6, r7, pc}
    168e:	bf00      	nop
    1690:	10000004 	andne	r0, r0, r4
    1694:	000f0002 	andeq	r0, pc, r2

00001698 <HAL_BB_EnableSearchRcIdByRssi>:
    1698:	b500      	push	{lr}
    169a:	b085      	sub	sp, #20
    169c:	2205      	movs	r2, #5
    169e:	2307      	movs	r3, #7
    16a0:	4807      	ldr	r0, [pc, #28]	; (16c0 <HAL_BB_EnableSearchRcIdByRssi+0x28>)
    16a2:	a901      	add	r1, sp, #4
    16a4:	f88d 2004 	strb.w	r2, [sp, #4]
    16a8:	f88d 3005 	strb.w	r3, [sp, #5]
    16ac:	f005 f896 	bl	67dc <SYS_EVENT_NotifyInterCore>
    16b0:	4b04      	ldr	r3, [pc, #16]	; (16c4 <HAL_BB_EnableSearchRcIdByRssi+0x2c>)
    16b2:	2800      	cmp	r0, #0
    16b4:	bf0c      	ite	eq
    16b6:	4618      	moveq	r0, r3
    16b8:	2000      	movne	r0, #0
    16ba:	b005      	add	sp, #20
    16bc:	f85d fb04 	ldr.w	pc, [sp], #4
    16c0:	10000004 	andne	r0, r0, r4
    16c4:	000f0002 	andeq	r0, pc, r2

000016c8 <HAL_BB_GetRcId>:
    16c8:	b508      	push	{r3, lr}
    16ca:	f003 fe11 	bl	52f0 <BB_GetRcId>
    16ce:	4b03      	ldr	r3, [pc, #12]	; (16dc <HAL_BB_GetRcId+0x14>)
    16d0:	2800      	cmp	r0, #0
    16d2:	bf14      	ite	ne
    16d4:	4618      	movne	r0, r3
    16d6:	2000      	moveq	r0, #0
    16d8:	bd08      	pop	{r3, pc}
    16da:	bf00      	nop
    16dc:	000f000a 	andeq	r0, pc, sl

000016e0 <HAL_BB_GetInfo>:
    16e0:	6803      	ldr	r3, [r0, #0]
    16e2:	b118      	cbz	r0, 16ec <HAL_BB_GetInfo+0xc>
    16e4:	b113      	cbz	r3, 16ec <HAL_BB_GetInfo+0xc>
    16e6:	4a05      	ldr	r2, [pc, #20]	; (16fc <HAL_BB_GetInfo+0x1c>)
    16e8:	4613      	mov	r3, r2
    16ea:	6002      	str	r2, [r0, #0]
    16ec:	f8b3 316e 	ldrh.w	r3, [r3, #366]	; 0x16e
    16f0:	f5b3 4f7f 	cmp.w	r3, #65280	; 0xff00
    16f4:	bf14      	ite	ne
    16f6:	20fe      	movne	r0, #254	; 0xfe
    16f8:	2000      	moveq	r0, #0
    16fa:	4770      	bx	lr
    16fc:	21004300 	mrscs	r4, LR_irq

00001700 <HAL_BB_GetDeviceInfo>:
    1700:	b148      	cbz	r0, 1716 <HAL_BB_GetDeviceInfo+0x16>
    1702:	6803      	ldr	r3, [r0, #0]
    1704:	b13b      	cbz	r3, 1716 <HAL_BB_GetDeviceInfo+0x16>
    1706:	b510      	push	{r4, lr}
    1708:	4604      	mov	r4, r0
    170a:	f003 fd01 	bl	5110 <BB_GetDevInfo>
    170e:	4b03      	ldr	r3, [pc, #12]	; (171c <HAL_BB_GetDeviceInfo+0x1c>)
    1710:	2000      	movs	r0, #0
    1712:	6023      	str	r3, [r4, #0]
    1714:	bd10      	pop	{r4, pc}
    1716:	20fe      	movs	r0, #254	; 0xfe
    1718:	4770      	bx	lr
    171a:	bf00      	nop
    171c:	210044cc 	smlabtcs	r0, ip, r4, r4

00001720 <HAL_BB_SetPower>:
    1720:	b510      	push	{r4, lr}
    1722:	b084      	sub	sp, #16
    1724:	ea41 2400 	orr.w	r4, r1, r0, lsl #8
    1728:	2206      	movs	r2, #6
    172a:	2317      	movs	r3, #23
    172c:	a901      	add	r1, sp, #4
    172e:	4807      	ldr	r0, [pc, #28]	; (174c <HAL_BB_SetPower+0x2c>)
    1730:	f88d 3005 	strb.w	r3, [sp, #5]
    1734:	9402      	str	r4, [sp, #8]
    1736:	f88d 2004 	strb.w	r2, [sp, #4]
    173a:	f005 f84f 	bl	67dc <SYS_EVENT_NotifyInterCore>
    173e:	4b04      	ldr	r3, [pc, #16]	; (1750 <HAL_BB_SetPower+0x30>)
    1740:	2800      	cmp	r0, #0
    1742:	bf0c      	ite	eq
    1744:	4618      	moveq	r0, r3
    1746:	2000      	movne	r0, #0
    1748:	b004      	add	sp, #16
    174a:	bd10      	pop	{r4, pc}
    174c:	10000004 	andne	r0, r0, r4
    1750:	000f0002 	andeq	r0, pc, r2

00001754 <HAL_BB_SetPowerWorkMode>:
    1754:	b500      	push	{lr}
    1756:	b085      	sub	sp, #20
    1758:	2206      	movs	r2, #6
    175a:	2316      	movs	r3, #22
    175c:	9002      	str	r0, [sp, #8]
    175e:	a901      	add	r1, sp, #4
    1760:	4807      	ldr	r0, [pc, #28]	; (1780 <HAL_BB_SetPowerWorkMode+0x2c>)
    1762:	f88d 3005 	strb.w	r3, [sp, #5]
    1766:	f88d 2004 	strb.w	r2, [sp, #4]
    176a:	f005 f837 	bl	67dc <SYS_EVENT_NotifyInterCore>
    176e:	4b05      	ldr	r3, [pc, #20]	; (1784 <HAL_BB_SetPowerWorkMode+0x30>)
    1770:	2800      	cmp	r0, #0
    1772:	bf0c      	ite	eq
    1774:	4618      	moveq	r0, r3
    1776:	2000      	movne	r0, #0
    1778:	b005      	add	sp, #20
    177a:	f85d fb04 	ldr.w	pc, [sp], #4
    177e:	bf00      	nop
    1780:	10000004 	andne	r0, r0, r4
    1784:	000f0002 	andeq	r0, pc, r2

00001788 <HAL_PwrCtrlSet>:
    1788:	b530      	push	{r4, r5, lr}
    178a:	b085      	sub	sp, #20
    178c:	4603      	mov	r3, r0
    178e:	2215      	movs	r2, #21
    1790:	4d09      	ldr	r5, [pc, #36]	; (17b8 <HAL_PwrCtrlSet+0x30>)
    1792:	2407      	movs	r4, #7
    1794:	a901      	add	r1, sp, #4
    1796:	4809      	ldr	r0, [pc, #36]	; (17bc <HAL_PwrCtrlSet+0x34>)
    1798:	9302      	str	r3, [sp, #8]
    179a:	702b      	strb	r3, [r5, #0]
    179c:	f88d 4004 	strb.w	r4, [sp, #4]
    17a0:	f88d 2005 	strb.w	r2, [sp, #5]
    17a4:	f005 f81a 	bl	67dc <SYS_EVENT_NotifyInterCore>
    17a8:	4b05      	ldr	r3, [pc, #20]	; (17c0 <HAL_PwrCtrlSet+0x38>)
    17aa:	2800      	cmp	r0, #0
    17ac:	bf0c      	ite	eq
    17ae:	4618      	moveq	r0, r3
    17b0:	2000      	movne	r0, #0
    17b2:	b005      	add	sp, #20
    17b4:	bd30      	pop	{r4, r5, pc}
    17b6:	bf00      	nop
    17b8:	20000290 	mulcs	r0, r0, r2
    17bc:	10000004 	andne	r0, r0, r4
    17c0:	000f0002 	andeq	r0, pc, r2

000017c4 <HAL_GetPwrCtrlLevel>:
    17c4:	4b01      	ldr	r3, [pc, #4]	; (17cc <HAL_GetPwrCtrlLevel+0x8>)
    17c6:	7818      	ldrb	r0, [r3, #0]
    17c8:	4770      	bx	lr
    17ca:	bf00      	nop
    17cc:	20000290 	mulcs	r0, r0, r2

000017d0 <HAL_BB_SpiDataTransInit>:
    17d0:	4b0b      	ldr	r3, [pc, #44]	; (1800 <HAL_BB_SpiDataTransInit+0x30>)
    17d2:	2200      	movs	r2, #0
    17d4:	2819      	cmp	r0, #25
    17d6:	b410      	push	{r4}
    17d8:	bf28      	it	cs
    17da:	2019      	movcs	r0, #25
    17dc:	601a      	str	r2, [r3, #0]
    17de:	7819      	ldrb	r1, [r3, #0]
    17e0:	4604      	mov	r4, r0
    17e2:	605a      	str	r2, [r3, #4]
    17e4:	f041 0101 	orr.w	r1, r1, #1
    17e8:	609a      	str	r2, [r3, #8]
    17ea:	60da      	str	r2, [r3, #12]
    17ec:	4610      	mov	r0, r2
    17ee:	611a      	str	r2, [r3, #16]
    17f0:	615a      	str	r2, [r3, #20]
    17f2:	619a      	str	r2, [r3, #24]
    17f4:	705c      	strb	r4, [r3, #1]
    17f6:	709c      	strb	r4, [r3, #2]
    17f8:	7019      	strb	r1, [r3, #0]
    17fa:	f85d 4b04 	ldr.w	r4, [sp], #4
    17fe:	4770      	bx	lr
    1800:	210076a0 	smlatbcs	r0, r0, r6, r7

00001804 <HAL_TakePicture>:
    1804:	b530      	push	{r4, r5, lr}
    1806:	b085      	sub	sp, #20
    1808:	4603      	mov	r3, r0
    180a:	2203      	movs	r2, #3
    180c:	4d09      	ldr	r5, [pc, #36]	; (1834 <HAL_TakePicture+0x30>)
    180e:	2402      	movs	r4, #2
    1810:	a901      	add	r1, sp, #4
    1812:	4809      	ldr	r0, [pc, #36]	; (1838 <HAL_TakePicture+0x34>)
    1814:	9302      	str	r3, [sp, #8]
    1816:	702b      	strb	r3, [r5, #0]
    1818:	f88d 4004 	strb.w	r4, [sp, #4]
    181c:	f88d 2005 	strb.w	r2, [sp, #5]
    1820:	f004 ffdc 	bl	67dc <SYS_EVENT_NotifyInterCore>
    1824:	4b05      	ldr	r3, [pc, #20]	; (183c <HAL_TakePicture+0x38>)
    1826:	2800      	cmp	r0, #0
    1828:	bf0c      	ite	eq
    182a:	4618      	moveq	r0, r3
    182c:	2000      	movne	r0, #0
    182e:	b005      	add	sp, #20
    1830:	bd30      	pop	{r4, r5, pc}
    1832:	bf00      	nop
    1834:	20000290 	mulcs	r0, r0, r2
    1838:	10000004 	andne	r0, r0, r4
    183c:	000f0002 	andeq	r0, pc, r2

00001840 <HAL_PictureQualitySet>:
    1840:	b530      	push	{r4, r5, lr}
    1842:	2204      	movs	r2, #4
    1844:	b085      	sub	sp, #20
    1846:	4603      	mov	r3, r0
    1848:	4d09      	ldr	r5, [pc, #36]	; (1870 <HAL_PictureQualitySet+0x30>)
    184a:	2402      	movs	r4, #2
    184c:	eb0d 0102 	add.w	r1, sp, r2
    1850:	4808      	ldr	r0, [pc, #32]	; (1874 <HAL_PictureQualitySet+0x34>)
    1852:	9302      	str	r3, [sp, #8]
    1854:	702b      	strb	r3, [r5, #0]
    1856:	f88d 4004 	strb.w	r4, [sp, #4]
    185a:	f88d 2005 	strb.w	r2, [sp, #5]
    185e:	f004 ffbd 	bl	67dc <SYS_EVENT_NotifyInterCore>
    1862:	4b05      	ldr	r3, [pc, #20]	; (1878 <HAL_PictureQualitySet+0x38>)
    1864:	2800      	cmp	r0, #0
    1866:	bf0c      	ite	eq
    1868:	4618      	moveq	r0, r3
    186a:	2000      	movne	r0, #0
    186c:	b005      	add	sp, #20
    186e:	bd30      	pop	{r4, r5, pc}
    1870:	20000290 	mulcs	r0, r0, r2
    1874:	10000004 	andne	r0, r0, r4
    1878:	000f0002 	andeq	r0, pc, r2

0000187c <HAL_BB_SubBandSetCH>:
    187c:	b500      	push	{lr}
    187e:	b085      	sub	sp, #20
    1880:	2207      	movs	r2, #7
    1882:	231d      	movs	r3, #29
    1884:	9002      	str	r0, [sp, #8]
    1886:	a901      	add	r1, sp, #4
    1888:	4807      	ldr	r0, [pc, #28]	; (18a8 <HAL_BB_SubBandSetCH+0x2c>)
    188a:	f88d 3005 	strb.w	r3, [sp, #5]
    188e:	f88d 2004 	strb.w	r2, [sp, #4]
    1892:	f004 ffa3 	bl	67dc <SYS_EVENT_NotifyInterCore>
    1896:	4b05      	ldr	r3, [pc, #20]	; (18ac <HAL_BB_SubBandSetCH+0x30>)
    1898:	2800      	cmp	r0, #0
    189a:	bf0c      	ite	eq
    189c:	4618      	moveq	r0, r3
    189e:	2000      	movne	r0, #0
    18a0:	b005      	add	sp, #20
    18a2:	f85d fb04 	ldr.w	pc, [sp], #4
    18a6:	bf00      	nop
    18a8:	10000004 	andne	r0, r0, r4
    18ac:	000f0002 	andeq	r0, pc, r2

000018b0 <HAL_BB_RegisterLnaFuntion>:
    18b0:	f004 b824 	b.w	58fc <BB_Register_lna>

000018b4 <HAL_NVIC_RegisterHandler>:
    18b4:	b508      	push	{r3, lr}
    18b6:	f001 fdd3 	bl	3460 <reg_IrqHandle>
    18ba:	2000      	movs	r0, #0
    18bc:	bd08      	pop	{r3, pc}
    18be:	bf00      	nop

000018c0 <HAL_NVIC_UNRegisterHandler>:
    18c0:	b508      	push	{r3, lr}
    18c2:	f001 fddf 	bl	3484 <rmv_IrqHandle>
    18c6:	2000      	movs	r0, #0
    18c8:	bd08      	pop	{r3, pc}
    18ca:	bf00      	nop

000018cc <HAL_NVIC_SetPriorityGrouping>:
    18cc:	b430      	push	{r4, r5}
    18ce:	4c07      	ldr	r4, [pc, #28]	; (18ec <HAL_NVIC_SetPriorityGrouping+0x20>)
    18d0:	f64f 01ff 	movw	r1, #63743	; 0xf8ff
    18d4:	0202      	lsls	r2, r0, #8
    18d6:	4b06      	ldr	r3, [pc, #24]	; (18f0 <HAL_NVIC_SetPriorityGrouping+0x24>)
    18d8:	68e5      	ldr	r5, [r4, #12]
    18da:	2000      	movs	r0, #0
    18dc:	f402 62e0 	and.w	r2, r2, #1792	; 0x700
    18e0:	4029      	ands	r1, r5
    18e2:	430b      	orrs	r3, r1
    18e4:	4313      	orrs	r3, r2
    18e6:	60e3      	str	r3, [r4, #12]
    18e8:	bc30      	pop	{r4, r5}
    18ea:	4770      	bx	lr
    18ec:	e000ed00 	and	lr, r0, r0, lsl #26
    18f0:	05fa0000 	ldrbeq	r0, [sl, #0]!

000018f4 <HAL_NVIC_SetPriority>:
    18f4:	4b1a      	ldr	r3, [pc, #104]	; (1960 <HAL_NVIC_SetPriority+0x6c>)
    18f6:	68db      	ldr	r3, [r3, #12]
    18f8:	f3c3 2302 	ubfx	r3, r3, #8, #3
    18fc:	b430      	push	{r4, r5}
    18fe:	f1c3 0507 	rsb	r5, r3, #7
    1902:	1d5c      	adds	r4, r3, #5
    1904:	2d05      	cmp	r5, #5
    1906:	bf28      	it	cs
    1908:	2505      	movcs	r5, #5
    190a:	2c06      	cmp	r4, #6
    190c:	d91a      	bls.n	1944 <HAL_NVIC_SetPriority+0x50>
    190e:	3b02      	subs	r3, #2
    1910:	2401      	movs	r4, #1
    1912:	409c      	lsls	r4, r3
    1914:	3c01      	subs	r4, #1
    1916:	4022      	ands	r2, r4
    1918:	2401      	movs	r4, #1
    191a:	2800      	cmp	r0, #0
    191c:	fa04 f405 	lsl.w	r4, r4, r5
    1920:	f104 34ff 	add.w	r4, r4, #4294967295
    1924:	ea01 0104 	and.w	r1, r1, r4
    1928:	fa01 f303 	lsl.w	r3, r1, r3
    192c:	ea42 0203 	orr.w	r2, r2, r3
    1930:	db0b      	blt.n	194a <HAL_NVIC_SetPriority+0x56>
    1932:	00d2      	lsls	r2, r2, #3
    1934:	4b0b      	ldr	r3, [pc, #44]	; (1964 <HAL_NVIC_SetPriority+0x70>)
    1936:	b2d2      	uxtb	r2, r2
    1938:	4403      	add	r3, r0
    193a:	2000      	movs	r0, #0
    193c:	f883 2300 	strb.w	r2, [r3, #768]	; 0x300
    1940:	bc30      	pop	{r4, r5}
    1942:	4770      	bx	lr
    1944:	2200      	movs	r2, #0
    1946:	4613      	mov	r3, r2
    1948:	e7e6      	b.n	1918 <HAL_NVIC_SetPriority+0x24>
    194a:	f000 000f 	and.w	r0, r0, #15
    194e:	00d2      	lsls	r2, r2, #3
    1950:	4b05      	ldr	r3, [pc, #20]	; (1968 <HAL_NVIC_SetPriority+0x74>)
    1952:	b2d2      	uxtb	r2, r2
    1954:	4403      	add	r3, r0
    1956:	2000      	movs	r0, #0
    1958:	761a      	strb	r2, [r3, #24]
    195a:	bc30      	pop	{r4, r5}
    195c:	4770      	bx	lr
    195e:	bf00      	nop
    1960:	e000ed00 	and	lr, r0, r0, lsl #26
    1964:	e000e100 	and	lr, r0, r0, lsl #2
    1968:	e000ecfc 	strd	lr, [r0], -ip

0000196c <HAL_NVIC_EnableIrq>:
    196c:	4603      	mov	r3, r0
    196e:	2201      	movs	r2, #1
    1970:	4905      	ldr	r1, [pc, #20]	; (1988 <HAL_NVIC_EnableIrq+0x1c>)
    1972:	2000      	movs	r0, #0
    1974:	b410      	push	{r4}
    1976:	f003 041f 	and.w	r4, r3, #31
    197a:	095b      	lsrs	r3, r3, #5
    197c:	40a2      	lsls	r2, r4
    197e:	f85d 4b04 	ldr.w	r4, [sp], #4
    1982:	f841 2023 	str.w	r2, [r1, r3, lsl #2]
    1986:	4770      	bx	lr
    1988:	e000e100 	and	lr, r0, r0, lsl #2

0000198c <HAL_NVIC_DisableIrq>:
    198c:	4603      	mov	r3, r0
    198e:	2101      	movs	r1, #1
    1990:	2000      	movs	r0, #0
    1992:	095a      	lsrs	r2, r3, #5
    1994:	f003 031f 	and.w	r3, r3, #31
    1998:	b410      	push	{r4}
    199a:	3220      	adds	r2, #32
    199c:	4c03      	ldr	r4, [pc, #12]	; (19ac <HAL_NVIC_DisableIrq+0x20>)
    199e:	fa01 f303 	lsl.w	r3, r1, r3
    19a2:	f844 3022 	str.w	r3, [r4, r2, lsl #2]
    19a6:	f85d 4b04 	ldr.w	r4, [sp], #4
    19aa:	4770      	bx	lr
    19ac:	e000e100 	and	lr, r0, r0, lsl #2

000019b0 <HAL_NVIC_GetPriorityGrouping>:
    19b0:	4b03      	ldr	r3, [pc, #12]	; (19c0 <HAL_NVIC_GetPriorityGrouping+0x10>)
    19b2:	68db      	ldr	r3, [r3, #12]
    19b4:	f3c3 2302 	ubfx	r3, r3, #8, #3
    19b8:	6003      	str	r3, [r0, #0]
    19ba:	2000      	movs	r0, #0
    19bc:	4770      	bx	lr
    19be:	bf00      	nop
    19c0:	e000ed00 	and	lr, r0, r0, lsl #26

000019c4 <HAL_NVIC_GetPriority>:
    19c4:	2800      	cmp	r0, #0
    19c6:	b4f0      	push	{r4, r5, r6, r7}
    19c8:	db20      	blt.n	1a0c <HAL_NVIC_GetPriority+0x48>
    19ca:	4c13      	ldr	r4, [pc, #76]	; (1a18 <HAL_NVIC_GetPriority+0x54>)
    19cc:	5c20      	ldrb	r0, [r4, r0]
    19ce:	08c0      	lsrs	r0, r0, #3
    19d0:	f001 0107 	and.w	r1, r1, #7
    19d4:	f1c1 0707 	rsb	r7, r1, #7
    19d8:	1d4c      	adds	r4, r1, #5
    19da:	2f05      	cmp	r7, #5
    19dc:	bf28      	it	cs
    19de:	2705      	movcs	r7, #5
    19e0:	2c06      	cmp	r4, #6
    19e2:	d910      	bls.n	1a06 <HAL_NVIC_GetPriority+0x42>
    19e4:	3902      	subs	r1, #2
    19e6:	2501      	movs	r5, #1
    19e8:	408d      	lsls	r5, r1
    19ea:	3d01      	subs	r5, #1
    19ec:	4005      	ands	r5, r0
    19ee:	2601      	movs	r6, #1
    19f0:	fa20 f401 	lsr.w	r4, r0, r1
    19f4:	2000      	movs	r0, #0
    19f6:	fa06 f107 	lsl.w	r1, r6, r7
    19fa:	3901      	subs	r1, #1
    19fc:	4021      	ands	r1, r4
    19fe:	6011      	str	r1, [r2, #0]
    1a00:	601d      	str	r5, [r3, #0]
    1a02:	bcf0      	pop	{r4, r5, r6, r7}
    1a04:	4770      	bx	lr
    1a06:	2500      	movs	r5, #0
    1a08:	4629      	mov	r1, r5
    1a0a:	e7f0      	b.n	19ee <HAL_NVIC_GetPriority+0x2a>
    1a0c:	f000 000f 	and.w	r0, r0, #15
    1a10:	4c02      	ldr	r4, [pc, #8]	; (1a1c <HAL_NVIC_GetPriority+0x58>)
    1a12:	5c20      	ldrb	r0, [r4, r0]
    1a14:	08c0      	lsrs	r0, r0, #3
    1a16:	e7db      	b.n	19d0 <HAL_NVIC_GetPriority+0xc>
    1a18:	e000e400 	and	lr, r0, r0, lsl #8
    1a1c:	e000ed14 	and	lr, r0, r4, lsl sp

00001a20 <HAL_NVIC_SetPendingIrq>:
    1a20:	4603      	mov	r3, r0
    1a22:	2101      	movs	r1, #1
    1a24:	2000      	movs	r0, #0
    1a26:	095a      	lsrs	r2, r3, #5
    1a28:	f003 031f 	and.w	r3, r3, #31
    1a2c:	b410      	push	{r4}
    1a2e:	3240      	adds	r2, #64	; 0x40
    1a30:	4c03      	ldr	r4, [pc, #12]	; (1a40 <HAL_NVIC_SetPendingIrq+0x20>)
    1a32:	fa01 f303 	lsl.w	r3, r1, r3
    1a36:	f844 3022 	str.w	r3, [r4, r2, lsl #2]
    1a3a:	f85d 4b04 	ldr.w	r4, [sp], #4
    1a3e:	4770      	bx	lr
    1a40:	e000e100 	and	lr, r0, r0, lsl #2

00001a44 <HAL_NVIC_GetPendingIrq>:
    1a44:	4603      	mov	r3, r0
    1a46:	2000      	movs	r0, #0
    1a48:	095a      	lsrs	r2, r3, #5
    1a4a:	f003 031f 	and.w	r3, r3, #31
    1a4e:	b410      	push	{r4}
    1a50:	3240      	adds	r2, #64	; 0x40
    1a52:	4c05      	ldr	r4, [pc, #20]	; (1a68 <HAL_NVIC_GetPendingIrq+0x24>)
    1a54:	f854 2022 	ldr.w	r2, [r4, r2, lsl #2]
    1a58:	f85d 4b04 	ldr.w	r4, [sp], #4
    1a5c:	fa22 f303 	lsr.w	r3, r2, r3
    1a60:	f003 0301 	and.w	r3, r3, #1
    1a64:	600b      	str	r3, [r1, #0]
    1a66:	4770      	bx	lr
    1a68:	e000e100 	and	lr, r0, r0, lsl #2

00001a6c <HAL_NVIC_ClearPendingIrq>:
    1a6c:	4603      	mov	r3, r0
    1a6e:	2101      	movs	r1, #1
    1a70:	2000      	movs	r0, #0
    1a72:	095a      	lsrs	r2, r3, #5
    1a74:	f003 031f 	and.w	r3, r3, #31
    1a78:	b410      	push	{r4}
    1a7a:	3260      	adds	r2, #96	; 0x60
    1a7c:	4c03      	ldr	r4, [pc, #12]	; (1a8c <HAL_NVIC_ClearPendingIrq+0x20>)
    1a7e:	fa01 f303 	lsl.w	r3, r1, r3
    1a82:	f844 3022 	str.w	r3, [r4, r2, lsl #2]
    1a86:	f85d 4b04 	ldr.w	r4, [sp], #4
    1a8a:	4770      	bx	lr
    1a8c:	e000e100 	and	lr, r0, r0, lsl #2

00001a90 <HAL_NVIC_GetActive>:
    1a90:	4603      	mov	r3, r0
    1a92:	2000      	movs	r0, #0
    1a94:	095a      	lsrs	r2, r3, #5
    1a96:	f003 031f 	and.w	r3, r3, #31
    1a9a:	b410      	push	{r4}
    1a9c:	3280      	adds	r2, #128	; 0x80
    1a9e:	4c05      	ldr	r4, [pc, #20]	; (1ab4 <HAL_NVIC_GetActive+0x24>)
    1aa0:	f854 2022 	ldr.w	r2, [r4, r2, lsl #2]
    1aa4:	f85d 4b04 	ldr.w	r4, [sp], #4
    1aa8:	fa22 f303 	lsr.w	r3, r2, r3
    1aac:	f003 0301 	and.w	r3, r3, #1
    1ab0:	600b      	str	r3, [r1, #0]
    1ab2:	4770      	bx	lr
    1ab4:	e000e100 	and	lr, r0, r0, lsl #2

00001ab8 <WATCHDOGUPGRADE_Reset>:
    1ab8:	b510      	push	{r4, lr}
    1aba:	4c09      	ldr	r4, [pc, #36]	; (1ae0 <WATCHDOGUPGRADE_Reset+0x28>)
    1abc:	202a      	movs	r0, #42	; 0x2a
    1abe:	6823      	ldr	r3, [r4, #0]
    1ac0:	3301      	adds	r3, #1
    1ac2:	f003 0301 	and.w	r3, r3, #1
    1ac6:	4619      	mov	r1, r3
    1ac8:	6023      	str	r3, [r4, #0]
    1aca:	f7ff f925 	bl	d18 <HAL_GPIO_SetPin>
    1ace:	f001 fb15 	bl	30fc <CPUINFO_GetLocalCpuId>
    1ad2:	b920      	cbnz	r0, 1ade <WATCHDOGUPGRADE_Reset+0x26>
    1ad4:	f001 fa04 	bl	2ee0 <SysTicks_GetTickCount>
    1ad8:	4b02      	ldr	r3, [pc, #8]	; (1ae4 <WATCHDOGUPGRADE_Reset+0x2c>)
    1ada:	6060      	str	r0, [r4, #4]
    1adc:	6018      	str	r0, [r3, #0]
    1ade:	bd10      	pop	{r4, pc}
    1ae0:	20000294 	mulcs	r0, r4, r2
    1ae4:	210042e8 	smlattcs	r0, r8, r2, r4

00001ae8 <WATCHDOG_Init>:
    1ae8:	b508      	push	{r3, lr}
    1aea:	2201      	movs	r2, #1
    1aec:	4b06      	ldr	r3, [pc, #24]	; (1b08 <WATCHDOG_Init+0x20>)
    1aee:	202a      	movs	r0, #42	; 0x2a
    1af0:	609a      	str	r2, [r3, #8]
    1af2:	f7ff f8b1 	bl	c58 <HAL_GPIO_OutPut>
    1af6:	f7ff ffdf 	bl	1ab8 <WATCHDOGUPGRADE_Reset>
    1afa:	4904      	ldr	r1, [pc, #16]	; (1b0c <WATCHDOG_Init+0x24>)
    1afc:	4804      	ldr	r0, [pc, #16]	; (1b10 <WATCHDOG_Init+0x28>)
    1afe:	e8bd 4008 	ldmia.w	sp!, {r3, lr}
    1b02:	f004 bd91 	b.w	6628 <SYS_EVENT_RegisterHandler>
    1b06:	bf00      	nop
    1b08:	20000294 	mulcs	r0, r4, r2
    1b0c:	00001b25 	andeq	r1, r0, r5, lsr #22
    1b10:	40008000 	andmi	r8, r0, r0

00001b14 <WATCHDOG_InitUpgrade>:
    1b14:	b508      	push	{r3, lr}
    1b16:	202a      	movs	r0, #42	; 0x2a
    1b18:	f7ff f89e 	bl	c58 <HAL_GPIO_OutPut>
    1b1c:	e8bd 4008 	ldmia.w	sp!, {r3, lr}
    1b20:	f7ff bfca 	b.w	1ab8 <WATCHDOGUPGRADE_Reset>

00001b24 <WATCHDOG_Reset>:
    1b24:	b570      	push	{r4, r5, r6, lr}
    1b26:	f001 fae9 	bl	30fc <CPUINFO_GetLocalCpuId>
    1b2a:	4605      	mov	r5, r0
    1b2c:	b308      	cbz	r0, 1b72 <WATCHDOG_Reset+0x4e>
    1b2e:	2801      	cmp	r0, #1
    1b30:	d110      	bne.n	1b54 <WATCHDOG_Reset+0x30>
    1b32:	4b31      	ldr	r3, [pc, #196]	; (1bf8 <WATCHDOG_Reset+0xd4>)
    1b34:	4c31      	ldr	r4, [pc, #196]	; (1bfc <WATCHDOG_Reset+0xd8>)
    1b36:	6819      	ldr	r1, [r3, #0]
    1b38:	6862      	ldr	r2, [r4, #4]
    1b3a:	4291      	cmp	r1, r2
    1b3c:	d041      	beq.n	1bc2 <WATCHDOG_Reset+0x9e>
    1b3e:	681b      	ldr	r3, [r3, #0]
    1b40:	6063      	str	r3, [r4, #4]
    1b42:	f001 f9cd 	bl	2ee0 <SysTicks_GetTickCount>
    1b46:	60e0      	str	r0, [r4, #12]
    1b48:	6a23      	ldr	r3, [r4, #32]
    1b4a:	4a2d      	ldr	r2, [pc, #180]	; (1c00 <WATCHDOG_Reset+0xdc>)
    1b4c:	3301      	adds	r3, #1
    1b4e:	6223      	str	r3, [r4, #32]
    1b50:	6013      	str	r3, [r2, #0]
    1b52:	bd70      	pop	{r4, r5, r6, pc}
    1b54:	f005 fa80 	bl	7058 <dlog_get_output_level>
    1b58:	2801      	cmp	r0, #1
    1b5a:	d909      	bls.n	1b70 <WATCHDOG_Reset+0x4c>
    1b5c:	f44f 71c6 	mov.w	r1, #396	; 0x18c
    1b60:	462b      	mov	r3, r5
    1b62:	4a28      	ldr	r2, [pc, #160]	; (1c04 <WATCHDOG_Reset+0xe0>)
    1b64:	6809      	ldr	r1, [r1, #0]
    1b66:	4828      	ldr	r0, [pc, #160]	; (1c08 <WATCHDOG_Reset+0xe4>)
    1b68:	e8bd 4070 	ldmia.w	sp!, {r4, r5, r6, lr}
    1b6c:	f006 b986 	b.w	7e7c <iprintf>
    1b70:	bd70      	pop	{r4, r5, r6, pc}
    1b72:	f001 f9b5 	bl	2ee0 <SysTicks_GetTickCount>
    1b76:	4c21      	ldr	r4, [pc, #132]	; (1bfc <WATCHDOG_Reset+0xd8>)
    1b78:	4b1f      	ldr	r3, [pc, #124]	; (1bf8 <WATCHDOG_Reset+0xd4>)
    1b7a:	4601      	mov	r1, r0
    1b7c:	6060      	str	r0, [r4, #4]
    1b7e:	6018      	str	r0, [r3, #0]
    1b80:	68e0      	ldr	r0, [r4, #12]
    1b82:	f001 fa7d 	bl	3080 <SysTicks_GetDiff>
    1b86:	6922      	ldr	r2, [r4, #16]
    1b88:	6963      	ldr	r3, [r4, #20]
    1b8a:	4402      	add	r2, r0
    1b8c:	491c      	ldr	r1, [pc, #112]	; (1c00 <WATCHDOG_Reset+0xdc>)
    1b8e:	4403      	add	r3, r0
    1b90:	69a0      	ldr	r0, [r4, #24]
    1b92:	6122      	str	r2, [r4, #16]
    1b94:	6163      	str	r3, [r4, #20]
    1b96:	680e      	ldr	r6, [r1, #0]
    1b98:	4286      	cmp	r6, r0
    1b9a:	d028      	beq.n	1bee <WATCHDOG_Reset+0xca>
    1b9c:	680a      	ldr	r2, [r1, #0]
    1b9e:	6125      	str	r5, [r4, #16]
    1ba0:	61a2      	str	r2, [r4, #24]
    1ba2:	491a      	ldr	r1, [pc, #104]	; (1c0c <WATCHDOG_Reset+0xe8>)
    1ba4:	69e0      	ldr	r0, [r4, #28]
    1ba6:	680d      	ldr	r5, [r1, #0]
    1ba8:	4a14      	ldr	r2, [pc, #80]	; (1bfc <WATCHDOG_Reset+0xd8>)
    1baa:	4285      	cmp	r5, r0
    1bac:	d01a      	beq.n	1be4 <WATCHDOG_Reset+0xc0>
    1bae:	6809      	ldr	r1, [r1, #0]
    1bb0:	2300      	movs	r3, #0
    1bb2:	61d1      	str	r1, [r2, #28]
    1bb4:	6153      	str	r3, [r2, #20]
    1bb6:	f7ff ff7f 	bl	1ab8 <WATCHDOGUPGRADE_Reset>
    1bba:	f001 f991 	bl	2ee0 <SysTicks_GetTickCount>
    1bbe:	60e0      	str	r0, [r4, #12]
    1bc0:	bd70      	pop	{r4, r5, r6, pc}
    1bc2:	68e5      	ldr	r5, [r4, #12]
    1bc4:	f001 f98c 	bl	2ee0 <SysTicks_GetTickCount>
    1bc8:	4601      	mov	r1, r0
    1bca:	4628      	mov	r0, r5
    1bcc:	f001 fa58 	bl	3080 <SysTicks_GetDiff>
    1bd0:	f240 53db 	movw	r3, #1499	; 0x5db
    1bd4:	4298      	cmp	r0, r3
    1bd6:	d9b7      	bls.n	1b48 <WATCHDOG_Reset+0x24>
    1bd8:	f000 f898 	bl	1d0c <InterCore_TriggerBacktraceIRQ1>
    1bdc:	f001 f980 	bl	2ee0 <SysTicks_GetTickCount>
    1be0:	60e0      	str	r0, [r4, #12]
    1be2:	e7b1      	b.n	1b48 <WATCHDOG_Reset+0x24>
    1be4:	f5b3 6fc8 	cmp.w	r3, #1600	; 0x640
    1be8:	d9e5      	bls.n	1bb6 <WATCHDOG_Reset+0x92>
    1bea:	b672      	cpsid	i
    1bec:	e7fe      	b.n	1bec <WATCHDOG_Reset+0xc8>
    1bee:	f5b2 6fc8 	cmp.w	r2, #1600	; 0x640
    1bf2:	d9d6      	bls.n	1ba2 <WATCHDOG_Reset+0x7e>
    1bf4:	b672      	cpsid	i
    1bf6:	e7fe      	b.n	1bf6 <WATCHDOG_Reset+0xd2>
    1bf8:	210042e8 	smlattcs	r0, r8, r2, r4
    1bfc:	20000294 	mulcs	r0, r4, r2
    1c00:	210042ec 	smlattcs	r0, ip, r2, r4
    1c04:	0000d3cc 	andeq	sp, r0, ip, asr #7
    1c08:	0000d3dc 	ldrdeq	sp, [r0], -ip
    1c0c:	210042f0 	strdcs	r4, [r0, -r0]

00001c10 <WATCHDOG_InitStatus>:
    1c10:	4b01      	ldr	r3, [pc, #4]	; (1c18 <WATCHDOG_InitStatus+0x8>)
    1c12:	6898      	ldr	r0, [r3, #8]
    1c14:	4770      	bx	lr
    1c16:	bf00      	nop
    1c18:	20000294 	mulcs	r0, r4, r2

00001c1c <Reg_Read32>:
    1c1c:	6800      	ldr	r0, [r0, #0]
    1c1e:	4770      	bx	lr

00001c20 <Reg_Write32>:
    1c20:	6001      	str	r1, [r0, #0]
    1c22:	4770      	bx	lr

00001c24 <Reg_Write32_Mask>:
    1c24:	6803      	ldr	r3, [r0, #0]
    1c26:	4059      	eors	r1, r3
    1c28:	400a      	ands	r2, r1
    1c2a:	405a      	eors	r2, r3
    1c2c:	6002      	str	r2, [r0, #0]
    1c2e:	4770      	bx	lr

00001c30 <write_reg32>:
    1c30:	6001      	str	r1, [r0, #0]
    1c32:	4770      	bx	lr

00001c34 <read_reg32>:
    1c34:	6800      	ldr	r0, [r0, #0]
    1c36:	4770      	bx	lr

00001c38 <Reg_Read64>:
    1c38:	e9d0 0100 	ldrd	r0, r1, [r0]
    1c3c:	4770      	bx	lr
    1c3e:	bf00      	nop

00001c40 <PLLCTRL_SetCoreClk>:
    1c40:	28ff      	cmp	r0, #255	; 0xff
    1c42:	b2c2      	uxtb	r2, r0
    1c44:	b538      	push	{r3, r4, r5, lr}
    1c46:	4604      	mov	r4, r0
    1c48:	bf8c      	ite	hi
    1c4a:	2501      	movhi	r5, #1
    1c4c:	2500      	movls	r5, #0
    1c4e:	4b18      	ldr	r3, [pc, #96]	; (1cb0 <PLLCTRL_SetCoreClk+0x70>)
    1c50:	2003      	movs	r0, #3
    1c52:	2901      	cmp	r1, #1
    1c54:	6018      	str	r0, [r3, #0]
    1c56:	d91a      	bls.n	1c8e <PLLCTRL_SetCoreClk+0x4e>
    1c58:	21a4      	movs	r1, #164	; 0xa4
    1c5a:	2040      	movs	r0, #64	; 0x40
    1c5c:	f002 fab4 	bl	41c8 <BB_SPI_WriteByte>
    1c60:	462a      	mov	r2, r5
    1c62:	21a5      	movs	r1, #165	; 0xa5
    1c64:	2040      	movs	r0, #64	; 0x40
    1c66:	f002 faaf 	bl	41c8 <BB_SPI_WriteByte>
    1c6a:	4b12      	ldr	r3, [pc, #72]	; (1cb4 <PLLCTRL_SetCoreClk+0x74>)
    1c6c:	4a12      	ldr	r2, [pc, #72]	; (1cb8 <PLLCTRL_SetCoreClk+0x78>)
    1c6e:	601c      	str	r4, [r3, #0]
    1c70:	7813      	ldrb	r3, [r2, #0]
    1c72:	f043 0302 	orr.w	r3, r3, #2
    1c76:	7013      	strb	r3, [r2, #0]
    1c78:	f003 0303 	and.w	r3, r3, #3
    1c7c:	2b03      	cmp	r3, #3
    1c7e:	d102      	bne.n	1c86 <PLLCTRL_SetCoreClk+0x46>
    1c80:	4b0e      	ldr	r3, [pc, #56]	; (1cbc <PLLCTRL_SetCoreClk+0x7c>)
    1c82:	4a0f      	ldr	r2, [pc, #60]	; (1cc0 <PLLCTRL_SetCoreClk+0x80>)
    1c84:	601a      	str	r2, [r3, #0]
    1c86:	4b0a      	ldr	r3, [pc, #40]	; (1cb0 <PLLCTRL_SetCoreClk+0x70>)
    1c88:	2200      	movs	r2, #0
    1c8a:	601a      	str	r2, [r3, #0]
    1c8c:	bd38      	pop	{r3, r4, r5, pc}
    1c8e:	21a1      	movs	r1, #161	; 0xa1
    1c90:	2040      	movs	r0, #64	; 0x40
    1c92:	f002 fa99 	bl	41c8 <BB_SPI_WriteByte>
    1c96:	462a      	mov	r2, r5
    1c98:	21a2      	movs	r1, #162	; 0xa2
    1c9a:	2040      	movs	r0, #64	; 0x40
    1c9c:	f002 fa94 	bl	41c8 <BB_SPI_WriteByte>
    1ca0:	4b08      	ldr	r3, [pc, #32]	; (1cc4 <PLLCTRL_SetCoreClk+0x84>)
    1ca2:	4a05      	ldr	r2, [pc, #20]	; (1cb8 <PLLCTRL_SetCoreClk+0x78>)
    1ca4:	601c      	str	r4, [r3, #0]
    1ca6:	7813      	ldrb	r3, [r2, #0]
    1ca8:	f043 0301 	orr.w	r3, r3, #1
    1cac:	7013      	strb	r3, [r2, #0]
    1cae:	e7e3      	b.n	1c78 <PLLCTRL_SetCoreClk+0x38>
    1cb0:	a003009c 	mulge	r3, ip, r0
    1cb4:	210042d8 	ldrdcs	r4, [r0, -r8]
    1cb8:	200002b8 			; <UNDEFINED> instruction: 0x200002b8
    1cbc:	210042d0 	ldrdcs	r4, [r0, -r0]
    1cc0:	20a5a502 	adccs	sl, r5, r2, lsl #10
    1cc4:	210042d4 	ldrdcs	r4, [r0, -r4]

00001cc8 <PLLCTRL_GetCoreClk>:
    1cc8:	2901      	cmp	r1, #1
    1cca:	d005      	beq.n	1cd8 <PLLCTRL_GetCoreClk+0x10>
    1ccc:	d304      	bcc.n	1cd8 <PLLCTRL_GetCoreClk+0x10>
    1cce:	2902      	cmp	r1, #2
    1cd0:	d105      	bne.n	1cde <PLLCTRL_GetCoreClk+0x16>
    1cd2:	23a6      	movs	r3, #166	; 0xa6
    1cd4:	8003      	strh	r3, [r0, #0]
    1cd6:	4770      	bx	lr
    1cd8:	23c8      	movs	r3, #200	; 0xc8
    1cda:	8003      	strh	r3, [r0, #0]
    1cdc:	4770      	bx	lr
    1cde:	4770      	bx	lr

00001ce0 <PLLCTRL_CheckCoreClkReady>:
    1ce0:	4a03      	ldr	r2, [pc, #12]	; (1cf0 <PLLCTRL_CheckCoreClkReady+0x10>)
    1ce2:	4b04      	ldr	r3, [pc, #16]	; (1cf4 <PLLCTRL_CheckCoreClkReady+0x14>)
    1ce4:	6810      	ldr	r0, [r2, #0]
    1ce6:	1ac0      	subs	r0, r0, r3
    1ce8:	fab0 f080 	clz	r0, r0
    1cec:	0940      	lsrs	r0, r0, #5
    1cee:	4770      	bx	lr
    1cf0:	210042d0 	ldrdcs	r4, [r0, -r0]
    1cf4:	20a5a502 	adccs	sl, r5, r2, lsl #10

00001cf8 <InterCore_EnableBacktraceIRQ1>:
    1cf8:	4b03      	ldr	r3, [pc, #12]	; (1d08 <InterCore_EnableBacktraceIRQ1+0x10>)
    1cfa:	2100      	movs	r1, #0
    1cfc:	2240      	movs	r2, #64	; 0x40
    1cfe:	f883 1346 	strb.w	r1, [r3, #838]	; 0x346
    1d02:	609a      	str	r2, [r3, #8]
    1d04:	4770      	bx	lr
    1d06:	bf00      	nop
    1d08:	e000e100 	and	lr, r0, r0, lsl #2

00001d0c <InterCore_TriggerBacktraceIRQ1>:
    1d0c:	4a02      	ldr	r2, [pc, #8]	; (1d18 <InterCore_TriggerBacktraceIRQ1+0xc>)
    1d0e:	6813      	ldr	r3, [r2, #0]
    1d10:	f043 0302 	orr.w	r3, r3, #2
    1d14:	6013      	str	r3, [r2, #0]
    1d16:	4770      	bx	lr
    1d18:	a003004c 	andge	r0, r3, ip, asr #32

00001d1c <cm_backtrace_fault>:
    1d1c:	4770      	bx	lr
    1d1e:	bf00      	nop

00001d20 <InterCore_DebugIRQ1Handler>:
    1d20:	4b06      	ldr	r3, [pc, #24]	; (1d3c <InterCore_DebugIRQ1Handler+0x1c>)
    1d22:	2200      	movs	r2, #0
    1d24:	601a      	str	r2, [r3, #0]
    1d26:	4670      	mov	r0, lr
    1d28:	f01e 0f04 	tst.w	lr, #4
    1d2c:	bf0c      	ite	eq
    1d2e:	f3ef 8108 	mrseq	r1, MSP
    1d32:	f3ef 8109 	mrsne	r1, PSP
    1d36:	f7ff bff1 	b.w	1d1c <cm_backtrace_fault>
    1d3a:	4770      	bx	lr
    1d3c:	a003004c 	andge	r0, r3, ip, asr #32

00001d40 <InterCore_Init>:
    1d40:	b538      	push	{r3, r4, r5, lr}
    1d42:	f000 fcf3 	bl	272c <MPU_SetUp>
    1d46:	f44f 7204 	mov.w	r2, #528	; 0x210
    1d4a:	2100      	movs	r1, #0
    1d4c:	480e      	ldr	r0, [pc, #56]	; (1d88 <InterCore_Init+0x48>)
    1d4e:	f005 ffdf 	bl	7d10 <memset>
    1d52:	4c0e      	ldr	r4, [pc, #56]	; (1d8c <InterCore_Init+0x4c>)
    1d54:	f000 f922 	bl	1f9c <InterCore_CopyConfigureFormFlashToSRAM>
    1d58:	4b0d      	ldr	r3, [pc, #52]	; (1d90 <InterCore_Init+0x50>)
    1d5a:	2105      	movs	r1, #5
    1d5c:	2540      	movs	r5, #64	; 0x40
    1d5e:	6818      	ldr	r0, [r3, #0]
    1d60:	f000 fa10 	bl	2184 <TIM_RegisterTimer>
    1d64:	2200      	movs	r2, #0
    1d66:	490b      	ldr	r1, [pc, #44]	; (1d94 <InterCore_Init+0x54>)
    1d68:	201d      	movs	r0, #29
    1d6a:	f001 fb79 	bl	3460 <reg_IrqHandle>
    1d6e:	f04f 5300 	mov.w	r3, #536870912	; 0x20000000
    1d72:	f884 531d 	strb.w	r5, [r4, #797]	; 0x31d
    1d76:	6023      	str	r3, [r4, #0]
    1d78:	f001 f9c0 	bl	30fc <CPUINFO_GetLocalCpuId>
    1d7c:	b910      	cbnz	r0, 1d84 <InterCore_Init+0x44>
    1d7e:	f884 0346 	strb.w	r0, [r4, #838]	; 0x346
    1d82:	60a5      	str	r5, [r4, #8]
    1d84:	bd38      	pop	{r3, r4, r5, pc}
    1d86:	bf00      	nop
    1d88:	21004000 	mrscs	r4, (UNDEF: 0)
    1d8c:	e000e100 	and	lr, r0, r0, lsl #2
    1d90:	0000d404 	andeq	sp, r0, r4, lsl #8
    1d94:	00001f41 	andeq	r1, r0, r1, asr #30

00001d98 <InterCore_SendMsg>:
    1d98:	e92d 43f8 	stmdb	sp!, {r3, r4, r5, r6, r7, r8, r9, lr}
    1d9c:	460e      	mov	r6, r1
    1d9e:	4698      	mov	r8, r3
    1da0:	4605      	mov	r5, r0
    1da2:	4617      	mov	r7, r2
    1da4:	f001 f9aa 	bl	30fc <CPUINFO_GetLocalCpuId>
    1da8:	1c41      	adds	r1, r0, #1
    1daa:	0083      	lsls	r3, r0, #2
    1dac:	0089      	lsls	r1, r1, #2
    1dae:	b2db      	uxtb	r3, r3
    1db0:	b2c9      	uxtb	r1, r1
    1db2:	428b      	cmp	r3, r1
    1db4:	d21b      	bcs.n	1dee <InterCore_SendMsg+0x56>
    1db6:	eb03 0283 	add.w	r2, r3, r3, lsl #2
    1dba:	4686      	mov	lr, r0
    1dbc:	4c25      	ldr	r4, [pc, #148]	; (1e54 <InterCore_SendMsg+0xbc>)
    1dbe:	eb03 0242 	add.w	r2, r3, r2, lsl #1
    1dc2:	0092      	lsls	r2, r2, #2
    1dc4:	4414      	add	r4, r2
    1dc6:	f8d4 c008 	ldr.w	ip, [r4, #8]
    1dca:	68e2      	ldr	r2, [r4, #12]
    1dcc:	6920      	ldr	r0, [r4, #16]
    1dce:	ea4c 0202 	orr.w	r2, ip, r2
    1dd2:	f894 c004 	ldrb.w	ip, [r4, #4]
    1dd6:	4302      	orrs	r2, r0
    1dd8:	4562      	cmp	r2, ip
    1dda:	d00f      	beq.n	1dfc <InterCore_SendMsg+0x64>
    1ddc:	3301      	adds	r3, #1
    1dde:	4c1d      	ldr	r4, [pc, #116]	; (1e54 <InterCore_SendMsg+0xbc>)
    1de0:	b2db      	uxtb	r3, r3
    1de2:	eb03 0283 	add.w	r2, r3, r3, lsl #2
    1de6:	4299      	cmp	r1, r3
    1de8:	eb03 0242 	add.w	r2, r3, r2, lsl #1
    1dec:	d8e9      	bhi.n	1dc2 <InterCore_SendMsg+0x2a>
    1dee:	f005 f933 	bl	7058 <dlog_get_output_level>
    1df2:	2803      	cmp	r0, #3
    1df4:	d823      	bhi.n	1e3e <InterCore_SendMsg+0xa6>
    1df6:	2000      	movs	r0, #0
    1df8:	e8bd 83f8 	ldmia.w	sp!, {r3, r4, r5, r6, r7, r8, r9, pc}
    1dfc:	f04f 0901 	mov.w	r9, #1
    1e00:	4642      	mov	r2, r8
    1e02:	4639      	mov	r1, r7
    1e04:	f104 001c 	add.w	r0, r4, #28
    1e08:	fa09 fe0e 	lsl.w	lr, r9, lr
    1e0c:	2a10      	cmp	r2, #16
    1e0e:	fa5f fe8e 	uxtb.w	lr, lr
    1e12:	bf28      	it	cs
    1e14:	2210      	movcs	r2, #16
    1e16:	f884 e000 	strb.w	lr, [r4]
    1e1a:	7823      	ldrb	r3, [r4, #0]
    1e1c:	ea25 0503 	bic.w	r5, r5, r3
    1e20:	7125      	strb	r5, [r4, #4]
    1e22:	61a6      	str	r6, [r4, #24]
    1e24:	f005 ff69 	bl	7cfa <memcpy>
    1e28:	2300      	movs	r3, #0
    1e2a:	4a0b      	ldr	r2, [pc, #44]	; (1e58 <InterCore_SendMsg+0xc0>)
    1e2c:	60a3      	str	r3, [r4, #8]
    1e2e:	6810      	ldr	r0, [r2, #0]
    1e30:	60e3      	str	r3, [r4, #12]
    1e32:	6123      	str	r3, [r4, #16]
    1e34:	f000 f978 	bl	2128 <TIM_StartTimer>
    1e38:	4648      	mov	r0, r9
    1e3a:	e8bd 83f8 	ldmia.w	sp!, {r3, r4, r5, r6, r7, r8, r9, pc}
    1e3e:	f44f 73c6 	mov.w	r3, #396	; 0x18c
    1e42:	4a06      	ldr	r2, [pc, #24]	; (1e5c <InterCore_SendMsg+0xc4>)
    1e44:	4806      	ldr	r0, [pc, #24]	; (1e60 <InterCore_SendMsg+0xc8>)
    1e46:	6819      	ldr	r1, [r3, #0]
    1e48:	f006 f818 	bl	7e7c <iprintf>
    1e4c:	2000      	movs	r0, #0
    1e4e:	e8bd 83f8 	ldmia.w	sp!, {r3, r4, r5, r6, r7, r8, r9, pc}
    1e52:	bf00      	nop
    1e54:	21004000 	mrscs	r4, (UNDEF: 0)
    1e58:	0000d404 	andeq	sp, r0, r4, lsl #8
    1e5c:	0000d408 	andeq	sp, r0, r8, lsl #8
    1e60:	0000d430 	andeq	sp, r0, r0, lsr r4

00001e64 <InterCore_GetMsg>:
    1e64:	e92d 43f0 	stmdb	sp!, {r4, r5, r6, r7, r8, r9, lr}
    1e68:	4606      	mov	r6, r0
    1e6a:	b083      	sub	sp, #12
    1e6c:	460f      	mov	r7, r1
    1e6e:	4690      	mov	r8, r2
    1e70:	f001 f944 	bl	30fc <CPUINFO_GetLocalCpuId>
    1e74:	2e00      	cmp	r6, #0
    1e76:	d042      	beq.n	1efe <InterCore_GetMsg+0x9a>
    1e78:	2f00      	cmp	r7, #0
    1e7a:	d040      	beq.n	1efe <InterCore_GetMsg+0x9a>
    1e7c:	2201      	movs	r2, #1
    1e7e:	0083      	lsls	r3, r0, #2
    1e80:	4c29      	ldr	r4, [pc, #164]	; (1f28 <InterCore_GetMsg+0xc4>)
    1e82:	fa02 f500 	lsl.w	r5, r2, r0
    1e86:	3308      	adds	r3, #8
    1e88:	4928      	ldr	r1, [pc, #160]	; (1f2c <InterCore_GetMsg+0xc8>)
    1e8a:	b2ed      	uxtb	r5, r5
    1e8c:	591a      	ldr	r2, [r3, r4]
    1e8e:	eb03 0904 	add.w	r9, r3, r4
    1e92:	b912      	cbnz	r2, 1e9a <InterCore_GetMsg+0x36>
    1e94:	7922      	ldrb	r2, [r4, #4]
    1e96:	4215      	tst	r5, r2
    1e98:	d106      	bne.n	1ea8 <InterCore_GetMsg+0x44>
    1e9a:	342c      	adds	r4, #44	; 0x2c
    1e9c:	428c      	cmp	r4, r1
    1e9e:	d1f5      	bne.n	1e8c <InterCore_GetMsg+0x28>
    1ea0:	2000      	movs	r0, #0
    1ea2:	b003      	add	sp, #12
    1ea4:	e8bd 83f0 	ldmia.w	sp!, {r4, r5, r6, r7, r8, r9, pc}
    1ea8:	f005 f8d6 	bl	7058 <dlog_get_output_level>
    1eac:	2803      	cmp	r0, #3
    1eae:	d832      	bhi.n	1f16 <InterCore_GetMsg+0xb2>
    1eb0:	4642      	mov	r2, r8
    1eb2:	69a3      	ldr	r3, [r4, #24]
    1eb4:	4638      	mov	r0, r7
    1eb6:	f104 011c 	add.w	r1, r4, #28
    1eba:	2a10      	cmp	r2, #16
    1ebc:	6033      	str	r3, [r6, #0]
    1ebe:	bf28      	it	cs
    1ec0:	2210      	movcs	r2, #16
    1ec2:	f005 ff1a 	bl	7cfa <memcpy>
    1ec6:	f8c9 5000 	str.w	r5, [r9]
    1eca:	f3bf 8f4f 	dsb	sy
    1ece:	f3bf 8f5f 	dmb	sy
    1ed2:	f8d9 3000 	ldr.w	r3, [r9]
    1ed6:	429d      	cmp	r5, r3
    1ed8:	d00d      	beq.n	1ef6 <InterCore_GetMsg+0x92>
    1eda:	f005 f8bd 	bl	7058 <dlog_get_output_level>
    1ede:	2801      	cmp	r0, #1
    1ee0:	d909      	bls.n	1ef6 <InterCore_GetMsg+0x92>
    1ee2:	f44f 71c6 	mov.w	r1, #396	; 0x18c
    1ee6:	f8d9 3000 	ldr.w	r3, [r9]
    1eea:	4a11      	ldr	r2, [pc, #68]	; (1f30 <InterCore_GetMsg+0xcc>)
    1eec:	6809      	ldr	r1, [r1, #0]
    1eee:	4811      	ldr	r0, [pc, #68]	; (1f34 <InterCore_GetMsg+0xd0>)
    1ef0:	9500      	str	r5, [sp, #0]
    1ef2:	f005 ffc3 	bl	7e7c <iprintf>
    1ef6:	2001      	movs	r0, #1
    1ef8:	b003      	add	sp, #12
    1efa:	e8bd 83f0 	ldmia.w	sp!, {r4, r5, r6, r7, r8, r9, pc}
    1efe:	f005 f8ab 	bl	7058 <dlog_get_output_level>
    1f02:	2801      	cmp	r0, #1
    1f04:	d9cc      	bls.n	1ea0 <InterCore_GetMsg+0x3c>
    1f06:	f44f 73c6 	mov.w	r3, #396	; 0x18c
    1f0a:	4a09      	ldr	r2, [pc, #36]	; (1f30 <InterCore_GetMsg+0xcc>)
    1f0c:	480a      	ldr	r0, [pc, #40]	; (1f38 <InterCore_GetMsg+0xd4>)
    1f0e:	6819      	ldr	r1, [r3, #0]
    1f10:	f005 ffb4 	bl	7e7c <iprintf>
    1f14:	e7c4      	b.n	1ea0 <InterCore_GetMsg+0x3c>
    1f16:	f44f 71c6 	mov.w	r1, #396	; 0x18c
    1f1a:	69a3      	ldr	r3, [r4, #24]
    1f1c:	4a04      	ldr	r2, [pc, #16]	; (1f30 <InterCore_GetMsg+0xcc>)
    1f1e:	6809      	ldr	r1, [r1, #0]
    1f20:	4806      	ldr	r0, [pc, #24]	; (1f3c <InterCore_GetMsg+0xd8>)
    1f22:	f005 ffab 	bl	7e7c <iprintf>
    1f26:	e7c3      	b.n	1eb0 <InterCore_GetMsg+0x4c>
    1f28:	21004000 	mrscs	r4, (UNDEF: 0)
    1f2c:	21004210 	tstcs	r0, r0, lsl r2
    1f30:	0000d41c 	andeq	sp, r0, ip, lsl r4
    1f34:	0000d4b0 			; <UNDEFINED> instruction: 0x0000d4b0
    1f38:	0000d468 	andeq	sp, r0, r8, ror #8
    1f3c:	0000d484 	andeq	sp, r0, r4, lsl #9

00001f40 <InterCore_IRQ0Handler>:
    1f40:	b530      	push	{r4, r5, lr}
    1f42:	4813      	ldr	r0, [pc, #76]	; (1f90 <InterCore_IRQ0Handler+0x50>)
    1f44:	b087      	sub	sp, #28
    1f46:	f7ff fe69 	bl	1c1c <Reg_Read32>
    1f4a:	4a12      	ldr	r2, [pc, #72]	; (1f94 <InterCore_IRQ0Handler+0x54>)
    1f4c:	f04f 5100 	mov.w	r1, #536870912	; 0x20000000
    1f50:	4b11      	ldr	r3, [pc, #68]	; (1f98 <InterCore_IRQ0Handler+0x58>)
    1f52:	250c      	movs	r5, #12
    1f54:	2400      	movs	r4, #0
    1f56:	f8c2 1180 	str.w	r1, [r2, #384]	; 0x180
    1f5a:	6818      	ldr	r0, [r3, #0]
    1f5c:	f000 f8b4 	bl	20c8 <TIM_StopTimer>
    1f60:	a902      	add	r1, sp, #8
    1f62:	2210      	movs	r2, #16
    1f64:	a801      	add	r0, sp, #4
    1f66:	9401      	str	r4, [sp, #4]
    1f68:	9402      	str	r4, [sp, #8]
    1f6a:	9403      	str	r4, [sp, #12]
    1f6c:	9404      	str	r4, [sp, #16]
    1f6e:	9405      	str	r4, [sp, #20]
    1f70:	f7ff ff78 	bl	1e64 <InterCore_GetMsg>
    1f74:	9b01      	ldr	r3, [sp, #4]
    1f76:	a902      	add	r1, sp, #8
    1f78:	f023 4000 	bic.w	r0, r3, #2147483648	; 0x80000000
    1f7c:	b12b      	cbz	r3, 1f8a <InterCore_IRQ0Handler+0x4a>
    1f7e:	f004 fbf1 	bl	6764 <SYS_EVENT_Notify_From_ISR>
    1f82:	1e6b      	subs	r3, r5, #1
    1f84:	f013 05ff 	ands.w	r5, r3, #255	; 0xff
    1f88:	d1ea      	bne.n	1f60 <InterCore_IRQ0Handler+0x20>
    1f8a:	b007      	add	sp, #28
    1f8c:	bd30      	pop	{r4, r5, pc}
    1f8e:	bf00      	nop
    1f90:	4008005c 	andmi	r0, r8, ip, asr r0
    1f94:	e000e100 	and	lr, r0, r0, lsl #2
    1f98:	0000d404 	andeq	sp, r0, r4, lsl #8

00001f9c <InterCore_CopyConfigureFormFlashToSRAM>:
    1f9c:	b538      	push	{r3, r4, r5, lr}
    1f9e:	f001 f8ad 	bl	30fc <CPUINFO_GetLocalCpuId>
    1fa2:	b100      	cbz	r0, 1fa6 <InterCore_CopyConfigureFormFlashToSRAM+0xa>
    1fa4:	bd38      	pop	{r3, r4, r5, pc}
    1fa6:	480b      	ldr	r0, [pc, #44]	; (1fd4 <InterCore_CopyConfigureFormFlashToSRAM+0x38>)
    1fa8:	f7ff fe38 	bl	1c1c <Reg_Read32>
    1fac:	4605      	mov	r5, r0
    1fae:	480a      	ldr	r0, [pc, #40]	; (1fd8 <InterCore_CopyConfigureFormFlashToSRAM+0x3c>)
    1fb0:	f7ff fe34 	bl	1c1c <Reg_Read32>
    1fb4:	4604      	mov	r4, r0
    1fb6:	4809      	ldr	r0, [pc, #36]	; (1fdc <InterCore_CopyConfigureFormFlashToSRAM+0x40>)
    1fb8:	f7ff fe30 	bl	1c1c <Reg_Read32>
    1fbc:	442c      	add	r4, r5
    1fbe:	4908      	ldr	r1, [pc, #32]	; (1fe0 <InterCore_CopyConfigureFormFlashToSRAM+0x44>)
    1fc0:	4421      	add	r1, r4
    1fc2:	4401      	add	r1, r0
    1fc4:	4807      	ldr	r0, [pc, #28]	; (1fe4 <InterCore_CopyConfigureFormFlashToSRAM+0x48>)
    1fc6:	f005 f893 	bl	70f0 <CFGBIN_LoadFromFlash>
    1fca:	e8bd 4038 	ldmia.w	sp!, {r3, r4, r5, lr}
    1fce:	f007 bbcb 	b.w	9768 <FCT_Load2Sram>
    1fd2:	bf00      	nop
    1fd4:	10020020 	andne	r0, r2, r0, lsr #32
    1fd8:	10020024 	andne	r0, r2, r4, lsr #32
    1fdc:	10020028 	andne	r0, r2, r8, lsr #32
    1fe0:	10030000 	andne	r0, r3, r0
    1fe4:	21008700 	tstcs	r0, r0, lsl #14

00001fe8 <TIM_ClearNvic>:
    1fe8:	f3c0 2307 	ubfx	r3, r0, #8, #8
    1fec:	b500      	push	{lr}
    1fee:	2b07      	cmp	r3, #7
    1ff0:	b083      	sub	sp, #12
    1ff2:	9001      	str	r0, [sp, #4]
    1ff4:	d812      	bhi.n	201c <TIM_ClearNvic+0x34>
    1ff6:	b2c0      	uxtb	r0, r0
    1ff8:	2802      	cmp	r0, #2
    1ffa:	d80f      	bhi.n	201c <TIM_ClearNvic+0x34>
    1ffc:	b190      	cbz	r0, 2024 <TIM_ClearNvic+0x3c>
    1ffe:	4a0b      	ldr	r2, [pc, #44]	; (202c <TIM_ClearNvic+0x44>)
    2000:	490b      	ldr	r1, [pc, #44]	; (2030 <TIM_ClearNvic+0x48>)
    2002:	2801      	cmp	r0, #1
    2004:	bf0c      	ite	eq
    2006:	4610      	moveq	r0, r2
    2008:	4608      	movne	r0, r1
    200a:	2214      	movs	r2, #20
    200c:	fb02 0003 	mla	r0, r2, r3, r0
    2010:	300c      	adds	r0, #12
    2012:	f7ff fe03 	bl	1c1c <Reg_Read32>
    2016:	b003      	add	sp, #12
    2018:	f85d fb04 	ldr.w	pc, [sp], #4
    201c:	2003      	movs	r0, #3
    201e:	b003      	add	sp, #12
    2020:	f85d fb04 	ldr.w	pc, [sp], #4
    2024:	f04f 4080 	mov.w	r0, #1073741824	; 0x40000000
    2028:	e7ef      	b.n	200a <TIM_ClearNvic+0x22>
    202a:	bf00      	nop
    202c:	40040000 	andmi	r0, r4, r0
    2030:	40080000 	andmi	r0, r8, r0

00002034 <TIM_IntrGetIntrStatus>:
    2034:	f3c0 2307 	ubfx	r3, r0, #8, #8
    2038:	b500      	push	{lr}
    203a:	2b07      	cmp	r3, #7
    203c:	b083      	sub	sp, #12
    203e:	9001      	str	r0, [sp, #4]
    2040:	d802      	bhi.n	2048 <TIM_IntrGetIntrStatus+0x14>
    2042:	b2c0      	uxtb	r0, r0
    2044:	2802      	cmp	r0, #2
    2046:	d903      	bls.n	2050 <TIM_IntrGetIntrStatus+0x1c>
    2048:	2003      	movs	r0, #3
    204a:	b003      	add	sp, #12
    204c:	f85d fb04 	ldr.w	pc, [sp], #4
    2050:	b958      	cbnz	r0, 206a <TIM_IntrGetIntrStatus+0x36>
    2052:	f04f 4080 	mov.w	r0, #1073741824	; 0x40000000
    2056:	2214      	movs	r2, #20
    2058:	fb02 0003 	mla	r0, r2, r3, r0
    205c:	3010      	adds	r0, #16
    205e:	f7ff fddd 	bl	1c1c <Reg_Read32>
    2062:	b2c0      	uxtb	r0, r0
    2064:	b003      	add	sp, #12
    2066:	f85d fb04 	ldr.w	pc, [sp], #4
    206a:	4a03      	ldr	r2, [pc, #12]	; (2078 <TIM_IntrGetIntrStatus+0x44>)
    206c:	4903      	ldr	r1, [pc, #12]	; (207c <TIM_IntrGetIntrStatus+0x48>)
    206e:	2801      	cmp	r0, #1
    2070:	bf0c      	ite	eq
    2072:	4610      	moveq	r0, r2
    2074:	4608      	movne	r0, r1
    2076:	e7ee      	b.n	2056 <TIM_IntrGetIntrStatus+0x22>
    2078:	40040000 	andmi	r0, r4, r0
    207c:	40080000 	andmi	r0, r8, r0

00002080 <TIM_ConfigCount>:
    2080:	b570      	push	{r4, r5, r6, lr}
    2082:	9d04      	ldr	r5, [sp, #16]
    2084:	4604      	mov	r4, r0
    2086:	461e      	mov	r6, r3
    2088:	4410      	add	r0, r2
    208a:	f7ff fdc9 	bl	1c20 <Reg_Write32>
    208e:	1960      	adds	r0, r4, r5
    2090:	4631      	mov	r1, r6
    2092:	e8bd 4070 	ldmia.w	sp!, {r4, r5, r6, lr}
    2096:	f7ff bdc3 	b.w	1c20 <Reg_Write32>
    209a:	bf00      	nop

0000209c <TIM_Config>:
    209c:	e92d 41f0 	stmdb	sp!, {r4, r5, r6, r7, r8, lr}
    20a0:	9f06      	ldr	r7, [sp, #24]
    20a2:	4604      	mov	r4, r0
    20a4:	4698      	mov	r8, r3
    20a6:	4410      	add	r0, r2
    20a8:	9d08      	ldr	r5, [sp, #32]
    20aa:	f021 0101 	bic.w	r1, r1, #1
    20ae:	9e07      	ldr	r6, [sp, #28]
    20b0:	f7ff fdb6 	bl	1c20 <Reg_Write32>
    20b4:	4641      	mov	r1, r8
    20b6:	19e0      	adds	r0, r4, r7
    20b8:	f7ff fdb2 	bl	1c20 <Reg_Write32>
    20bc:	4631      	mov	r1, r6
    20be:	1960      	adds	r0, r4, r5
    20c0:	e8bd 41f0 	ldmia.w	sp!, {r4, r5, r6, r7, r8, lr}
    20c4:	f7ff bdac 	b.w	1c20 <Reg_Write32>

000020c8 <TIM_StopTimer>:
    20c8:	f3c0 2307 	ubfx	r3, r0, #8, #8
    20cc:	b500      	push	{lr}
    20ce:	2b07      	cmp	r3, #7
    20d0:	b083      	sub	sp, #12
    20d2:	9001      	str	r0, [sp, #4]
    20d4:	d816      	bhi.n	2104 <TIM_StopTimer+0x3c>
    20d6:	b2c0      	uxtb	r0, r0
    20d8:	2802      	cmp	r0, #2
    20da:	d813      	bhi.n	2104 <TIM_StopTimer+0x3c>
    20dc:	b1b0      	cbz	r0, 210c <TIM_StopTimer+0x44>
    20de:	4a0d      	ldr	r2, [pc, #52]	; (2114 <TIM_StopTimer+0x4c>)
    20e0:	490d      	ldr	r1, [pc, #52]	; (2118 <TIM_StopTimer+0x50>)
    20e2:	2801      	cmp	r0, #1
    20e4:	bf0c      	ite	eq
    20e6:	4610      	moveq	r0, r2
    20e8:	4608      	movne	r0, r1
    20ea:	2214      	movs	r2, #20
    20ec:	f89d 1006 	ldrb.w	r1, [sp, #6]
    20f0:	fb02 0003 	mla	r0, r2, r3, r0
    20f4:	f001 01fe 	and.w	r1, r1, #254	; 0xfe
    20f8:	3008      	adds	r0, #8
    20fa:	f7ff fd91 	bl	1c20 <Reg_Write32>
    20fe:	b003      	add	sp, #12
    2100:	f85d fb04 	ldr.w	pc, [sp], #4
    2104:	2003      	movs	r0, #3
    2106:	b003      	add	sp, #12
    2108:	f85d fb04 	ldr.w	pc, [sp], #4
    210c:	f04f 4080 	mov.w	r0, #1073741824	; 0x40000000
    2110:	e7eb      	b.n	20ea <TIM_StopTimer+0x22>
    2112:	bf00      	nop
    2114:	40040000 	andmi	r0, r4, r0
    2118:	40080000 	andmi	r0, r8, r0

0000211c <TIM_StopPwm>:
    211c:	b082      	sub	sp, #8
    211e:	9001      	str	r0, [sp, #4]
    2120:	b002      	add	sp, #8
    2122:	f7ff bfd1 	b.w	20c8 <TIM_StopTimer>
    2126:	bf00      	nop

00002128 <TIM_StartTimer>:
    2128:	f3c0 2307 	ubfx	r3, r0, #8, #8
    212c:	b500      	push	{lr}
    212e:	2b07      	cmp	r3, #7
    2130:	b083      	sub	sp, #12
    2132:	9001      	str	r0, [sp, #4]
    2134:	d814      	bhi.n	2160 <TIM_StartTimer+0x38>
    2136:	b2c0      	uxtb	r0, r0
    2138:	2802      	cmp	r0, #2
    213a:	d811      	bhi.n	2160 <TIM_StartTimer+0x38>
    213c:	b1a0      	cbz	r0, 2168 <TIM_StartTimer+0x40>
    213e:	4a0c      	ldr	r2, [pc, #48]	; (2170 <TIM_StartTimer+0x48>)
    2140:	490c      	ldr	r1, [pc, #48]	; (2174 <TIM_StartTimer+0x4c>)
    2142:	2801      	cmp	r0, #1
    2144:	bf0c      	ite	eq
    2146:	4610      	moveq	r0, r2
    2148:	4608      	movne	r0, r1
    214a:	2214      	movs	r2, #20
    214c:	f89d 1006 	ldrb.w	r1, [sp, #6]
    2150:	fb02 0003 	mla	r0, r2, r3, r0
    2154:	3008      	adds	r0, #8
    2156:	f7ff fd63 	bl	1c20 <Reg_Write32>
    215a:	b003      	add	sp, #12
    215c:	f85d fb04 	ldr.w	pc, [sp], #4
    2160:	2003      	movs	r0, #3
    2162:	b003      	add	sp, #12
    2164:	f85d fb04 	ldr.w	pc, [sp], #4
    2168:	f04f 4080 	mov.w	r0, #1073741824	; 0x40000000
    216c:	e7ed      	b.n	214a <TIM_StartTimer+0x22>
    216e:	bf00      	nop
    2170:	40040000 	andmi	r0, r4, r0
    2174:	40080000 	andmi	r0, r8, r0

00002178 <TIM_StartPwm>:
    2178:	b082      	sub	sp, #8
    217a:	9001      	str	r0, [sp, #4]
    217c:	b002      	add	sp, #8
    217e:	f7ff bfd3 	b.w	2128 <TIM_StartTimer>
    2182:	bf00      	nop

00002184 <TIM_RegisterTimer>:
    2184:	b5f0      	push	{r4, r5, r6, r7, lr}
    2186:	b089      	sub	sp, #36	; 0x24
    2188:	2200      	movs	r2, #0
    218a:	460e      	mov	r6, r1
    218c:	b2c5      	uxtb	r5, r0
    218e:	ab08      	add	r3, sp, #32
    2190:	9005      	str	r0, [sp, #20]
    2192:	4611      	mov	r1, r2
    2194:	f3c0 2407 	ubfx	r4, r0, #8, #8
    2198:	f823 2d02 	strh.w	r2, [r3, #-2]!
    219c:	f3c0 4707 	ubfx	r7, r0, #16, #8
    21a0:	4618      	mov	r0, r3
    21a2:	f7ff fd91 	bl	1cc8 <PLLCTRL_GetCoreClk>
    21a6:	f8bd 301e 	ldrh.w	r3, [sp, #30]
    21aa:	085b      	lsrs	r3, r3, #1
    21ac:	f8ad 301e 	strh.w	r3, [sp, #30]
    21b0:	b1eb      	cbz	r3, 21ee <TIM_RegisterTimer+0x6a>
    21b2:	2d02      	cmp	r5, #2
    21b4:	d818      	bhi.n	21e8 <TIM_RegisterTimer+0x64>
    21b6:	2c07      	cmp	r4, #7
    21b8:	d816      	bhi.n	21e8 <TIM_RegisterTimer+0x64>
    21ba:	b1dd      	cbz	r5, 21f4 <TIM_RegisterTimer+0x70>
    21bc:	4a0f      	ldr	r2, [pc, #60]	; (21fc <TIM_RegisterTimer+0x78>)
    21be:	4810      	ldr	r0, [pc, #64]	; (2200 <TIM_RegisterTimer+0x7c>)
    21c0:	2d01      	cmp	r5, #1
    21c2:	bf08      	it	eq
    21c4:	4610      	moveq	r0, r2
    21c6:	eb04 0284 	add.w	r2, r4, r4, lsl #2
    21ca:	342c      	adds	r4, #44	; 0x2c
    21cc:	2500      	movs	r5, #0
    21ce:	fb06 f303 	mul.w	r3, r6, r3
    21d2:	0092      	lsls	r2, r2, #2
    21d4:	4639      	mov	r1, r7
    21d6:	00a4      	lsls	r4, r4, #2
    21d8:	9501      	str	r5, [sp, #4]
    21da:	9200      	str	r2, [sp, #0]
    21dc:	3208      	adds	r2, #8
    21de:	9402      	str	r4, [sp, #8]
    21e0:	f7ff ff5c 	bl	209c <TIM_Config>
    21e4:	b009      	add	sp, #36	; 0x24
    21e6:	bdf0      	pop	{r4, r5, r6, r7, pc}
    21e8:	2003      	movs	r0, #3
    21ea:	b009      	add	sp, #36	; 0x24
    21ec:	bdf0      	pop	{r4, r5, r6, r7, pc}
    21ee:	2004      	movs	r0, #4
    21f0:	b009      	add	sp, #36	; 0x24
    21f2:	bdf0      	pop	{r4, r5, r6, r7, pc}
    21f4:	f04f 4080 	mov.w	r0, #1073741824	; 0x40000000
    21f8:	e7e5      	b.n	21c6 <TIM_RegisterTimer+0x42>
    21fa:	bf00      	nop
    21fc:	40040000 	andmi	r0, r4, r0
    2200:	40080000 	andmi	r0, r8, r0

00002204 <TIM_RegisterPwm>:
    2204:	e92d 41f0 	stmdb	sp!, {r4, r5, r6, r7, r8, lr}
    2208:	b088      	sub	sp, #32
    220a:	2500      	movs	r5, #0
    220c:	460e      	mov	r6, r1
    220e:	fa5f f880 	uxtb.w	r8, r0
    2212:	ac08      	add	r4, sp, #32
    2214:	9005      	str	r0, [sp, #20]
    2216:	4629      	mov	r1, r5
    2218:	f3c0 4707 	ubfx	r7, r0, #16, #8
    221c:	f824 5d02 	strh.w	r5, [r4, #-2]!
    2220:	f3c0 2507 	ubfx	r5, r0, #8, #8
    2224:	4620      	mov	r0, r4
    2226:	4614      	mov	r4, r2
    2228:	f7ff fd4e 	bl	1cc8 <PLLCTRL_GetCoreClk>
    222c:	f8bd 301e 	ldrh.w	r3, [sp, #30]
    2230:	085b      	lsrs	r3, r3, #1
    2232:	f8ad 301e 	strh.w	r3, [sp, #30]
    2236:	b333      	cbz	r3, 2286 <TIM_RegisterPwm+0x82>
    2238:	f1b8 0f02 	cmp.w	r8, #2
    223c:	d81f      	bhi.n	227e <TIM_RegisterPwm+0x7a>
    223e:	2d07      	cmp	r5, #7
    2240:	d81d      	bhi.n	227e <TIM_RegisterPwm+0x7a>
    2242:	f1b8 0f00 	cmp.w	r8, #0
    2246:	d022      	beq.n	228e <TIM_RegisterPwm+0x8a>
    2248:	4812      	ldr	r0, [pc, #72]	; (2294 <TIM_RegisterPwm+0x90>)
    224a:	4a13      	ldr	r2, [pc, #76]	; (2298 <TIM_RegisterPwm+0x94>)
    224c:	f1b8 0f01 	cmp.w	r8, #1
    2250:	bf18      	it	ne
    2252:	4610      	movne	r0, r2
    2254:	eb05 0285 	add.w	r2, r5, r5, lsl #2
    2258:	fb04 f403 	mul.w	r4, r4, r3
    225c:	352c      	adds	r5, #44	; 0x2c
    225e:	fb06 f303 	mul.w	r3, r6, r3
    2262:	0092      	lsls	r2, r2, #2
    2264:	3c01      	subs	r4, #1
    2266:	00ad      	lsls	r5, r5, #2
    2268:	3b01      	subs	r3, #1
    226a:	9200      	str	r2, [sp, #0]
    226c:	4639      	mov	r1, r7
    226e:	3208      	adds	r2, #8
    2270:	9401      	str	r4, [sp, #4]
    2272:	9502      	str	r5, [sp, #8]
    2274:	f7ff ff12 	bl	209c <TIM_Config>
    2278:	b008      	add	sp, #32
    227a:	e8bd 81f0 	ldmia.w	sp!, {r4, r5, r6, r7, r8, pc}
    227e:	2003      	movs	r0, #3
    2280:	b008      	add	sp, #32
    2282:	e8bd 81f0 	ldmia.w	sp!, {r4, r5, r6, r7, r8, pc}
    2286:	2004      	movs	r0, #4
    2288:	b008      	add	sp, #32
    228a:	e8bd 81f0 	ldmia.w	sp!, {r4, r5, r6, r7, r8, pc}
    228e:	f04f 4080 	mov.w	r0, #1073741824	; 0x40000000
    2292:	e7df      	b.n	2254 <TIM_RegisterPwm+0x50>
    2294:	40040000 	andmi	r0, r4, r0
    2298:	40080000 	andmi	r0, r8, r0

0000229c <TIM_ModifyPwmCount>:
    229c:	e92d 41f0 	stmdb	sp!, {r4, r5, r6, r7, r8, lr}
    22a0:	b084      	sub	sp, #16
    22a2:	2400      	movs	r4, #0
    22a4:	460e      	mov	r6, r1
    22a6:	f3c0 2507 	ubfx	r5, r0, #8, #8
    22aa:	ab04      	add	r3, sp, #16
    22ac:	9001      	str	r0, [sp, #4]
    22ae:	4621      	mov	r1, r4
    22b0:	4617      	mov	r7, r2
    22b2:	f823 4d02 	strh.w	r4, [r3, #-2]!
    22b6:	b2c4      	uxtb	r4, r0
    22b8:	4618      	mov	r0, r3
    22ba:	f7ff fd05 	bl	1cc8 <PLLCTRL_GetCoreClk>
    22be:	f9bd 300e 	ldrsh.w	r3, [sp, #14]
    22c2:	f3c3 034f 	ubfx	r3, r3, #1, #16
    22c6:	f8ad 300e 	strh.w	r3, [sp, #14]
    22ca:	b30b      	cbz	r3, 2310 <TIM_ModifyPwmCount+0x74>
    22cc:	2c02      	cmp	r4, #2
    22ce:	d81b      	bhi.n	2308 <TIM_ModifyPwmCount+0x6c>
    22d0:	2d07      	cmp	r5, #7
    22d2:	d819      	bhi.n	2308 <TIM_ModifyPwmCount+0x6c>
    22d4:	b304      	cbz	r4, 2318 <TIM_ModifyPwmCount+0x7c>
    22d6:	4a12      	ldr	r2, [pc, #72]	; (2320 <TIM_ModifyPwmCount+0x84>)
    22d8:	4912      	ldr	r1, [pc, #72]	; (2324 <TIM_ModifyPwmCount+0x88>)
    22da:	2c01      	cmp	r4, #1
    22dc:	bf0c      	ite	eq
    22de:	4690      	moveq	r8, r2
    22e0:	4688      	movne	r8, r1
    22e2:	b21c      	sxth	r4, r3
    22e4:	2014      	movs	r0, #20
    22e6:	fb06 f104 	mul.w	r1, r6, r4
    22ea:	fb00 8005 	mla	r0, r0, r5, r8
    22ee:	f7ff fc97 	bl	1c20 <Reg_Write32>
    22f2:	f105 002c 	add.w	r0, r5, #44	; 0x2c
    22f6:	fb07 f104 	mul.w	r1, r7, r4
    22fa:	eb08 0080 	add.w	r0, r8, r0, lsl #2
    22fe:	f7ff fc8f 	bl	1c20 <Reg_Write32>
    2302:	b004      	add	sp, #16
    2304:	e8bd 81f0 	ldmia.w	sp!, {r4, r5, r6, r7, r8, pc}
    2308:	2003      	movs	r0, #3
    230a:	b004      	add	sp, #16
    230c:	e8bd 81f0 	ldmia.w	sp!, {r4, r5, r6, r7, r8, pc}
    2310:	2004      	movs	r0, #4
    2312:	b004      	add	sp, #16
    2314:	e8bd 81f0 	ldmia.w	sp!, {r4, r5, r6, r7, r8, pc}
    2318:	f04f 4880 	mov.w	r8, #1073741824	; 0x40000000
    231c:	e7e1      	b.n	22e2 <TIM_ModifyPwmCount+0x46>
    231e:	bf00      	nop
    2320:	40040000 	andmi	r0, r4, r0
    2324:	40080000 	andmi	r0, r8, r0

00002328 <GPIO_SetMode>:
    2328:	b410      	push	{r4}
    232a:	0043      	lsls	r3, r0, #1
    232c:	4c06      	ldr	r4, [pc, #24]	; (2348 <GPIO_SetMode+0x20>)
    232e:	f3c0 1007 	ubfx	r0, r0, #4, #8
    2332:	2203      	movs	r2, #3
    2334:	f003 031e 	and.w	r3, r3, #30
    2338:	4404      	add	r4, r0
    233a:	4099      	lsls	r1, r3
    233c:	409a      	lsls	r2, r3
    233e:	00a0      	lsls	r0, r4, #2
    2340:	f85d 4b04 	ldr.w	r4, [sp], #4
    2344:	f7ff bc6e 	b.w	1c24 <Reg_Write32_Mask>
    2348:	102c001f 	eorne	r0, ip, pc, lsl r0

0000234c <GPIO_SetPin>:
    234c:	0943      	lsrs	r3, r0, #5
    234e:	b430      	push	{r4, r5}
    2350:	2b03      	cmp	r3, #3
    2352:	d824      	bhi.n	239e <GPIO_SetPin+0x52>
    2354:	e8df f003 	tbb	[pc, r3]
    2358:	181f2102 	ldmdane	pc, {r1, r8, sp}	; <UNPREDICTABLE>
    235c:	4c12      	ldr	r4, [pc, #72]	; (23a8 <GPIO_SetPin+0x5c>)
    235e:	f3c0 03c1 	ubfx	r3, r0, #3, #2
    2362:	2b02      	cmp	r3, #2
    2364:	d015      	beq.n	2392 <GPIO_SetPin+0x46>
    2366:	2b03      	cmp	r3, #3
    2368:	d01b      	beq.n	23a2 <GPIO_SetPin+0x56>
    236a:	2b01      	cmp	r3, #1
    236c:	bf0c      	ite	eq
    236e:	250c      	moveq	r5, #12
    2370:	2500      	movne	r5, #0
    2372:	f000 0207 	and.w	r2, r0, #7
    2376:	2301      	movs	r3, #1
    2378:	1928      	adds	r0, r5, r4
    237a:	fa03 f202 	lsl.w	r2, r3, r2
    237e:	b101      	cbz	r1, 2382 <GPIO_SetPin+0x36>
    2380:	4611      	mov	r1, r2
    2382:	bc30      	pop	{r4, r5}
    2384:	f7ff bc4e 	b.w	1c24 <Reg_Write32_Mask>
    2388:	f3c0 03c1 	ubfx	r3, r0, #3, #2
    238c:	4c07      	ldr	r4, [pc, #28]	; (23ac <GPIO_SetPin+0x60>)
    238e:	2b02      	cmp	r3, #2
    2390:	d1e9      	bne.n	2366 <GPIO_SetPin+0x1a>
    2392:	2518      	movs	r5, #24
    2394:	e7ed      	b.n	2372 <GPIO_SetPin+0x26>
    2396:	4c06      	ldr	r4, [pc, #24]	; (23b0 <GPIO_SetPin+0x64>)
    2398:	e7e1      	b.n	235e <GPIO_SetPin+0x12>
    239a:	4c06      	ldr	r4, [pc, #24]	; (23b4 <GPIO_SetPin+0x68>)
    239c:	e7df      	b.n	235e <GPIO_SetPin+0x12>
    239e:	bc30      	pop	{r4, r5}
    23a0:	4770      	bx	lr
    23a2:	2524      	movs	r5, #36	; 0x24
    23a4:	e7e5      	b.n	2372 <GPIO_SetPin+0x26>
    23a6:	bf00      	nop
    23a8:	40400000 	submi	r0, r0, r0
    23ac:	404c0000 	submi	r0, ip, r0
    23b0:	40480000 	submi	r0, r8, r0
    23b4:	40440000 	submi	r0, r4, r0

000023b8 <GPIO_Get>:
    23b8:	b510      	push	{r4, lr}
    23ba:	4604      	mov	r4, r0
    23bc:	f241 0010 	movw	r0, #4112	; 0x1010
    23c0:	f3c4 03c1 	ubfx	r3, r4, #3, #2
    23c4:	f3c4 1247 	ubfx	r2, r4, #5, #8
    23c8:	f004 0407 	and.w	r4, r4, #7
    23cc:	3314      	adds	r3, #20
    23ce:	4410      	add	r0, r2
    23d0:	009b      	lsls	r3, r3, #2
    23d2:	eb03 4080 	add.w	r0, r3, r0, lsl #18
    23d6:	f7ff fc21 	bl	1c1c <Reg_Read32>
    23da:	40e0      	lsrs	r0, r4
    23dc:	f000 0001 	and.w	r0, r0, #1
    23e0:	bd10      	pop	{r4, pc}
    23e2:	bf00      	nop

000023e4 <GPIO_GetPin>:
    23e4:	f7ff bfe8 	b.w	23b8 <GPIO_Get>

000023e8 <GPIO_SetPinDirect>:
    23e8:	b5f8      	push	{r3, r4, r5, r6, r7, lr}
    23ea:	f241 0210 	movw	r2, #4112	; 0x1010
    23ee:	f3c0 0ec1 	ubfx	lr, r0, #3, #2
    23f2:	2404      	movs	r4, #4
    23f4:	f3c0 1747 	ubfx	r7, r0, #5, #8
    23f8:	230c      	movs	r3, #12
    23fa:	460e      	mov	r6, r1
    23fc:	443a      	add	r2, r7
    23fe:	f000 0507 	and.w	r5, r0, #7
    2402:	fb13 430e 	smlabb	r3, r3, lr, r4
    2406:	eb03 4482 	add.w	r4, r3, r2, lsl #18
    240a:	4620      	mov	r0, r4
    240c:	f7ff fc06 	bl	1c1c <Reg_Read32>
    2410:	2e01      	cmp	r6, #1
    2412:	d009      	beq.n	2428 <GPIO_SetPinDirect+0x40>
    2414:	2101      	movs	r1, #1
    2416:	fa01 f505 	lsl.w	r5, r1, r5
    241a:	ea20 0105 	bic.w	r1, r0, r5
    241e:	4620      	mov	r0, r4
    2420:	e8bd 40f8 	ldmia.w	sp!, {r3, r4, r5, r6, r7, lr}
    2424:	f7ff bbfc 	b.w	1c20 <Reg_Write32>
    2428:	fa06 f105 	lsl.w	r1, r6, r5
    242c:	4301      	orrs	r1, r0
    242e:	4620      	mov	r0, r4
    2430:	e8bd 40f8 	ldmia.w	sp!, {r3, r4, r5, r6, r7, lr}
    2434:	f7ff bbf4 	b.w	1c20 <Reg_Write32>

00002438 <GPIO_SetPinCtrl>:
    2438:	b5f8      	push	{r3, r4, r5, r6, r7, lr}
    243a:	f241 0210 	movw	r2, #4112	; 0x1010
    243e:	2408      	movs	r4, #8
    2440:	f3c0 0ec1 	ubfx	lr, r0, #3, #2
    2444:	f3c0 1747 	ubfx	r7, r0, #5, #8
    2448:	230c      	movs	r3, #12
    244a:	460e      	mov	r6, r1
    244c:	443a      	add	r2, r7
    244e:	f000 0507 	and.w	r5, r0, #7
    2452:	fb13 430e 	smlabb	r3, r3, lr, r4
    2456:	eb03 4482 	add.w	r4, r3, r2, lsl #18
    245a:	4620      	mov	r0, r4
    245c:	f7ff fbde 	bl	1c1c <Reg_Read32>
    2460:	b13e      	cbz	r6, 2472 <GPIO_SetPinCtrl+0x3a>
    2462:	fa06 f105 	lsl.w	r1, r6, r5
    2466:	4301      	orrs	r1, r0
    2468:	4620      	mov	r0, r4
    246a:	e8bd 40f8 	ldmia.w	sp!, {r3, r4, r5, r6, r7, lr}
    246e:	f7ff bbd7 	b.w	1c20 <Reg_Write32>
    2472:	2101      	movs	r1, #1
    2474:	40a9      	lsls	r1, r5
    2476:	ea20 0101 	bic.w	r1, r0, r1
    247a:	4620      	mov	r0, r4
    247c:	e8bd 40f8 	ldmia.w	sp!, {r3, r4, r5, r6, r7, lr}
    2480:	f7ff bbce 	b.w	1c20 <Reg_Write32>

00002484 <GPIO_Intr_SetPinIntrEn>:
    2484:	f3c0 1347 	ubfx	r3, r0, #5, #8
    2488:	b570      	push	{r4, r5, r6, lr}
    248a:	049b      	lsls	r3, r3, #18
    248c:	4c0d      	ldr	r4, [pc, #52]	; (24c4 <GPIO_Intr_SetPinIntrEn+0x40>)
    248e:	460e      	mov	r6, r1
    2490:	f000 0507 	and.w	r5, r0, #7
    2494:	441c      	add	r4, r3
    2496:	4620      	mov	r0, r4
    2498:	f7ff fbc0 	bl	1c1c <Reg_Read32>
    249c:	2e01      	cmp	r6, #1
    249e:	d009      	beq.n	24b4 <GPIO_Intr_SetPinIntrEn+0x30>
    24a0:	2101      	movs	r1, #1
    24a2:	fa01 f505 	lsl.w	r5, r1, r5
    24a6:	ea20 0105 	bic.w	r1, r0, r5
    24aa:	4620      	mov	r0, r4
    24ac:	e8bd 4070 	ldmia.w	sp!, {r4, r5, r6, lr}
    24b0:	f7ff bbb6 	b.w	1c20 <Reg_Write32>
    24b4:	fa06 f105 	lsl.w	r1, r6, r5
    24b8:	4301      	orrs	r1, r0
    24ba:	4620      	mov	r0, r4
    24bc:	e8bd 4070 	ldmia.w	sp!, {r4, r5, r6, lr}
    24c0:	f7ff bbae 	b.w	1c20 <Reg_Write32>
    24c4:	40400030 	submi	r0, r0, r0, lsr r0

000024c8 <GPIO_Intr_SetPinIntrMask>:
    24c8:	f3c0 1347 	ubfx	r3, r0, #5, #8
    24cc:	b570      	push	{r4, r5, r6, lr}
    24ce:	049b      	lsls	r3, r3, #18
    24d0:	4c0c      	ldr	r4, [pc, #48]	; (2504 <GPIO_Intr_SetPinIntrMask+0x3c>)
    24d2:	460e      	mov	r6, r1
    24d4:	f000 0507 	and.w	r5, r0, #7
    24d8:	441c      	add	r4, r3
    24da:	4620      	mov	r0, r4
    24dc:	f7ff fb9e 	bl	1c1c <Reg_Read32>
    24e0:	b13e      	cbz	r6, 24f2 <GPIO_Intr_SetPinIntrMask+0x2a>
    24e2:	fa06 f105 	lsl.w	r1, r6, r5
    24e6:	4301      	orrs	r1, r0
    24e8:	4620      	mov	r0, r4
    24ea:	e8bd 4070 	ldmia.w	sp!, {r4, r5, r6, lr}
    24ee:	f7ff bb97 	b.w	1c20 <Reg_Write32>
    24f2:	2101      	movs	r1, #1
    24f4:	40a9      	lsls	r1, r5
    24f6:	ea20 0101 	bic.w	r1, r0, r1
    24fa:	4620      	mov	r0, r4
    24fc:	e8bd 4070 	ldmia.w	sp!, {r4, r5, r6, lr}
    2500:	f7ff bb8e 	b.w	1c20 <Reg_Write32>
    2504:	40400034 	submi	r0, r0, r4, lsr r0

00002508 <GPIO_Intr_SetPinIntrType>:
    2508:	f3c0 1347 	ubfx	r3, r0, #5, #8
    250c:	b570      	push	{r4, r5, r6, lr}
    250e:	049b      	lsls	r3, r3, #18
    2510:	4c0d      	ldr	r4, [pc, #52]	; (2548 <GPIO_Intr_SetPinIntrType+0x40>)
    2512:	460e      	mov	r6, r1
    2514:	f000 0507 	and.w	r5, r0, #7
    2518:	441c      	add	r4, r3
    251a:	4620      	mov	r0, r4
    251c:	f7ff fb7e 	bl	1c1c <Reg_Read32>
    2520:	2e01      	cmp	r6, #1
    2522:	d009      	beq.n	2538 <GPIO_Intr_SetPinIntrType+0x30>
    2524:	2101      	movs	r1, #1
    2526:	fa01 f505 	lsl.w	r5, r1, r5
    252a:	ea20 0105 	bic.w	r1, r0, r5
    252e:	4620      	mov	r0, r4
    2530:	e8bd 4070 	ldmia.w	sp!, {r4, r5, r6, lr}
    2534:	f7ff bb74 	b.w	1c20 <Reg_Write32>
    2538:	fa06 f105 	lsl.w	r1, r6, r5
    253c:	4301      	orrs	r1, r0
    253e:	4620      	mov	r0, r4
    2540:	e8bd 4070 	ldmia.w	sp!, {r4, r5, r6, lr}
    2544:	f7ff bb6c 	b.w	1c20 <Reg_Write32>
    2548:	40400038 	submi	r0, r0, r8, lsr r0

0000254c <GPIO_Intr_SetPinIntrPol>:
    254c:	f3c0 1347 	ubfx	r3, r0, #5, #8
    2550:	b570      	push	{r4, r5, r6, lr}
    2552:	049b      	lsls	r3, r3, #18
    2554:	4c0d      	ldr	r4, [pc, #52]	; (258c <GPIO_Intr_SetPinIntrPol+0x40>)
    2556:	460e      	mov	r6, r1
    2558:	f000 0507 	and.w	r5, r0, #7
    255c:	441c      	add	r4, r3
    255e:	4620      	mov	r0, r4
    2560:	f7ff fb5c 	bl	1c1c <Reg_Read32>
    2564:	2e01      	cmp	r6, #1
    2566:	d009      	beq.n	257c <GPIO_Intr_SetPinIntrPol+0x30>
    2568:	2101      	movs	r1, #1
    256a:	fa01 f505 	lsl.w	r5, r1, r5
    256e:	ea20 0105 	bic.w	r1, r0, r5
    2572:	4620      	mov	r0, r4
    2574:	e8bd 4070 	ldmia.w	sp!, {r4, r5, r6, lr}
    2578:	f7ff bb52 	b.w	1c20 <Reg_Write32>
    257c:	fa06 f105 	lsl.w	r1, r6, r5
    2580:	4301      	orrs	r1, r0
    2582:	4620      	mov	r0, r4
    2584:	e8bd 4070 	ldmia.w	sp!, {r4, r5, r6, lr}
    2588:	f7ff bb4a 	b.w	1c20 <Reg_Write32>
    258c:	4040003c 	submi	r0, r0, ip, lsr r0

00002590 <GPIO_Intr_GetIntrStatus>:
    2590:	b510      	push	{r4, lr}
    2592:	4604      	mov	r4, r0
    2594:	4806      	ldr	r0, [pc, #24]	; (25b0 <GPIO_Intr_GetIntrStatus+0x20>)
    2596:	f3c4 1347 	ubfx	r3, r4, #5, #8
    259a:	f004 0407 	and.w	r4, r4, #7
    259e:	049b      	lsls	r3, r3, #18
    25a0:	4418      	add	r0, r3
    25a2:	f7ff fb3b 	bl	1c1c <Reg_Read32>
    25a6:	40e0      	lsrs	r0, r4
    25a8:	f000 0001 	and.w	r0, r0, #1
    25ac:	bd10      	pop	{r4, pc}
    25ae:	bf00      	nop
    25b0:	40400040 	submi	r0, r0, r0, asr #32

000025b4 <GPIO_Intr_GetIntrGroupStatus>:
    25b4:	3832      	subs	r0, #50	; 0x32
    25b6:	2803      	cmp	r0, #3
    25b8:	d80f      	bhi.n	25da <GPIO_Intr_GetIntrGroupStatus+0x26>
    25ba:	e8df f000 	tbb	[pc, r0]
    25be:	080b0205 	stmdaeq	fp, {r0, r2, r9}
    25c2:	4807      	ldr	r0, [pc, #28]	; (25e0 <GPIO_Intr_GetIntrGroupStatus+0x2c>)
    25c4:	f7ff bb2a 	b.w	1c1c <Reg_Read32>
    25c8:	4806      	ldr	r0, [pc, #24]	; (25e4 <GPIO_Intr_GetIntrGroupStatus+0x30>)
    25ca:	f7ff bb27 	b.w	1c1c <Reg_Read32>
    25ce:	4806      	ldr	r0, [pc, #24]	; (25e8 <GPIO_Intr_GetIntrGroupStatus+0x34>)
    25d0:	f7ff bb24 	b.w	1c1c <Reg_Read32>
    25d4:	4805      	ldr	r0, [pc, #20]	; (25ec <GPIO_Intr_GetIntrGroupStatus+0x38>)
    25d6:	f7ff bb21 	b.w	1c1c <Reg_Read32>
    25da:	2000      	movs	r0, #0
    25dc:	4770      	bx	lr
    25de:	bf00      	nop
    25e0:	40440040 	submi	r0, r4, r0, asr #32
    25e4:	40400040 	submi	r0, r0, r0, asr #32
    25e8:	404c0040 	submi	r0, ip, r0, asr #32
    25ec:	40480040 	submi	r0, r8, r0, asr #32

000025f0 <GPIO_Intr_GetRawIntrStatus>:
    25f0:	b510      	push	{r4, lr}
    25f2:	4604      	mov	r4, r0
    25f4:	4806      	ldr	r0, [pc, #24]	; (2610 <GPIO_Intr_GetRawIntrStatus+0x20>)
    25f6:	f3c4 1347 	ubfx	r3, r4, #5, #8
    25fa:	f004 0407 	and.w	r4, r4, #7
    25fe:	049b      	lsls	r3, r3, #18
    2600:	4418      	add	r0, r3
    2602:	f7ff fb0b 	bl	1c1c <Reg_Read32>
    2606:	40e0      	lsrs	r0, r4
    2608:	f000 0001 	and.w	r0, r0, #1
    260c:	bd10      	pop	{r4, pc}
    260e:	bf00      	nop
    2610:	40400044 	submi	r0, r0, r4, asr #32

00002614 <GPIO_Intr_ClearIntr>:
    2614:	4603      	mov	r3, r0
    2616:	2101      	movs	r1, #1
    2618:	4804      	ldr	r0, [pc, #16]	; (262c <GPIO_Intr_ClearIntr+0x18>)
    261a:	f3c3 1247 	ubfx	r2, r3, #5, #8
    261e:	f003 0307 	and.w	r3, r3, #7
    2622:	0492      	lsls	r2, r2, #18
    2624:	4099      	lsls	r1, r3
    2626:	4410      	add	r0, r2
    2628:	f7ff bafa 	b.w	1c20 <Reg_Write32>
    262c:	4040004c 	submi	r0, r0, ip, asr #32

00002630 <GPIO_Intr_ClearIntrGroup>:
    2630:	3832      	subs	r0, #50	; 0x32
    2632:	2803      	cmp	r0, #3
    2634:	d80f      	bhi.n	2656 <GPIO_Intr_ClearIntrGroup+0x26>
    2636:	e8df f000 	tbb	[pc, r0]
    263a:	05080b02 	streq	r0, [r8, #-2818]	; 0xfffff4fe
    263e:	4806      	ldr	r0, [pc, #24]	; (2658 <GPIO_Intr_ClearIntrGroup+0x28>)
    2640:	f7ff baee 	b.w	1c20 <Reg_Write32>
    2644:	4805      	ldr	r0, [pc, #20]	; (265c <GPIO_Intr_ClearIntrGroup+0x2c>)
    2646:	f7ff baeb 	b.w	1c20 <Reg_Write32>
    264a:	4805      	ldr	r0, [pc, #20]	; (2660 <GPIO_Intr_ClearIntrGroup+0x30>)
    264c:	f7ff bae8 	b.w	1c20 <Reg_Write32>
    2650:	4804      	ldr	r0, [pc, #16]	; (2664 <GPIO_Intr_ClearIntrGroup+0x34>)
    2652:	f7ff bae5 	b.w	1c20 <Reg_Write32>
    2656:	4770      	bx	lr
    2658:	4040004c 	submi	r0, r0, ip, asr #32
    265c:	404c004c 	submi	r0, ip, ip, asr #32
    2660:	4048004c 	submi	r0, r8, ip, asr #32
    2664:	4044004c 	submi	r0, r4, ip, asr #32

00002668 <MPU_SRAMRegionConfigEnable>:
    2668:	b4f0      	push	{r4, r5, r6, r7}
    266a:	4b13      	ldr	r3, [pc, #76]	; (26b8 <MPU_SRAMRegionConfigEnable+0x50>)
    266c:	2600      	movs	r6, #0
    266e:	4813      	ldr	r0, [pc, #76]	; (26bc <MPU_SRAMRegionConfigEnable+0x54>)
    2670:	2501      	movs	r5, #1
    2672:	4a13      	ldr	r2, [pc, #76]	; (26c0 <MPU_SRAMRegionConfigEnable+0x58>)
    2674:	2702      	movs	r7, #2
    2676:	609e      	str	r6, [r3, #8]
    2678:	2103      	movs	r1, #3
    267a:	60d8      	str	r0, [r3, #12]
    267c:	2604      	movs	r6, #4
    267e:	611a      	str	r2, [r3, #16]
    2680:	3a02      	subs	r2, #2
    2682:	4c10      	ldr	r4, [pc, #64]	; (26c4 <MPU_SRAMRegionConfigEnable+0x5c>)
    2684:	2005      	movs	r0, #5
    2686:	609d      	str	r5, [r3, #8]
    2688:	60dc      	str	r4, [r3, #12]
    268a:	4d0f      	ldr	r5, [pc, #60]	; (26c8 <MPU_SRAMRegionConfigEnable+0x60>)
    268c:	611a      	str	r2, [r3, #16]
    268e:	4c0f      	ldr	r4, [pc, #60]	; (26cc <MPU_SRAMRegionConfigEnable+0x64>)
    2690:	4a0f      	ldr	r2, [pc, #60]	; (26d0 <MPU_SRAMRegionConfigEnable+0x68>)
    2692:	609f      	str	r7, [r3, #8]
    2694:	60dd      	str	r5, [r3, #12]
    2696:	4f0f      	ldr	r7, [pc, #60]	; (26d4 <MPU_SRAMRegionConfigEnable+0x6c>)
    2698:	611c      	str	r4, [r3, #16]
    269a:	4d0f      	ldr	r5, [pc, #60]	; (26d8 <MPU_SRAMRegionConfigEnable+0x70>)
    269c:	6099      	str	r1, [r3, #8]
    269e:	4c0f      	ldr	r4, [pc, #60]	; (26dc <MPU_SRAMRegionConfigEnable+0x74>)
    26a0:	60da      	str	r2, [r3, #12]
    26a2:	490f      	ldr	r1, [pc, #60]	; (26e0 <MPU_SRAMRegionConfigEnable+0x78>)
    26a4:	4a0f      	ldr	r2, [pc, #60]	; (26e4 <MPU_SRAMRegionConfigEnable+0x7c>)
    26a6:	611f      	str	r7, [r3, #16]
    26a8:	609e      	str	r6, [r3, #8]
    26aa:	60dd      	str	r5, [r3, #12]
    26ac:	611c      	str	r4, [r3, #16]
    26ae:	6098      	str	r0, [r3, #8]
    26b0:	60d9      	str	r1, [r3, #12]
    26b2:	611a      	str	r2, [r3, #16]
    26b4:	bcf0      	pop	{r4, r5, r6, r7}
    26b6:	4770      	bx	lr
    26b8:	e000ed90 	mul	r0, r0, sp
    26bc:	21000010 	tstcs	r0, r0, lsl r0
    26c0:	0308001d 	movweq	r0, #32797	; 0x801d
    26c4:	21008711 	tstcs	r0, r1, lsl r7
    26c8:	2100e012 	tstcs	r0, r2, lsl r0
    26cc:	03080019 	movweq	r0, #32793	; 0x8019
    26d0:	40600013 	rsbmi	r0, r0, r3, lsl r0
    26d4:	00080027 	andeq	r0, r8, r7, lsr #32
    26d8:	a0200014 	eorge	r0, r0, r4, lsl r0
    26dc:	0008001f 	andeq	r0, r8, pc, lsl r0
    26e0:	10000015 	andne	r0, r0, r5, lsl r0
    26e4:	0308002f 	movweq	r0, #32815	; 0x802f

000026e8 <MPU_QuadspiProtectEnable>:
    26e8:	b538      	push	{r3, r4, r5, lr}
    26ea:	4c0d      	ldr	r4, [pc, #52]	; (2720 <MPU_QuadspiProtectEnable+0x38>)
    26ec:	6823      	ldr	r3, [r4, #0]
    26ee:	b90b      	cbnz	r3, 26f4 <MPU_QuadspiProtectEnable+0xc>
    26f0:	2001      	movs	r0, #1
    26f2:	bd38      	pop	{r3, r4, r5, pc}
    26f4:	f3bf 8f5f 	dmb	sy
    26f8:	2500      	movs	r5, #0
    26fa:	6065      	str	r5, [r4, #4]
    26fc:	f7ff ffb4 	bl	2668 <MPU_SRAMRegionConfigEnable>
    2700:	2307      	movs	r3, #7
    2702:	2006      	movs	r0, #6
    2704:	4907      	ldr	r1, [pc, #28]	; (2724 <MPU_QuadspiProtectEnable+0x3c>)
    2706:	4a08      	ldr	r2, [pc, #32]	; (2728 <MPU_QuadspiProtectEnable+0x40>)
    2708:	60a0      	str	r0, [r4, #8]
    270a:	60e1      	str	r1, [r4, #12]
    270c:	6122      	str	r2, [r4, #16]
    270e:	60a3      	str	r3, [r4, #8]
    2710:	60e5      	str	r5, [r4, #12]
    2712:	6125      	str	r5, [r4, #16]
    2714:	6063      	str	r3, [r4, #4]
    2716:	f3bf 8f4f 	dsb	sy
    271a:	f3bf 8f6f 	isb	sy
    271e:	bd38      	pop	{r3, r4, r5, pc}
    2720:	e000ed90 	mul	r0, r0, sp
    2724:	40c00016 	sbcmi	r0, r0, r6, lsl r0
    2728:	06080011 			; <UNDEFINED> instruction: 0x06080011

0000272c <MPU_SetUp>:
    272c:	f7ff bfdc 	b.w	26e8 <MPU_QuadspiProtectEnable>

00002730 <MPU_QuadspiProtectDisable>:
    2730:	b538      	push	{r3, r4, r5, lr}
    2732:	4c0c      	ldr	r4, [pc, #48]	; (2764 <MPU_QuadspiProtectDisable+0x34>)
    2734:	6823      	ldr	r3, [r4, #0]
    2736:	b90b      	cbnz	r3, 273c <MPU_QuadspiProtectDisable+0xc>
    2738:	2001      	movs	r0, #1
    273a:	bd38      	pop	{r3, r4, r5, pc}
    273c:	f3bf 8f5f 	dmb	sy
    2740:	2500      	movs	r5, #0
    2742:	6065      	str	r5, [r4, #4]
    2744:	f7ff ff90 	bl	2668 <MPU_SRAMRegionConfigEnable>
    2748:	2307      	movs	r3, #7
    274a:	2206      	movs	r2, #6
    274c:	60a2      	str	r2, [r4, #8]
    274e:	60e5      	str	r5, [r4, #12]
    2750:	6125      	str	r5, [r4, #16]
    2752:	60a3      	str	r3, [r4, #8]
    2754:	60e5      	str	r5, [r4, #12]
    2756:	6125      	str	r5, [r4, #16]
    2758:	6063      	str	r3, [r4, #4]
    275a:	f3bf 8f4f 	dsb	sy
    275e:	f3bf 8f6f 	isb	sy
    2762:	bd38      	pop	{r3, r4, r5, pc}
    2764:	e000ed90 	mul	r0, r0, sp

00002768 <get_uart_clock_by_index>:
    2768:	b500      	push	{lr}
    276a:	2340      	movs	r3, #64	; 0x40
    276c:	b083      	sub	sp, #12
    276e:	f8ad 3006 	strh.w	r3, [sp, #6]
    2772:	280a      	cmp	r0, #10
    2774:	d81c      	bhi.n	27b0 <get_uart_clock_by_index+0x48>
    2776:	e8df f000 	tbb	[pc, r0]
    277a:	10101010 	andsne	r1, r0, r0, lsl r0
    277e:	10101010 	andsne	r1, r0, r0, lsl r0
    2782:	00060610 	andeq	r0, r6, r0, lsl r6
    2786:	f10d 0006 	add.w	r0, sp, #6
    278a:	2102      	movs	r1, #2
    278c:	f7ff fa9c 	bl	1cc8 <PLLCTRL_GetCoreClk>
    2790:	f8bd 0006 	ldrh.w	r0, [sp, #6]
    2794:	b003      	add	sp, #12
    2796:	f85d fb04 	ldr.w	pc, [sp], #4
    279a:	f10d 0006 	add.w	r0, sp, #6
    279e:	2100      	movs	r1, #0
    27a0:	f7ff fa92 	bl	1cc8 <PLLCTRL_GetCoreClk>
    27a4:	f8bd 0006 	ldrh.w	r0, [sp, #6]
    27a8:	0840      	lsrs	r0, r0, #1
    27aa:	b003      	add	sp, #12
    27ac:	f85d fb04 	ldr.w	pc, [sp], #4
    27b0:	2040      	movs	r0, #64	; 0x40
    27b2:	e7ef      	b.n	2794 <get_uart_clock_by_index+0x2c>

000027b4 <uart_init>:
    27b4:	280a      	cmp	r0, #10
    27b6:	d832      	bhi.n	281e <uart_init+0x6a>
    27b8:	b5f8      	push	{r3, r4, r5, r6, r7, lr}
    27ba:	4b20      	ldr	r3, [pc, #128]	; (283c <uart_init+0x88>)
    27bc:	f853 6020 	ldr.w	r6, [r3, r0, lsl #2]
    27c0:	2e00      	cmp	r6, #0
    27c2:	d037      	beq.n	2834 <uart_init+0x80>
    27c4:	2800      	cmp	r0, #0
    27c6:	d036      	beq.n	2836 <uart_init+0x82>
    27c8:	23c7      	movs	r3, #199	; 0xc7
    27ca:	60b3      	str	r3, [r6, #8]
    27cc:	2303      	movs	r3, #3
    27ce:	2700      	movs	r7, #0
    27d0:	460c      	mov	r4, r1
    27d2:	4605      	mov	r5, r0
    27d4:	6077      	str	r7, [r6, #4]
    27d6:	60f3      	str	r3, [r6, #12]
    27d8:	f7ff ffc6 	bl	2768 <get_uart_clock_by_index>
    27dc:	4a18      	ldr	r2, [pc, #96]	; (2840 <uart_init+0x8c>)
    27de:	0123      	lsls	r3, r4, #4
    27e0:	68f1      	ldr	r1, [r6, #12]
    27e2:	fb02 f000 	mul.w	r0, r2, r0
    27e6:	2d0a      	cmp	r5, #10
    27e8:	f041 0180 	orr.w	r1, r1, #128	; 0x80
    27ec:	fbb0 f3f3 	udiv	r3, r0, r3
    27f0:	f3c3 2207 	ubfx	r2, r3, #8, #8
    27f4:	b2db      	uxtb	r3, r3
    27f6:	60f1      	str	r1, [r6, #12]
    27f8:	6072      	str	r2, [r6, #4]
    27fa:	6033      	str	r3, [r6, #0]
    27fc:	68f3      	ldr	r3, [r6, #12]
    27fe:	f023 0380 	bic.w	r3, r3, #128	; 0x80
    2802:	60f3      	str	r3, [r6, #12]
    2804:	6873      	ldr	r3, [r6, #4]
    2806:	f043 0301 	orr.w	r3, r3, #1
    280a:	6073      	str	r3, [r6, #4]
    280c:	d008      	beq.n	2820 <uart_init+0x6c>
    280e:	eb05 0045 	add.w	r0, r5, r5, lsl #1
    2812:	4b0c      	ldr	r3, [pc, #48]	; (2844 <uart_init+0x90>)
    2814:	0080      	lsls	r0, r0, #2
    2816:	181a      	adds	r2, r3, r0
    2818:	8057      	strh	r7, [r2, #2]
    281a:	521f      	strh	r7, [r3, r0]
    281c:	bdf8      	pop	{r3, r4, r5, r6, r7, pc}
    281e:	4770      	bx	lr
    2820:	4c09      	ldr	r4, [pc, #36]	; (2848 <uart_init+0x94>)
    2822:	4639      	mov	r1, r7
    2824:	f44f 6280 	mov.w	r2, #1024	; 0x400
    2828:	4620      	mov	r0, r4
    282a:	f005 fa71 	bl	7d10 <memset>
    282e:	f104 0308 	add.w	r3, r4, #8
    2832:	6023      	str	r3, [r4, #0]
    2834:	bdf8      	pop	{r3, r4, r5, r6, r7, pc}
    2836:	2307      	movs	r3, #7
    2838:	60b3      	str	r3, [r6, #8]
    283a:	e7c7      	b.n	27cc <uart_init+0x18>
    283c:	0000d4d4 	ldrdeq	sp, [r0], -r4
    2840:	000f4240 	andeq	r4, pc, r0, asr #4
    2844:	200002bc 			; <UNDEFINED> instruction: 0x200002bc
    2848:	20003b5c 	andcs	r3, r0, ip, asr fp

0000284c <sbus_init>:
    284c:	280a      	cmp	r0, #10
    284e:	d830      	bhi.n	28b2 <sbus_init+0x66>
    2850:	4a1e      	ldr	r2, [pc, #120]	; (28cc <sbus_init+0x80>)
    2852:	b5f8      	push	{r3, r4, r5, r6, r7, lr}
    2854:	f852 4020 	ldr.w	r4, [r2, r0, lsl #2]
    2858:	2c00      	cmp	r4, #0
    285a:	d035      	beq.n	28c8 <sbus_init+0x7c>
    285c:	22c7      	movs	r2, #199	; 0xc7
    285e:	231f      	movs	r3, #31
    2860:	2700      	movs	r7, #0
    2862:	460d      	mov	r5, r1
    2864:	60a2      	str	r2, [r4, #8]
    2866:	4606      	mov	r6, r0
    2868:	6067      	str	r7, [r4, #4]
    286a:	60e3      	str	r3, [r4, #12]
    286c:	f7ff ff7c 	bl	2768 <get_uart_clock_by_index>
    2870:	4a17      	ldr	r2, [pc, #92]	; (28d0 <sbus_init+0x84>)
    2872:	012b      	lsls	r3, r5, #4
    2874:	68e1      	ldr	r1, [r4, #12]
    2876:	fb02 f000 	mul.w	r0, r2, r0
    287a:	2e0a      	cmp	r6, #10
    287c:	f041 0180 	orr.w	r1, r1, #128	; 0x80
    2880:	fbb0 f3f3 	udiv	r3, r0, r3
    2884:	f3c3 2207 	ubfx	r2, r3, #8, #8
    2888:	b2db      	uxtb	r3, r3
    288a:	60e1      	str	r1, [r4, #12]
    288c:	6062      	str	r2, [r4, #4]
    288e:	6023      	str	r3, [r4, #0]
    2890:	68e3      	ldr	r3, [r4, #12]
    2892:	f023 0380 	bic.w	r3, r3, #128	; 0x80
    2896:	60e3      	str	r3, [r4, #12]
    2898:	6863      	ldr	r3, [r4, #4]
    289a:	f043 0301 	orr.w	r3, r3, #1
    289e:	6063      	str	r3, [r4, #4]
    28a0:	d008      	beq.n	28b4 <sbus_init+0x68>
    28a2:	eb06 0046 	add.w	r0, r6, r6, lsl #1
    28a6:	4b0b      	ldr	r3, [pc, #44]	; (28d4 <sbus_init+0x88>)
    28a8:	0080      	lsls	r0, r0, #2
    28aa:	181a      	adds	r2, r3, r0
    28ac:	8057      	strh	r7, [r2, #2]
    28ae:	521f      	strh	r7, [r3, r0]
    28b0:	bdf8      	pop	{r3, r4, r5, r6, r7, pc}
    28b2:	4770      	bx	lr
    28b4:	4c08      	ldr	r4, [pc, #32]	; (28d8 <sbus_init+0x8c>)
    28b6:	4639      	mov	r1, r7
    28b8:	f44f 6280 	mov.w	r2, #1024	; 0x400
    28bc:	4620      	mov	r0, r4
    28be:	f005 fa27 	bl	7d10 <memset>
    28c2:	f104 0308 	add.w	r3, r4, #8
    28c6:	6023      	str	r3, [r4, #0]
    28c8:	bdf8      	pop	{r3, r4, r5, r6, r7, pc}
    28ca:	bf00      	nop
    28cc:	0000d4d4 	ldrdeq	sp, [r0], -r4
    28d0:	000f4240 	andeq	r4, pc, r0, asr #4
    28d4:	200002bc 			; <UNDEFINED> instruction: 0x200002bc
    28d8:	20003b5c 	andcs	r3, r0, ip, asr fp

000028dc <uart_checkoutFifoStatus>:
    28dc:	280a      	cmp	r0, #10
    28de:	d00d      	beq.n	28fc <uart_checkoutFifoStatus+0x20>
    28e0:	eb00 0040 	add.w	r0, r0, r0, lsl #1
    28e4:	4a0a      	ldr	r2, [pc, #40]	; (2910 <uart_checkoutFifoStatus+0x34>)
    28e6:	0080      	lsls	r0, r0, #2
    28e8:	5a13      	ldrh	r3, [r2, r0]
    28ea:	b29b      	uxth	r3, r3
    28ec:	b94b      	cbnz	r3, 2902 <uart_checkoutFifoStatus+0x26>
    28ee:	4410      	add	r0, r2
    28f0:	8840      	ldrh	r0, [r0, #2]
    28f2:	b280      	uxth	r0, r0
    28f4:	3000      	adds	r0, #0
    28f6:	bf18      	it	ne
    28f8:	2001      	movne	r0, #1
    28fa:	4770      	bx	lr
    28fc:	4b05      	ldr	r3, [pc, #20]	; (2914 <uart_checkoutFifoStatus+0x38>)
    28fe:	889a      	ldrh	r2, [r3, #4]
    2900:	b10a      	cbz	r2, 2906 <uart_checkoutFifoStatus+0x2a>
    2902:	2001      	movs	r0, #1
    2904:	4770      	bx	lr
    2906:	88d8      	ldrh	r0, [r3, #6]
    2908:	3000      	adds	r0, #0
    290a:	bf18      	it	ne
    290c:	2001      	movne	r0, #1
    290e:	4770      	bx	lr
    2910:	200002bc 			; <UNDEFINED> instruction: 0x200002bc
    2914:	20003b5c 	andcs	r3, r0, ip, asr fp

00002918 <Uart_WaitTillIdle>:
    2918:	b909      	cbnz	r1, 291e <Uart_WaitTillIdle+0x6>
    291a:	2000      	movs	r0, #0
    291c:	4770      	bx	lr
    291e:	e92d 41f0 	stmdb	sp!, {r4, r5, r6, r7, r8, lr}
    2922:	4605      	mov	r5, r0
    2924:	460c      	mov	r4, r1
    2926:	f000 fadb 	bl	2ee0 <SysTicks_GetTickCount>
    292a:	4b14      	ldr	r3, [pc, #80]	; (297c <Uart_WaitTillIdle+0x64>)
    292c:	eb05 0645 	add.w	r6, r5, r5, lsl #1
    2930:	4607      	mov	r7, r0
    2932:	f8df 804c 	ldr.w	r8, [pc, #76]	; 2980 <Uart_WaitTillIdle+0x68>
    2936:	eb03 0686 	add.w	r6, r3, r6, lsl #2
    293a:	e00d      	b.n	2958 <Uart_WaitTillIdle+0x40>
    293c:	8833      	ldrh	r3, [r6, #0]
    293e:	b29b      	uxth	r3, r3
    2940:	b913      	cbnz	r3, 2948 <Uart_WaitTillIdle+0x30>
    2942:	8873      	ldrh	r3, [r6, #2]
    2944:	b29b      	uxth	r3, r3
    2946:	b18b      	cbz	r3, 296c <Uart_WaitTillIdle+0x54>
    2948:	f000 faca 	bl	2ee0 <SysTicks_GetTickCount>
    294c:	4601      	mov	r1, r0
    294e:	4638      	mov	r0, r7
    2950:	f000 fb96 	bl	3080 <SysTicks_GetDiff>
    2954:	4284      	cmp	r4, r0
    2956:	d90c      	bls.n	2972 <Uart_WaitTillIdle+0x5a>
    2958:	2d0a      	cmp	r5, #10
    295a:	d1ef      	bne.n	293c <Uart_WaitTillIdle+0x24>
    295c:	f8b8 3004 	ldrh.w	r3, [r8, #4]
    2960:	2b00      	cmp	r3, #0
    2962:	d1f1      	bne.n	2948 <Uart_WaitTillIdle+0x30>
    2964:	f8b8 3006 	ldrh.w	r3, [r8, #6]
    2968:	2b00      	cmp	r3, #0
    296a:	d1ed      	bne.n	2948 <Uart_WaitTillIdle+0x30>
    296c:	2000      	movs	r0, #0
    296e:	e8bd 81f0 	ldmia.w	sp!, {r4, r5, r6, r7, r8, pc}
    2972:	f04f 30ff 	mov.w	r0, #4294967295
    2976:	e8bd 81f0 	ldmia.w	sp!, {r4, r5, r6, r7, r8, pc}
    297a:	bf00      	nop
    297c:	200002bc 			; <UNDEFINED> instruction: 0x200002bc
    2980:	20003b5c 	andcs	r3, r0, ip, asr fp

00002984 <uart_putFifo>:
    2984:	280a      	cmp	r0, #10
    2986:	e92d 41f0 	stmdb	sp!, {r4, r5, r6, r7, r8, lr}
    298a:	d910      	bls.n	29ae <uart_putFifo+0x2a>
    298c:	4604      	mov	r4, r0
    298e:	f004 fb63 	bl	7058 <dlog_get_output_level>
    2992:	2801      	cmp	r0, #1
    2994:	d909      	bls.n	29aa <uart_putFifo+0x26>
    2996:	f44f 71c6 	mov.w	r1, #396	; 0x18c
    299a:	4623      	mov	r3, r4
    299c:	4a58      	ldr	r2, [pc, #352]	; (2b00 <uart_putFifo+0x17c>)
    299e:	6809      	ldr	r1, [r1, #0]
    29a0:	4858      	ldr	r0, [pc, #352]	; (2b04 <uart_putFifo+0x180>)
    29a2:	e8bd 41f0 	ldmia.w	sp!, {r4, r5, r6, r7, r8, lr}
    29a6:	f005 ba69 	b.w	7e7c <iprintf>
    29aa:	e8bd 81f0 	ldmia.w	sp!, {r4, r5, r6, r7, r8, pc}
    29ae:	4b56      	ldr	r3, [pc, #344]	; (2b08 <uart_putFifo+0x184>)
    29b0:	f853 5020 	ldr.w	r5, [r3, r0, lsl #2]
    29b4:	2d00      	cmp	r5, #0
    29b6:	d0e9      	beq.n	298c <uart_putFifo+0x8>
    29b8:	280a      	cmp	r0, #10
    29ba:	d050      	beq.n	2a5e <uart_putFifo+0xda>
    29bc:	0046      	lsls	r6, r0, #1
    29be:	4953      	ldr	r1, [pc, #332]	; (2b0c <uart_putFifo+0x188>)
    29c0:	1834      	adds	r4, r6, r0
    29c2:	00a2      	lsls	r2, r4, #2
    29c4:	5a8b      	ldrh	r3, [r1, r2]
    29c6:	b29b      	uxth	r3, r3
    29c8:	2b10      	cmp	r3, #16
    29ca:	d918      	bls.n	29fe <uart_putFifo+0x7a>
    29cc:	4627      	mov	r7, r4
    29ce:	4411      	add	r1, r2
    29d0:	2300      	movs	r3, #0
    29d2:	6848      	ldr	r0, [r1, #4]
    29d4:	884a      	ldrh	r2, [r1, #2]
    29d6:	4c4d      	ldr	r4, [pc, #308]	; (2b0c <uart_putFifo+0x188>)
    29d8:	fa10 f282 	uxtah	r2, r0, r2
    29dc:	5cd2      	ldrb	r2, [r2, r3]
    29de:	3301      	adds	r3, #1
    29e0:	2b10      	cmp	r3, #16
    29e2:	602a      	str	r2, [r5, #0]
    29e4:	d1f5      	bne.n	29d2 <uart_putFifo+0x4e>
    29e6:	880b      	ldrh	r3, [r1, #0]
    29e8:	eb04 0487 	add.w	r4, r4, r7, lsl #2
    29ec:	3b10      	subs	r3, #16
    29ee:	b29b      	uxth	r3, r3
    29f0:	800b      	strh	r3, [r1, #0]
    29f2:	884b      	ldrh	r3, [r1, #2]
    29f4:	3310      	adds	r3, #16
    29f6:	b29b      	uxth	r3, r3
    29f8:	8063      	strh	r3, [r4, #2]
    29fa:	e8bd 81f0 	ldmia.w	sp!, {r4, r5, r6, r7, r8, pc}
    29fe:	5a8b      	ldrh	r3, [r1, r2]
    2a00:	b29b      	uxth	r3, r3
    2a02:	2b10      	cmp	r3, #16
    2a04:	d820      	bhi.n	2a48 <uart_putFifo+0xc4>
    2a06:	5a8b      	ldrh	r3, [r1, r2]
    2a08:	b29b      	uxth	r3, r3
    2a0a:	b1eb      	cbz	r3, 2a48 <uart_putFifo+0xc4>
    2a0c:	5a8b      	ldrh	r3, [r1, r2]
    2a0e:	b29b      	uxth	r3, r3
    2a10:	b173      	cbz	r3, 2a30 <uart_putFifo+0xac>
    2a12:	440a      	add	r2, r1
    2a14:	2300      	movs	r3, #0
    2a16:	f8d2 e004 	ldr.w	lr, [r2, #4]
    2a1a:	1c5f      	adds	r7, r3, #1
    2a1c:	8854      	ldrh	r4, [r2, #2]
    2a1e:	fa1e f484 	uxtah	r4, lr, r4
    2a22:	5ce4      	ldrb	r4, [r4, r3]
    2a24:	b2fb      	uxtb	r3, r7
    2a26:	602c      	str	r4, [r5, #0]
    2a28:	8814      	ldrh	r4, [r2, #0]
    2a2a:	b2a4      	uxth	r4, r4
    2a2c:	42a3      	cmp	r3, r4
    2a2e:	d3f2      	bcc.n	2a16 <uart_putFifo+0x92>
    2a30:	4430      	add	r0, r6
    2a32:	2400      	movs	r4, #0
    2a34:	0080      	lsls	r0, r0, #2
    2a36:	180a      	adds	r2, r1, r0
    2a38:	5a0b      	ldrh	r3, [r1, r0]
    2a3a:	8855      	ldrh	r5, [r2, #2]
    2a3c:	442b      	add	r3, r5
    2a3e:	b29b      	uxth	r3, r3
    2a40:	8053      	strh	r3, [r2, #2]
    2a42:	520c      	strh	r4, [r1, r0]
    2a44:	e8bd 81f0 	ldmia.w	sp!, {r4, r5, r6, r7, r8, pc}
    2a48:	4430      	add	r0, r6
    2a4a:	2300      	movs	r3, #0
    2a4c:	eb01 0180 	add.w	r1, r1, r0, lsl #2
    2a50:	804b      	strh	r3, [r1, #2]
    2a52:	686b      	ldr	r3, [r5, #4]
    2a54:	f023 0302 	bic.w	r3, r3, #2
    2a58:	606b      	str	r3, [r5, #4]
    2a5a:	e8bd 81f0 	ldmia.w	sp!, {r4, r5, r6, r7, r8, pc}
    2a5e:	4a2c      	ldr	r2, [pc, #176]	; (2b10 <uart_putFifo+0x18c>)
    2a60:	8893      	ldrh	r3, [r2, #4]
    2a62:	2b10      	cmp	r3, #16
    2a64:	d91a      	bls.n	2a9c <uart_putFifo+0x118>
    2a66:	f502 6480 	add.w	r4, r2, #1024	; 0x400
    2a6a:	2310      	movs	r3, #16
    2a6c:	4617      	mov	r7, r2
    2a6e:	f102 0608 	add.w	r6, r2, #8
    2a72:	6811      	ldr	r1, [r2, #0]
    2a74:	3b01      	subs	r3, #1
    2a76:	1c48      	adds	r0, r1, #1
    2a78:	6010      	str	r0, [r2, #0]
    2a7a:	7809      	ldrb	r1, [r1, #0]
    2a7c:	6029      	str	r1, [r5, #0]
    2a7e:	6811      	ldr	r1, [r2, #0]
    2a80:	42a1      	cmp	r1, r4
    2a82:	d300      	bcc.n	2a86 <uart_putFifo+0x102>
    2a84:	603e      	str	r6, [r7, #0]
    2a86:	f013 03ff 	ands.w	r3, r3, #255	; 0xff
    2a8a:	d1f2      	bne.n	2a72 <uart_putFifo+0xee>
    2a8c:	8893      	ldrh	r3, [r2, #4]
    2a8e:	3b10      	subs	r3, #16
    2a90:	8093      	strh	r3, [r2, #4]
    2a92:	88d3      	ldrh	r3, [r2, #6]
    2a94:	3310      	adds	r3, #16
    2a96:	80d3      	strh	r3, [r2, #6]
    2a98:	e8bd 81f0 	ldmia.w	sp!, {r4, r5, r6, r7, r8, pc}
    2a9c:	8893      	ldrh	r3, [r2, #4]
    2a9e:	2b10      	cmp	r3, #16
    2aa0:	d822      	bhi.n	2ae8 <uart_putFifo+0x164>
    2aa2:	8893      	ldrh	r3, [r2, #4]
    2aa4:	b303      	cbz	r3, 2ae8 <uart_putFifo+0x164>
    2aa6:	8893      	ldrh	r3, [r2, #4]
    2aa8:	b19b      	cbz	r3, 2ad2 <uart_putFifo+0x14e>
    2aaa:	f502 6480 	add.w	r4, r2, #1024	; 0x400
    2aae:	2300      	movs	r3, #0
    2ab0:	4617      	mov	r7, r2
    2ab2:	f102 0608 	add.w	r6, r2, #8
    2ab6:	6811      	ldr	r1, [r2, #0]
    2ab8:	3301      	adds	r3, #1
    2aba:	1c48      	adds	r0, r1, #1
    2abc:	b2db      	uxtb	r3, r3
    2abe:	6010      	str	r0, [r2, #0]
    2ac0:	7809      	ldrb	r1, [r1, #0]
    2ac2:	6029      	str	r1, [r5, #0]
    2ac4:	6811      	ldr	r1, [r2, #0]
    2ac6:	42a1      	cmp	r1, r4
    2ac8:	d300      	bcc.n	2acc <uart_putFifo+0x148>
    2aca:	603e      	str	r6, [r7, #0]
    2acc:	8891      	ldrh	r1, [r2, #4]
    2ace:	428b      	cmp	r3, r1
    2ad0:	d3f1      	bcc.n	2ab6 <uart_putFifo+0x132>
    2ad2:	8890      	ldrh	r0, [r2, #4]
    2ad4:	2100      	movs	r1, #0
    2ad6:	88d3      	ldrh	r3, [r2, #6]
    2ad8:	4403      	add	r3, r0
    2ada:	80d3      	strh	r3, [r2, #6]
    2adc:	7913      	ldrb	r3, [r2, #4]
    2ade:	7111      	strb	r1, [r2, #4]
    2ae0:	7953      	ldrb	r3, [r2, #5]
    2ae2:	7151      	strb	r1, [r2, #5]
    2ae4:	e8bd 81f0 	ldmia.w	sp!, {r4, r5, r6, r7, r8, pc}
    2ae8:	2300      	movs	r3, #0
    2aea:	7991      	ldrb	r1, [r2, #6]
    2aec:	7193      	strb	r3, [r2, #6]
    2aee:	79d1      	ldrb	r1, [r2, #7]
    2af0:	71d3      	strb	r3, [r2, #7]
    2af2:	686b      	ldr	r3, [r5, #4]
    2af4:	f023 0302 	bic.w	r3, r3, #2
    2af8:	606b      	str	r3, [r5, #4]
    2afa:	e8bd 81f0 	ldmia.w	sp!, {r4, r5, r6, r7, r8, pc}
    2afe:	bf00      	nop
    2b00:	0000d500 	andeq	sp, r0, r0, lsl #10
    2b04:	0000d538 	andeq	sp, r0, r8, lsr r5
    2b08:	0000d4d4 	ldrdeq	sp, [r0], -r4
    2b0c:	200002bc 			; <UNDEFINED> instruction: 0x200002bc
    2b10:	20003b5c 	andcs	r3, r0, ip, asr fp

00002b14 <uart_putc>:
    2b14:	280a      	cmp	r0, #10
    2b16:	b570      	push	{r4, r5, r6, lr}
    2b18:	d816      	bhi.n	2b48 <uart_putc+0x34>
    2b1a:	4a15      	ldr	r2, [pc, #84]	; (2b70 <uart_putc+0x5c>)
    2b1c:	4b15      	ldr	r3, [pc, #84]	; (2b74 <uart_putc+0x60>)
    2b1e:	f852 2020 	ldr.w	r2, [r2, r0, lsl #2]
    2b22:	f883 1084 	strb.w	r1, [r3, #132]	; 0x84
    2b26:	b192      	cbz	r2, 2b4e <uart_putc+0x3a>
    2b28:	eb00 0040 	add.w	r0, r0, r0, lsl #1
    2b2c:	f103 0484 	add.w	r4, r3, #132	; 0x84
    2b30:	2601      	movs	r6, #1
    2b32:	2500      	movs	r5, #0
    2b34:	0080      	lsls	r0, r0, #2
    2b36:	1819      	adds	r1, r3, r0
    2b38:	521e      	strh	r6, [r3, r0]
    2b3a:	804d      	strh	r5, [r1, #2]
    2b3c:	604c      	str	r4, [r1, #4]
    2b3e:	6853      	ldr	r3, [r2, #4]
    2b40:	f043 0302 	orr.w	r3, r3, #2
    2b44:	6053      	str	r3, [r2, #4]
    2b46:	bd70      	pop	{r4, r5, r6, pc}
    2b48:	4b0a      	ldr	r3, [pc, #40]	; (2b74 <uart_putc+0x60>)
    2b4a:	f883 1084 	strb.w	r1, [r3, #132]	; 0x84
    2b4e:	4604      	mov	r4, r0
    2b50:	f004 fa82 	bl	7058 <dlog_get_output_level>
    2b54:	2801      	cmp	r0, #1
    2b56:	d909      	bls.n	2b6c <uart_putc+0x58>
    2b58:	f44f 71c6 	mov.w	r1, #396	; 0x18c
    2b5c:	4623      	mov	r3, r4
    2b5e:	4a06      	ldr	r2, [pc, #24]	; (2b78 <uart_putc+0x64>)
    2b60:	6809      	ldr	r1, [r1, #0]
    2b62:	4806      	ldr	r0, [pc, #24]	; (2b7c <uart_putc+0x68>)
    2b64:	e8bd 4070 	ldmia.w	sp!, {r4, r5, r6, lr}
    2b68:	f005 b988 	b.w	7e7c <iprintf>
    2b6c:	bd70      	pop	{r4, r5, r6, pc}
    2b6e:	bf00      	nop
    2b70:	0000d4d4 	ldrdeq	sp, [r0], -r4
    2b74:	200002bc 			; <UNDEFINED> instruction: 0x200002bc
    2b78:	0000d510 	andeq	sp, r0, r0, lsl r5
    2b7c:	0000d538 	andeq	sp, r0, r8, lsr r5

00002b80 <uart_puts>:
    2b80:	280a      	cmp	r0, #10
    2b82:	b570      	push	{r4, r5, r6, lr}
    2b84:	4604      	mov	r4, r0
    2b86:	b082      	sub	sp, #8
    2b88:	460d      	mov	r5, r1
    2b8a:	d818      	bhi.n	2bbe <uart_puts+0x3e>
    2b8c:	4b19      	ldr	r3, [pc, #100]	; (2bf4 <uart_puts+0x74>)
    2b8e:	f853 6020 	ldr.w	r6, [r3, r0, lsl #2]
    2b92:	b10e      	cbz	r6, 2b98 <uart_puts+0x18>
    2b94:	780b      	ldrb	r3, [r1, #0]
    2b96:	b9cb      	cbnz	r3, 2bcc <uart_puts+0x4c>
    2b98:	f004 fa5e 	bl	7058 <dlog_get_output_level>
    2b9c:	2801      	cmp	r0, #1
    2b9e:	d90c      	bls.n	2bba <uart_puts+0x3a>
    2ba0:	4628      	mov	r0, r5
    2ba2:	f005 f9fb 	bl	7f9c <strlen>
    2ba6:	f44f 71c6 	mov.w	r1, #396	; 0x18c
    2baa:	4633      	mov	r3, r6
    2bac:	4a12      	ldr	r2, [pc, #72]	; (2bf8 <uart_puts+0x78>)
    2bae:	6809      	ldr	r1, [r1, #0]
    2bb0:	9001      	str	r0, [sp, #4]
    2bb2:	9400      	str	r4, [sp, #0]
    2bb4:	4811      	ldr	r0, [pc, #68]	; (2bfc <uart_puts+0x7c>)
    2bb6:	f005 f961 	bl	7e7c <iprintf>
    2bba:	b002      	add	sp, #8
    2bbc:	bd70      	pop	{r4, r5, r6, pc}
    2bbe:	f004 fa4b 	bl	7058 <dlog_get_output_level>
    2bc2:	2801      	cmp	r0, #1
    2bc4:	f04f 0600 	mov.w	r6, #0
    2bc8:	d8ea      	bhi.n	2ba0 <uart_puts+0x20>
    2bca:	e7f6      	b.n	2bba <uart_puts+0x3a>
    2bcc:	eb04 0444 	add.w	r4, r4, r4, lsl #1
    2bd0:	4608      	mov	r0, r1
    2bd2:	f005 f9e3 	bl	7f9c <strlen>
    2bd6:	4a0a      	ldr	r2, [pc, #40]	; (2c00 <uart_puts+0x80>)
    2bd8:	00a4      	lsls	r4, r4, #2
    2bda:	2100      	movs	r1, #0
    2bdc:	b280      	uxth	r0, r0
    2bde:	1913      	adds	r3, r2, r4
    2be0:	5310      	strh	r0, [r2, r4]
    2be2:	8059      	strh	r1, [r3, #2]
    2be4:	605d      	str	r5, [r3, #4]
    2be6:	6873      	ldr	r3, [r6, #4]
    2be8:	f043 0302 	orr.w	r3, r3, #2
    2bec:	6073      	str	r3, [r6, #4]
    2bee:	b002      	add	sp, #8
    2bf0:	bd70      	pop	{r4, r5, r6, pc}
    2bf2:	bf00      	nop
    2bf4:	0000d4d4 	ldrdeq	sp, [r0], -r4
    2bf8:	0000d51c 	andeq	sp, r0, ip, lsl r5
    2bfc:	0000d568 	andeq	sp, r0, r8, ror #10
    2c00:	200002bc 			; <UNDEFINED> instruction: 0x200002bc

00002c04 <uart_putdata>:
    2c04:	280a      	cmp	r0, #10
    2c06:	e92d 47f0 	stmdb	sp!, {r4, r5, r6, r7, r8, r9, sl, lr}
    2c0a:	4604      	mov	r4, r0
    2c0c:	d90d      	bls.n	2c2a <uart_putdata+0x26>
    2c0e:	f004 fa23 	bl	7058 <dlog_get_output_level>
    2c12:	2801      	cmp	r0, #1
    2c14:	d92d      	bls.n	2c72 <uart_putdata+0x6e>
    2c16:	f44f 71c6 	mov.w	r1, #396	; 0x18c
    2c1a:	4623      	mov	r3, r4
    2c1c:	4a33      	ldr	r2, [pc, #204]	; (2cec <uart_putdata+0xe8>)
    2c1e:	6809      	ldr	r1, [r1, #0]
    2c20:	4833      	ldr	r0, [pc, #204]	; (2cf0 <uart_putdata+0xec>)
    2c22:	e8bd 47f0 	ldmia.w	sp!, {r4, r5, r6, r7, r8, r9, sl, lr}
    2c26:	f005 b929 	b.w	7e7c <iprintf>
    2c2a:	f8df 80d4 	ldr.w	r8, [pc, #212]	; 2d00 <uart_putdata+0xfc>
    2c2e:	f858 7020 	ldr.w	r7, [r8, r0, lsl #2]
    2c32:	2f00      	cmp	r7, #0
    2c34:	d0eb      	beq.n	2c0e <uart_putdata+0xa>
    2c36:	fab2 f682 	clz	r6, r2
    2c3a:	4615      	mov	r5, r2
    2c3c:	0976      	lsrs	r6, r6, #5
    2c3e:	2e00      	cmp	r6, #0
    2c40:	d1e5      	bne.n	2c0e <uart_putdata+0xa>
    2c42:	280a      	cmp	r0, #10
    2c44:	d017      	beq.n	2c76 <uart_putdata+0x72>
    2c46:	eb00 0440 	add.w	r4, r0, r0, lsl #1
    2c4a:	4a2a      	ldr	r2, [pc, #168]	; (2cf4 <uart_putdata+0xf0>)
    2c4c:	462b      	mov	r3, r5
    2c4e:	00a4      	lsls	r4, r4, #2
    2c50:	eb02 0e04 	add.w	lr, r2, r4
    2c54:	f104 0008 	add.w	r0, r4, #8
    2c58:	5315      	strh	r5, [r2, r4]
    2c5a:	4402      	add	r2, r0
    2c5c:	f8ae 6002 	strh.w	r6, [lr, #2]
    2c60:	f10e 0004 	add.w	r0, lr, #4
    2c64:	f004 f9fe 	bl	7064 <COMMON_getNewBuffer>
    2c68:	bb90      	cbnz	r0, 2cd0 <uart_putdata+0xcc>
    2c6a:	687b      	ldr	r3, [r7, #4]
    2c6c:	f043 0302 	orr.w	r3, r3, #2
    2c70:	607b      	str	r3, [r7, #4]
    2c72:	e8bd 87f0 	ldmia.w	sp!, {r4, r5, r6, r7, r8, r9, sl, pc}
    2c76:	4c20      	ldr	r4, [pc, #128]	; (2cf8 <uart_putdata+0xf4>)
    2c78:	88a3      	ldrh	r3, [r4, #4]
    2c7a:	4413      	add	r3, r2
    2c7c:	f5b3 7f7e 	cmp.w	r3, #1016	; 0x3f8
    2c80:	daf7      	bge.n	2c72 <uart_putdata+0x6e>
    2c82:	6823      	ldr	r3, [r4, #0]
    2c84:	f504 6080 	add.w	r0, r4, #1024	; 0x400
    2c88:	88a6      	ldrh	r6, [r4, #4]
    2c8a:	4433      	add	r3, r6
    2c8c:	4413      	add	r3, r2
    2c8e:	4283      	cmp	r3, r0
    2c90:	d208      	bcs.n	2ca4 <uart_putdata+0xa0>
    2c92:	6823      	ldr	r3, [r4, #0]
    2c94:	88a0      	ldrh	r0, [r4, #4]
    2c96:	4418      	add	r0, r3
    2c98:	f005 f82f 	bl	7cfa <memcpy>
    2c9c:	88a3      	ldrh	r3, [r4, #4]
    2c9e:	441d      	add	r5, r3
    2ca0:	80a5      	strh	r5, [r4, #4]
    2ca2:	e7e2      	b.n	2c6a <uart_putdata+0x66>
    2ca4:	6826      	ldr	r6, [r4, #0]
    2ca6:	4689      	mov	r9, r1
    2ca8:	88a3      	ldrh	r3, [r4, #4]
    2caa:	6822      	ldr	r2, [r4, #0]
    2cac:	1ae3      	subs	r3, r4, r3
    2cae:	88a0      	ldrh	r0, [r4, #4]
    2cb0:	f503 6380 	add.w	r3, r3, #1024	; 0x400
    2cb4:	4410      	add	r0, r2
    2cb6:	1b9e      	subs	r6, r3, r6
    2cb8:	b2b6      	uxth	r6, r6
    2cba:	4632      	mov	r2, r6
    2cbc:	f005 f81d 	bl	7cfa <memcpy>
    2cc0:	eb09 0106 	add.w	r1, r9, r6
    2cc4:	1baa      	subs	r2, r5, r6
    2cc6:	f104 0008 	add.w	r0, r4, #8
    2cca:	f005 f816 	bl	7cfa <memcpy>
    2cce:	e7e5      	b.n	2c9c <uart_putdata+0x98>
    2cd0:	f004 f9c2 	bl	7058 <dlog_get_output_level>
    2cd4:	2801      	cmp	r0, #1
    2cd6:	d9c8      	bls.n	2c6a <uart_putdata+0x66>
    2cd8:	f44f 73c6 	mov.w	r3, #396	; 0x18c
    2cdc:	f108 0254 	add.w	r2, r8, #84	; 0x54
    2ce0:	4806      	ldr	r0, [pc, #24]	; (2cfc <uart_putdata+0xf8>)
    2ce2:	6819      	ldr	r1, [r3, #0]
    2ce4:	f005 f8ca 	bl	7e7c <iprintf>
    2ce8:	e7bf      	b.n	2c6a <uart_putdata+0x66>
    2cea:	bf00      	nop
    2cec:	0000d528 	andeq	sp, r0, r8, lsr #10
    2cf0:	0000d5ac 	andeq	sp, r0, ip, lsr #11
    2cf4:	200002bc 			; <UNDEFINED> instruction: 0x200002bc
    2cf8:	20003b5c 	andcs	r3, r0, ip, asr fp
    2cfc:	0000d5f4 	strdeq	sp, [r0], -r4
    2d00:	0000d4d4 	ldrdeq	sp, [r0], -r4

00002d04 <uart_getc>:
    2d04:	280a      	cmp	r0, #10
    2d06:	d809      	bhi.n	2d1c <uart_getc+0x18>
    2d08:	4b06      	ldr	r3, [pc, #24]	; (2d24 <uart_getc+0x20>)
    2d0a:	f853 2020 	ldr.w	r2, [r3, r0, lsl #2]
    2d0e:	b13a      	cbz	r2, 2d20 <uart_getc+0x1c>
    2d10:	6953      	ldr	r3, [r2, #20]
    2d12:	07db      	lsls	r3, r3, #31
    2d14:	d5fc      	bpl.n	2d10 <uart_getc+0xc>
    2d16:	6812      	ldr	r2, [r2, #0]
    2d18:	b2d0      	uxtb	r0, r2
    2d1a:	4770      	bx	lr
    2d1c:	2000      	movs	r0, #0
    2d1e:	4770      	bx	lr
    2d20:	4610      	mov	r0, r2
    2d22:	4770      	bx	lr
    2d24:	0000d4d4 	ldrdeq	sp, [r0], -r4

00002d28 <UART_IntrSrvc>:
    2d28:	283c      	cmp	r0, #60	; 0x3c
    2d2a:	b570      	push	{r4, r5, r6, lr}
    2d2c:	b086      	sub	sp, #24
    2d2e:	d007      	beq.n	2d40 <UART_IntrSrvc+0x18>
    2d30:	283e      	cmp	r0, #62	; 0x3e
    2d32:	d039      	beq.n	2da8 <UART_IntrSrvc+0x80>
    2d34:	b2c6      	uxtb	r6, r0
    2d36:	2e0a      	cmp	r6, #10
    2d38:	d939      	bls.n	2dae <UART_IntrSrvc+0x86>
    2d3a:	2300      	movs	r3, #0
    2d3c:	689b      	ldr	r3, [r3, #8]
    2d3e:	deff      	udf	#255	; 0xff
    2d40:	f04f 4120 	mov.w	r1, #2684354560	; 0xa0000000
    2d44:	2609      	movs	r6, #9
    2d46:	688c      	ldr	r4, [r1, #8]
    2d48:	f004 040f 	and.w	r4, r4, #15
    2d4c:	2c04      	cmp	r4, #4
    2d4e:	d005      	beq.n	2d5c <UART_IntrSrvc+0x34>
    2d50:	2c0c      	cmp	r4, #12
    2d52:	d01d      	beq.n	2d90 <UART_IntrSrvc+0x68>
    2d54:	2c02      	cmp	r4, #2
    2d56:	d016      	beq.n	2d86 <UART_IntrSrvc+0x5e>
    2d58:	b006      	add	sp, #24
    2d5a:	bd70      	pop	{r4, r5, r6, pc}
    2d5c:	f10d 0303 	add.w	r3, sp, #3
    2d60:	f10d 0511 	add.w	r5, sp, #17
    2d64:	680a      	ldr	r2, [r1, #0]
    2d66:	f803 2f01 	strb.w	r2, [r3, #1]!
    2d6a:	429d      	cmp	r5, r3
    2d6c:	d1fa      	bne.n	2d64 <UART_IntrSrvc+0x3c>
    2d6e:	4b12      	ldr	r3, [pc, #72]	; (2db8 <UART_IntrSrvc+0x90>)
    2d70:	eb03 0386 	add.w	r3, r3, r6, lsl #2
    2d74:	f8d3 3088 	ldr.w	r3, [r3, #136]	; 0x88
    2d78:	2b00      	cmp	r3, #0
    2d7a:	d0ed      	beq.n	2d58 <UART_IntrSrvc+0x30>
    2d7c:	210e      	movs	r1, #14
    2d7e:	a801      	add	r0, sp, #4
    2d80:	4798      	blx	r3
    2d82:	2c02      	cmp	r4, #2
    2d84:	d1e8      	bne.n	2d58 <UART_IntrSrvc+0x30>
    2d86:	4630      	mov	r0, r6
    2d88:	f7ff fdfc 	bl	2984 <uart_putFifo>
    2d8c:	b006      	add	sp, #24
    2d8e:	bd70      	pop	{r4, r5, r6, pc}
    2d90:	4b09      	ldr	r3, [pc, #36]	; (2db8 <UART_IntrSrvc+0x90>)
    2d92:	680a      	ldr	r2, [r1, #0]
    2d94:	eb03 0386 	add.w	r3, r3, r6, lsl #2
    2d98:	f88d 2004 	strb.w	r2, [sp, #4]
    2d9c:	f8d3 3088 	ldr.w	r3, [r3, #136]	; 0x88
    2da0:	2b00      	cmp	r3, #0
    2da2:	d0d9      	beq.n	2d58 <UART_IntrSrvc+0x30>
    2da4:	2101      	movs	r1, #1
    2da6:	e7ea      	b.n	2d7e <UART_IntrSrvc+0x56>
    2da8:	4904      	ldr	r1, [pc, #16]	; (2dbc <UART_IntrSrvc+0x94>)
    2daa:	260a      	movs	r6, #10
    2dac:	e7cb      	b.n	2d46 <UART_IntrSrvc+0x1e>
    2dae:	4b04      	ldr	r3, [pc, #16]	; (2dc0 <UART_IntrSrvc+0x98>)
    2db0:	f853 1026 	ldr.w	r1, [r3, r6, lsl #2]
    2db4:	e7c7      	b.n	2d46 <UART_IntrSrvc+0x1e>
    2db6:	bf00      	nop
    2db8:	200002bc 			; <UNDEFINED> instruction: 0x200002bc
    2dbc:	a0060000 	andge	r0, r6, r0
    2dc0:	0000d4d4 	ldrdeq	sp, [r0], -r4

00002dc4 <UART_RegisterUserRxHandler>:
    2dc4:	280a      	cmp	r0, #10
    2dc6:	d807      	bhi.n	2dd8 <UART_RegisterUserRxHandler+0x14>
    2dc8:	4b05      	ldr	r3, [pc, #20]	; (2de0 <UART_RegisterUserRxHandler+0x1c>)
    2dca:	2200      	movs	r2, #0
    2dcc:	eb03 0380 	add.w	r3, r3, r0, lsl #2
    2dd0:	f8c3 1088 	str.w	r1, [r3, #136]	; 0x88
    2dd4:	4610      	mov	r0, r2
    2dd6:	4770      	bx	lr
    2dd8:	f04f 32ff 	mov.w	r2, #4294967295
    2ddc:	e7fa      	b.n	2dd4 <UART_RegisterUserRxHandler+0x10>
    2dde:	bf00      	nop
    2de0:	200002bc 			; <UNDEFINED> instruction: 0x200002bc

00002de4 <UART_UnRegisterUserRxHandler>:
    2de4:	280a      	cmp	r0, #10
    2de6:	d807      	bhi.n	2df8 <UART_UnRegisterUserRxHandler+0x14>
    2de8:	4b05      	ldr	r3, [pc, #20]	; (2e00 <UART_UnRegisterUserRxHandler+0x1c>)
    2dea:	2200      	movs	r2, #0
    2dec:	eb03 0380 	add.w	r3, r3, r0, lsl #2
    2df0:	4610      	mov	r0, r2
    2df2:	f8c3 2088 	str.w	r2, [r3, #136]	; 0x88
    2df6:	4770      	bx	lr
    2df8:	f04f 30ff 	mov.w	r0, #4294967295
    2dfc:	4770      	bx	lr
    2dfe:	bf00      	nop
    2e00:	200002bc 			; <UNDEFINED> instruction: 0x200002bc

00002e04 <cf_uart_init>:
    2e04:	f44f 31e1 	mov.w	r1, #115200	; 0x1c200
    2e08:	2003      	movs	r0, #3
    2e0a:	f7ff bcd3 	b.w	27b4 <uart_init>
    2e0e:	bf00      	nop

00002e10 <cf_uart_putc>:
    2e10:	4803      	ldr	r0, [pc, #12]	; (2e20 <cf_uart_putc+0x10>)
    2e12:	6943      	ldr	r3, [r0, #20]
    2e14:	4a02      	ldr	r2, [pc, #8]	; (2e20 <cf_uart_putc+0x10>)
    2e16:	069b      	lsls	r3, r3, #26
    2e18:	d5fb      	bpl.n	2e12 <cf_uart_putc+0x2>
    2e1a:	6011      	str	r1, [r2, #0]
    2e1c:	4770      	bx	lr
    2e1e:	bf00      	nop
    2e20:	40530000 	subsmi	r0, r3, r0

00002e24 <cf_uart_puts>:
    2e24:	7808      	ldrb	r0, [r1, #0]
    2e26:	b160      	cbz	r0, 2e42 <cf_uart_puts+0x1e>
    2e28:	4a06      	ldr	r2, [pc, #24]	; (2e44 <cf_uart_puts+0x20>)
    2e2a:	b410      	push	{r4}
    2e2c:	4614      	mov	r4, r2
    2e2e:	6953      	ldr	r3, [r2, #20]
    2e30:	069b      	lsls	r3, r3, #26
    2e32:	d5fc      	bpl.n	2e2e <cf_uart_puts+0xa>
    2e34:	6020      	str	r0, [r4, #0]
    2e36:	f811 0f01 	ldrb.w	r0, [r1, #1]!
    2e3a:	2800      	cmp	r0, #0
    2e3c:	d1f7      	bne.n	2e2e <cf_uart_puts+0xa>
    2e3e:	f85d 4b04 	ldr.w	r4, [sp], #4
    2e42:	4770      	bx	lr
    2e44:	40530000 	subsmi	r0, r3, r0

00002e48 <ar_log>:
    2e48:	b40f      	push	{r0, r1, r2, r3}
    2e4a:	b530      	push	{r4, r5, lr}
    2e4c:	f2ad 4d0c 	subw	sp, sp, #1036	; 0x40c
    2e50:	f50d 6383 	add.w	r3, sp, #1048	; 0x418
    2e54:	a802      	add	r0, sp, #8
    2e56:	f853 1b04 	ldr.w	r1, [r3], #4
    2e5a:	461a      	mov	r2, r3
    2e5c:	9301      	str	r3, [sp, #4]
    2e5e:	f005 f945 	bl	80ec <vsiprintf>
    2e62:	f89d 1008 	ldrb.w	r1, [sp, #8]
    2e66:	b151      	cbz	r1, 2e7e <ar_log+0x36>
    2e68:	4a08      	ldr	r2, [pc, #32]	; (2e8c <ar_log+0x44>)
    2e6a:	ac02      	add	r4, sp, #8
    2e6c:	4615      	mov	r5, r2
    2e6e:	6953      	ldr	r3, [r2, #20]
    2e70:	069b      	lsls	r3, r3, #26
    2e72:	d5fc      	bpl.n	2e6e <ar_log+0x26>
    2e74:	6029      	str	r1, [r5, #0]
    2e76:	f814 1f01 	ldrb.w	r1, [r4, #1]!
    2e7a:	2900      	cmp	r1, #0
    2e7c:	d1f7      	bne.n	2e6e <ar_log+0x26>
    2e7e:	f20d 4d0c 	addw	sp, sp, #1036	; 0x40c
    2e82:	e8bd 4030 	ldmia.w	sp!, {r4, r5, lr}
    2e86:	b004      	add	sp, #16
    2e88:	4770      	bx	lr
    2e8a:	bf00      	nop
    2e8c:	40530000 	subsmi	r0, r3, r0

00002e90 <SysTicks_Init>:
    2e90:	1e43      	subs	r3, r0, #1
    2e92:	f1b3 7f80 	cmp.w	r3, #16777216	; 0x1000000
    2e96:	d20b      	bcs.n	2eb0 <SysTicks_Init+0x20>
    2e98:	4a06      	ldr	r2, [pc, #24]	; (2eb4 <SysTicks_Init+0x24>)
    2e9a:	2100      	movs	r1, #0
    2e9c:	b430      	push	{r4, r5}
    2e9e:	2507      	movs	r5, #7
    2ea0:	4c05      	ldr	r4, [pc, #20]	; (2eb8 <SysTicks_Init+0x28>)
    2ea2:	6053      	str	r3, [r2, #4]
    2ea4:	4608      	mov	r0, r1
    2ea6:	6091      	str	r1, [r2, #8]
    2ea8:	6015      	str	r5, [r2, #0]
    2eaa:	6023      	str	r3, [r4, #0]
    2eac:	bc30      	pop	{r4, r5}
    2eae:	4770      	bx	lr
    2eb0:	2001      	movs	r0, #1
    2eb2:	4770      	bx	lr
    2eb4:	e000e010 	and	lr, r0, r0, lsl r0
    2eb8:	20000370 	andcs	r0, r0, r0, ror r3

00002ebc <SysTicks_UnInit>:
    2ebc:	4a03      	ldr	r2, [pc, #12]	; (2ecc <SysTicks_UnInit+0x10>)
    2ebe:	2000      	movs	r0, #0
    2ec0:	6813      	ldr	r3, [r2, #0]
    2ec2:	f023 0307 	bic.w	r3, r3, #7
    2ec6:	6013      	str	r3, [r2, #0]
    2ec8:	4770      	bx	lr
    2eca:	bf00      	nop
    2ecc:	e000e010 	and	lr, r0, r0, lsl r0

00002ed0 <SysTicks_IncTickCount>:
    2ed0:	4a02      	ldr	r2, [pc, #8]	; (2edc <SysTicks_IncTickCount+0xc>)
    2ed2:	6853      	ldr	r3, [r2, #4]
    2ed4:	3301      	adds	r3, #1
    2ed6:	6053      	str	r3, [r2, #4]
    2ed8:	4770      	bx	lr
    2eda:	bf00      	nop
    2edc:	20000370 	andcs	r0, r0, r0, ror r3

00002ee0 <SysTicks_GetTickCount>:
    2ee0:	4b01      	ldr	r3, [pc, #4]	; (2ee8 <SysTicks_GetTickCount+0x8>)
    2ee2:	6858      	ldr	r0, [r3, #4]
    2ee4:	4770      	bx	lr
    2ee6:	bf00      	nop
    2ee8:	20000370 	andcs	r0, r0, r0, ror r3

00002eec <SysTicks_GetUsTickCount>:
    2eec:	e92d 43f0 	stmdb	sp!, {r4, r5, r6, r7, r8, r9, lr}
    2ef0:	4b2b      	ldr	r3, [pc, #172]	; (2fa0 <SysTicks_GetUsTickCount+0xb4>)
    2ef2:	b083      	sub	sp, #12
    2ef4:	4c2b      	ldr	r4, [pc, #172]	; (2fa4 <SysTicks_GetUsTickCount+0xb8>)
    2ef6:	2700      	movs	r7, #0
    2ef8:	689d      	ldr	r5, [r3, #8]
    2efa:	f04f 0900 	mov.w	r9, #0
    2efe:	6866      	ldr	r6, [r4, #4]
    2f00:	f000 f8fc 	bl	30fc <CPUINFO_GetLocalCpuId>
    2f04:	4601      	mov	r1, r0
    2f06:	f10d 0006 	add.w	r0, sp, #6
    2f0a:	f7fe fedd 	bl	1cc8 <PLLCTRL_GetCoreClk>
    2f0e:	46a8      	mov	r8, r5
    2f10:	e9d4 2302 	ldrd	r2, r3, [r4, #8]
    2f14:	e9d4 0104 	ldrd	r0, r1, [r4, #16]
    2f18:	429f      	cmp	r7, r3
    2f1a:	bf08      	it	eq
    2f1c:	4296      	cmpeq	r6, r2
    2f1e:	d22b      	bcs.n	2f78 <SysTicks_GetUsTickCount+0x8c>
    2f20:	4549      	cmp	r1, r9
    2f22:	bf08      	it	eq
    2f24:	42a8      	cmpeq	r0, r5
    2f26:	d204      	bcs.n	2f32 <SysTicks_GetUsTickCount+0x46>
    2f28:	3201      	adds	r2, #1
    2f2a:	f143 0300 	adc.w	r3, r3, #0
    2f2e:	e9c4 2302 	strd	r2, r3, [r4, #8]
    2f32:	ea4f 0e83 	mov.w	lr, r3, lsl #2
    2f36:	0090      	lsls	r0, r2, #2
    2f38:	ea4e 7192 	orr.w	r1, lr, r2, lsr #30
    2f3c:	0146      	lsls	r6, r0, #5
    2f3e:	014f      	lsls	r7, r1, #5
    2f40:	ea47 67d0 	orr.w	r7, r7, r0, lsr #27
    2f44:	1a30      	subs	r0, r6, r0
    2f46:	6826      	ldr	r6, [r4, #0]
    2f48:	eb67 0101 	sbc.w	r1, r7, r1
    2f4c:	1812      	adds	r2, r2, r0
    2f4e:	eba6 0505 	sub.w	r5, r6, r5
    2f52:	f8bd 0006 	ldrh.w	r0, [sp, #6]
    2f56:	414b      	adcs	r3, r1
    2f58:	00d6      	lsls	r6, r2, #3
    2f5a:	fbb5 f0f0 	udiv	r0, r5, r0
    2f5e:	00d9      	lsls	r1, r3, #3
    2f60:	e9c4 8904 	strd	r8, r9, [r4, #16]
    2f64:	ea41 7152 	orr.w	r1, r1, r2, lsr #29
    2f68:	1834      	adds	r4, r6, r0
    2f6a:	f141 0500 	adc.w	r5, r1, #0
    2f6e:	4620      	mov	r0, r4
    2f70:	4629      	mov	r1, r5
    2f72:	b003      	add	sp, #12
    2f74:	e8bd 83f0 	ldmia.w	sp!, {r4, r5, r6, r7, r8, r9, pc}
    2f78:	4549      	cmp	r1, r9
    2f7a:	bf08      	it	eq
    2f7c:	42a8      	cmpeq	r0, r5
    2f7e:	d203      	bcs.n	2f88 <SysTicks_GetUsTickCount+0x9c>
    2f80:	429f      	cmp	r7, r3
    2f82:	bf08      	it	eq
    2f84:	4296      	cmpeq	r6, r2
    2f86:	d004      	beq.n	2f92 <SysTicks_GetUsTickCount+0xa6>
    2f88:	4632      	mov	r2, r6
    2f8a:	463b      	mov	r3, r7
    2f8c:	e9c4 6702 	strd	r6, r7, [r4, #8]
    2f90:	e7cf      	b.n	2f32 <SysTicks_GetUsTickCount+0x46>
    2f92:	1c72      	adds	r2, r6, #1
    2f94:	f147 0300 	adc.w	r3, r7, #0
    2f98:	e9c4 2302 	strd	r2, r3, [r4, #8]
    2f9c:	e7c9      	b.n	2f32 <SysTicks_GetUsTickCount+0x46>
    2f9e:	bf00      	nop
    2fa0:	e000e010 	and	lr, r0, r0, lsl r0
    2fa4:	20000370 	andcs	r0, r0, r0, ror r3

00002fa8 <SysTicks_DelayMS>:
    2fa8:	b430      	push	{r4, r5}
    2faa:	4d09      	ldr	r5, [pc, #36]	; (2fd0 <SysTicks_DelayMS+0x28>)
    2fac:	6869      	ldr	r1, [r5, #4]
    2fae:	686b      	ldr	r3, [r5, #4]
    2fb0:	1e5a      	subs	r2, r3, #1
    2fb2:	4299      	cmp	r1, r3
    2fb4:	eba3 0401 	sub.w	r4, r3, r1
    2fb8:	eba2 0201 	sub.w	r2, r2, r1
    2fbc:	d803      	bhi.n	2fc6 <SysTicks_DelayMS+0x1e>
    2fbe:	42a0      	cmp	r0, r4
    2fc0:	d8f5      	bhi.n	2fae <SysTicks_DelayMS+0x6>
    2fc2:	bc30      	pop	{r4, r5}
    2fc4:	4770      	bx	lr
    2fc6:	4282      	cmp	r2, r0
    2fc8:	d3f1      	bcc.n	2fae <SysTicks_DelayMS+0x6>
    2fca:	bc30      	pop	{r4, r5}
    2fcc:	4770      	bx	lr
    2fce:	bf00      	nop
    2fd0:	20000370 	andcs	r0, r0, r0, ror r3

00002fd4 <SysTicks_DelayUS>:
    2fd4:	e92d 43f8 	stmdb	sp!, {r3, r4, r5, r6, r7, r8, r9, lr}
    2fd8:	4606      	mov	r6, r0
    2fda:	460f      	mov	r7, r1
    2fdc:	f7ff ff86 	bl	2eec <SysTicks_GetUsTickCount>
    2fe0:	4604      	mov	r4, r0
    2fe2:	460d      	mov	r5, r1
    2fe4:	ea6f 0800 	mvn.w	r8, r0
    2fe8:	ea6f 0901 	mvn.w	r9, r1
    2fec:	f7ff ff7e 	bl	2eec <SysTicks_GetUsTickCount>
    2ff0:	42a9      	cmp	r1, r5
    2ff2:	bf08      	it	eq
    2ff4:	42a0      	cmpeq	r0, r4
    2ff6:	d308      	bcc.n	300a <SysTicks_DelayUS+0x36>
    2ff8:	1b00      	subs	r0, r0, r4
    2ffa:	eb61 0105 	sbc.w	r1, r1, r5
    2ffe:	42b9      	cmp	r1, r7
    3000:	bf08      	it	eq
    3002:	42b0      	cmpeq	r0, r6
    3004:	d3f2      	bcc.n	2fec <SysTicks_DelayUS+0x18>
    3006:	e8bd 83f8 	ldmia.w	sp!, {r3, r4, r5, r6, r7, r8, r9, pc}
    300a:	eb10 0008 	adds.w	r0, r0, r8
    300e:	eb41 0109 	adc.w	r1, r1, r9
    3012:	42b9      	cmp	r1, r7
    3014:	bf08      	it	eq
    3016:	42b0      	cmpeq	r0, r6
    3018:	d3e8      	bcc.n	2fec <SysTicks_DelayUS+0x18>
    301a:	e8bd 83f8 	ldmia.w	sp!, {r3, r4, r5, r6, r7, r8, r9, pc}
    301e:	bf00      	nop

00003020 <msleep>:
    3020:	b430      	push	{r4, r5}
    3022:	4d09      	ldr	r5, [pc, #36]	; (3048 <msleep+0x28>)
    3024:	6869      	ldr	r1, [r5, #4]
    3026:	686b      	ldr	r3, [r5, #4]
    3028:	1e5a      	subs	r2, r3, #1
    302a:	4299      	cmp	r1, r3
    302c:	eba3 0401 	sub.w	r4, r3, r1
    3030:	eba2 0201 	sub.w	r2, r2, r1
    3034:	d803      	bhi.n	303e <msleep+0x1e>
    3036:	42a0      	cmp	r0, r4
    3038:	d8f5      	bhi.n	3026 <msleep+0x6>
    303a:	bc30      	pop	{r4, r5}
    303c:	4770      	bx	lr
    303e:	4290      	cmp	r0, r2
    3040:	d8f1      	bhi.n	3026 <msleep+0x6>
    3042:	bc30      	pop	{r4, r5}
    3044:	4770      	bx	lr
    3046:	bf00      	nop
    3048:	20000370 	andcs	r0, r0, r0, ror r3

0000304c <ssleep>:
    304c:	b430      	push	{r4, r5}
    304e:	f44f 737a 	mov.w	r3, #1000	; 0x3e8
    3052:	4d0a      	ldr	r5, [pc, #40]	; (307c <ssleep+0x30>)
    3054:	fb03 f000 	mul.w	r0, r3, r0
    3058:	6869      	ldr	r1, [r5, #4]
    305a:	686b      	ldr	r3, [r5, #4]
    305c:	1e5a      	subs	r2, r3, #1
    305e:	4299      	cmp	r1, r3
    3060:	eba3 0401 	sub.w	r4, r3, r1
    3064:	eba2 0201 	sub.w	r2, r2, r1
    3068:	d803      	bhi.n	3072 <ssleep+0x26>
    306a:	42a0      	cmp	r0, r4
    306c:	d8f5      	bhi.n	305a <ssleep+0xe>
    306e:	bc30      	pop	{r4, r5}
    3070:	4770      	bx	lr
    3072:	4290      	cmp	r0, r2
    3074:	d8f1      	bhi.n	305a <ssleep+0xe>
    3076:	bc30      	pop	{r4, r5}
    3078:	4770      	bx	lr
    307a:	bf00      	nop
    307c:	20000370 	andcs	r0, r0, r0, ror r3

00003080 <SysTicks_GetDiff>:
    3080:	4281      	cmp	r1, r0
    3082:	d202      	bcs.n	308a <SysTicks_GetDiff+0xa>
    3084:	1a09      	subs	r1, r1, r0
    3086:	1e48      	subs	r0, r1, #1
    3088:	4770      	bx	lr
    308a:	1a08      	subs	r0, r1, r0
    308c:	4770      	bx	lr
    308e:	bf00      	nop

00003090 <SysTicks_GetUsDiff>:
    3090:	428b      	cmp	r3, r1
    3092:	bf08      	it	eq
    3094:	4282      	cmpeq	r2, r0
    3096:	d207      	bcs.n	30a8 <SysTicks_GetUsDiff+0x18>
    3098:	1a12      	subs	r2, r2, r0
    309a:	eb63 0301 	sbc.w	r3, r3, r1
    309e:	f112 30ff 	adds.w	r0, r2, #4294967295
    30a2:	f143 31ff 	adc.w	r1, r3, #4294967295
    30a6:	4770      	bx	lr
    30a8:	1a10      	subs	r0, r2, r0
    30aa:	eb63 0101 	sbc.w	r1, r3, r1
    30ae:	4770      	bx	lr

000030b0 <ar_osDelay>:
    30b0:	b430      	push	{r4, r5}
    30b2:	4d09      	ldr	r5, [pc, #36]	; (30d8 <ar_osDelay+0x28>)
    30b4:	6869      	ldr	r1, [r5, #4]
    30b6:	686b      	ldr	r3, [r5, #4]
    30b8:	1e5a      	subs	r2, r3, #1
    30ba:	4299      	cmp	r1, r3
    30bc:	eba3 0401 	sub.w	r4, r3, r1
    30c0:	eba2 0201 	sub.w	r2, r2, r1
    30c4:	d803      	bhi.n	30ce <ar_osDelay+0x1e>
    30c6:	42a0      	cmp	r0, r4
    30c8:	d8f5      	bhi.n	30b6 <ar_osDelay+0x6>
    30ca:	bc30      	pop	{r4, r5}
    30cc:	4770      	bx	lr
    30ce:	4290      	cmp	r0, r2
    30d0:	d8f1      	bhi.n	30b6 <ar_osDelay+0x6>
    30d2:	bc30      	pop	{r4, r5}
    30d4:	4770      	bx	lr
    30d6:	bf00      	nop
    30d8:	20000370 	andcs	r0, r0, r0, ror r3

000030dc <FPU_AccessEnable>:
    30dc:	f44f 0270 	mov.w	r2, #15728640	; 0xf00000
    30e0:	4801      	ldr	r0, [pc, #4]	; (30e8 <FPU_AccessEnable+0xc>)
    30e2:	4611      	mov	r1, r2
    30e4:	f7fe bd9e 	b.w	1c24 <Reg_Write32_Mask>
    30e8:	e000ed88 	and	lr, r0, r8, lsl #27

000030ec <FPU_AccessDisable>:
    30ec:	f44f 0270 	mov.w	r2, #15728640	; 0xf00000
    30f0:	2100      	movs	r1, #0
    30f2:	4801      	ldr	r0, [pc, #4]	; (30f8 <FPU_AccessDisable+0xc>)
    30f4:	f7fe bd96 	b.w	1c24 <Reg_Write32_Mask>
    30f8:	e000ed88 	and	lr, r0, r8, lsl #27

000030fc <CPUINFO_GetLocalCpuId>:
    30fc:	f44f 73c6 	mov.w	r3, #396	; 0x18c
    3100:	7818      	ldrb	r0, [r3, #0]
    3102:	4770      	bx	lr

00003104 <CPUINFO_ICacheEnable>:
    3104:	b998      	cbnz	r0, 312e <CPUINFO_ICacheEnable+0x2a>
    3106:	4b14      	ldr	r3, [pc, #80]	; (3158 <CPUINFO_ICacheEnable+0x54>)
    3108:	781a      	ldrb	r2, [r3, #0]
    310a:	b17a      	cbz	r2, 312c <CPUINFO_ICacheEnable+0x28>
    310c:	f3bf 8f4f 	dsb	sy
    3110:	f3bf 8f6f 	isb	sy
    3114:	4a11      	ldr	r2, [pc, #68]	; (315c <CPUINFO_ICacheEnable+0x58>)
    3116:	6951      	ldr	r1, [r2, #20]
    3118:	f421 3100 	bic.w	r1, r1, #131072	; 0x20000
    311c:	6151      	str	r1, [r2, #20]
    311e:	f8c2 0250 	str.w	r0, [r2, #592]	; 0x250
    3122:	f3bf 8f4f 	dsb	sy
    3126:	f3bf 8f6f 	isb	sy
    312a:	7018      	strb	r0, [r3, #0]
    312c:	4770      	bx	lr
    312e:	f3bf 8f4f 	dsb	sy
    3132:	f3bf 8f6f 	isb	sy
    3136:	4b09      	ldr	r3, [pc, #36]	; (315c <CPUINFO_ICacheEnable+0x58>)
    3138:	2200      	movs	r2, #0
    313a:	f8c3 2250 	str.w	r2, [r3, #592]	; 0x250
    313e:	695a      	ldr	r2, [r3, #20]
    3140:	f442 3200 	orr.w	r2, r2, #131072	; 0x20000
    3144:	615a      	str	r2, [r3, #20]
    3146:	f3bf 8f4f 	dsb	sy
    314a:	f3bf 8f6f 	isb	sy
    314e:	4b02      	ldr	r3, [pc, #8]	; (3158 <CPUINFO_ICacheEnable+0x54>)
    3150:	2201      	movs	r2, #1
    3152:	701a      	strb	r2, [r3, #0]
    3154:	4770      	bx	lr
    3156:	bf00      	nop
    3158:	20000388 	andcs	r0, r0, r8, lsl #7
    315c:	e000ed00 	and	lr, r0, r0, lsl #26

00003160 <CPUINFO_DCacheEnable>:
    3160:	b5f0      	push	{r4, r5, r6, r7, lr}
    3162:	bb90      	cbnz	r0, 31ca <CPUINFO_DCacheEnable+0x6a>
    3164:	f8df e0c8 	ldr.w	lr, [pc, #200]	; 3230 <CPUINFO_DCacheEnable+0xd0>
    3168:	f89e 3001 	ldrb.w	r3, [lr, #1]
    316c:	b903      	cbnz	r3, 3170 <CPUINFO_DCacheEnable+0x10>
    316e:	bdf0      	pop	{r4, r5, r6, r7, pc}
    3170:	4b2e      	ldr	r3, [pc, #184]	; (322c <CPUINFO_DCacheEnable+0xcc>)
    3172:	f8c3 0084 	str.w	r0, [r3, #132]	; 0x84
    3176:	f8d3 5080 	ldr.w	r5, [r3, #128]	; 0x80
    317a:	f3c5 07c9 	ubfx	r7, r5, #3, #10
    317e:	f005 0607 	and.w	r6, r5, #7
    3182:	f3c5 354e 	ubfx	r5, r5, #13, #15
    3186:	fab7 f087 	clz	r0, r7
    318a:	3604      	adds	r6, #4
    318c:	f000 001f 	and.w	r0, r0, #31
    3190:	f3bf 8f4f 	dsb	sy
    3194:	695a      	ldr	r2, [r3, #20]
    3196:	461c      	mov	r4, r3
    3198:	f422 3280 	bic.w	r2, r2, #65536	; 0x10000
    319c:	615a      	str	r2, [r3, #20]
    319e:	fa05 f106 	lsl.w	r1, r5, r6
    31a2:	463b      	mov	r3, r7
    31a4:	fa03 f200 	lsl.w	r2, r3, r0
    31a8:	3b01      	subs	r3, #1
    31aa:	430a      	orrs	r2, r1
    31ac:	f8c4 2274 	str.w	r2, [r4, #628]	; 0x274
    31b0:	1c5a      	adds	r2, r3, #1
    31b2:	d1f7      	bne.n	31a4 <CPUINFO_DCacheEnable+0x44>
    31b4:	f115 35ff 	adds.w	r5, r5, #4294967295
    31b8:	d2f1      	bcs.n	319e <CPUINFO_DCacheEnable+0x3e>
    31ba:	f3bf 8f4f 	dsb	sy
    31be:	f3bf 8f6f 	isb	sy
    31c2:	2300      	movs	r3, #0
    31c4:	f88e 3001 	strb.w	r3, [lr, #1]
    31c8:	bdf0      	pop	{r4, r5, r6, r7, pc}
    31ca:	4818      	ldr	r0, [pc, #96]	; (322c <CPUINFO_DCacheEnable+0xcc>)
    31cc:	2300      	movs	r3, #0
    31ce:	f8c0 3084 	str.w	r3, [r0, #132]	; 0x84
    31d2:	f8d0 6080 	ldr.w	r6, [r0, #128]	; 0x80
    31d6:	f3c6 0ec9 	ubfx	lr, r6, #3, #10
    31da:	f006 0707 	and.w	r7, r6, #7
    31de:	f3c6 364e 	ubfx	r6, r6, #13, #15
    31e2:	fabe f48e 	clz	r4, lr
    31e6:	3704      	adds	r7, #4
    31e8:	f004 041f 	and.w	r4, r4, #31
    31ec:	f3bf 8f4f 	dsb	sy
    31f0:	fa06 f107 	lsl.w	r1, r6, r7
    31f4:	4673      	mov	r3, lr
    31f6:	fa03 f204 	lsl.w	r2, r3, r4
    31fa:	3b01      	subs	r3, #1
    31fc:	4d0b      	ldr	r5, [pc, #44]	; (322c <CPUINFO_DCacheEnable+0xcc>)
    31fe:	430a      	orrs	r2, r1
    3200:	f8c0 2260 	str.w	r2, [r0, #608]	; 0x260
    3204:	1c5a      	adds	r2, r3, #1
    3206:	d1f6      	bne.n	31f6 <CPUINFO_DCacheEnable+0x96>
    3208:	f116 36ff 	adds.w	r6, r6, #4294967295
    320c:	d2f0      	bcs.n	31f0 <CPUINFO_DCacheEnable+0x90>
    320e:	f3bf 8f4f 	dsb	sy
    3212:	696b      	ldr	r3, [r5, #20]
    3214:	f443 3380 	orr.w	r3, r3, #65536	; 0x10000
    3218:	616b      	str	r3, [r5, #20]
    321a:	f3bf 8f4f 	dsb	sy
    321e:	f3bf 8f6f 	isb	sy
    3222:	4b03      	ldr	r3, [pc, #12]	; (3230 <CPUINFO_DCacheEnable+0xd0>)
    3224:	2201      	movs	r2, #1
    3226:	705a      	strb	r2, [r3, #1]
    3228:	bdf0      	pop	{r4, r5, r6, r7, pc}
    322a:	bf00      	nop
    322c:	e000ed00 	and	lr, r0, r0, lsl #26
    3230:	20000388 	andcs	r0, r0, r8, lsl #7

00003234 <CPUINFO_ICacheInvalidate>:
    3234:	f3bf 8f4f 	dsb	sy
    3238:	f3bf 8f6f 	isb	sy
    323c:	4b04      	ldr	r3, [pc, #16]	; (3250 <CPUINFO_ICacheInvalidate+0x1c>)
    323e:	2200      	movs	r2, #0
    3240:	f8c3 2250 	str.w	r2, [r3, #592]	; 0x250
    3244:	f3bf 8f4f 	dsb	sy
    3248:	f3bf 8f6f 	isb	sy
    324c:	4770      	bx	lr
    324e:	bf00      	nop
    3250:	e000ed00 	and	lr, r0, r0, lsl #26

00003254 <CPUINFO_DCacheInvalidate>:
    3254:	4813      	ldr	r0, [pc, #76]	; (32a4 <CPUINFO_DCacheInvalidate+0x50>)
    3256:	2300      	movs	r3, #0
    3258:	b4f0      	push	{r4, r5, r6, r7}
    325a:	f8c0 3084 	str.w	r3, [r0, #132]	; 0x84
    325e:	f8d0 5080 	ldr.w	r5, [r0, #128]	; 0x80
    3262:	f3c5 07c9 	ubfx	r7, r5, #3, #10
    3266:	f005 0607 	and.w	r6, r5, #7
    326a:	f3c5 354e 	ubfx	r5, r5, #13, #15
    326e:	fab7 f487 	clz	r4, r7
    3272:	3604      	adds	r6, #4
    3274:	f004 041f 	and.w	r4, r4, #31
    3278:	f3bf 8f4f 	dsb	sy
    327c:	fa05 f106 	lsl.w	r1, r5, r6
    3280:	463b      	mov	r3, r7
    3282:	fa03 f204 	lsl.w	r2, r3, r4
    3286:	3b01      	subs	r3, #1
    3288:	430a      	orrs	r2, r1
    328a:	f8c0 2260 	str.w	r2, [r0, #608]	; 0x260
    328e:	1c5a      	adds	r2, r3, #1
    3290:	d1f7      	bne.n	3282 <CPUINFO_DCacheInvalidate+0x2e>
    3292:	f115 35ff 	adds.w	r5, r5, #4294967295
    3296:	d2f1      	bcs.n	327c <CPUINFO_DCacheInvalidate+0x28>
    3298:	f3bf 8f4f 	dsb	sy
    329c:	f3bf 8f6f 	isb	sy
    32a0:	bcf0      	pop	{r4, r5, r6, r7}
    32a2:	4770      	bx	lr
    32a4:	e000ed00 	and	lr, r0, r0, lsl #26

000032a8 <CPUINFO_DCacheClean>:
    32a8:	4813      	ldr	r0, [pc, #76]	; (32f8 <CPUINFO_DCacheClean+0x50>)
    32aa:	2300      	movs	r3, #0
    32ac:	b4f0      	push	{r4, r5, r6, r7}
    32ae:	f8c0 3084 	str.w	r3, [r0, #132]	; 0x84
    32b2:	f8d0 5080 	ldr.w	r5, [r0, #128]	; 0x80
    32b6:	f3c5 07c9 	ubfx	r7, r5, #3, #10
    32ba:	f005 0607 	and.w	r6, r5, #7
    32be:	f3c5 354e 	ubfx	r5, r5, #13, #15
    32c2:	fab7 f487 	clz	r4, r7
    32c6:	3604      	adds	r6, #4
    32c8:	f004 041f 	and.w	r4, r4, #31
    32cc:	f3bf 8f4f 	dsb	sy
    32d0:	fa05 f106 	lsl.w	r1, r5, r6
    32d4:	463b      	mov	r3, r7
    32d6:	fa03 f204 	lsl.w	r2, r3, r4
    32da:	3b01      	subs	r3, #1
    32dc:	430a      	orrs	r2, r1
    32de:	f8c0 226c 	str.w	r2, [r0, #620]	; 0x26c
    32e2:	1c5a      	adds	r2, r3, #1
    32e4:	d1f7      	bne.n	32d6 <CPUINFO_DCacheClean+0x2e>
    32e6:	f115 35ff 	adds.w	r5, r5, #4294967295
    32ea:	d2f1      	bcs.n	32d0 <CPUINFO_DCacheClean+0x28>
    32ec:	f3bf 8f4f 	dsb	sy
    32f0:	f3bf 8f6f 	isb	sy
    32f4:	bcf0      	pop	{r4, r5, r6, r7}
    32f6:	4770      	bx	lr
    32f8:	e000ed00 	and	lr, r0, r0, lsl #26

000032fc <CPUINFO_DCacheCleanInvalidate>:
    32fc:	4813      	ldr	r0, [pc, #76]	; (334c <CPUINFO_DCacheCleanInvalidate+0x50>)
    32fe:	2300      	movs	r3, #0
    3300:	b4f0      	push	{r4, r5, r6, r7}
    3302:	f8c0 3084 	str.w	r3, [r0, #132]	; 0x84
    3306:	f8d0 5080 	ldr.w	r5, [r0, #128]	; 0x80
    330a:	f3c5 07c9 	ubfx	r7, r5, #3, #10
    330e:	f005 0607 	and.w	r6, r5, #7
    3312:	f3c5 354e 	ubfx	r5, r5, #13, #15
    3316:	fab7 f487 	clz	r4, r7
    331a:	3604      	adds	r6, #4
    331c:	f004 041f 	and.w	r4, r4, #31
    3320:	f3bf 8f4f 	dsb	sy
    3324:	fa05 f106 	lsl.w	r1, r5, r6
    3328:	463b      	mov	r3, r7
    332a:	fa03 f204 	lsl.w	r2, r3, r4
    332e:	3b01      	subs	r3, #1
    3330:	430a      	orrs	r2, r1
    3332:	f8c0 2274 	str.w	r2, [r0, #628]	; 0x274
    3336:	1c5a      	adds	r2, r3, #1
    3338:	d1f7      	bne.n	332a <CPUINFO_DCacheCleanInvalidate+0x2e>
    333a:	f115 35ff 	adds.w	r5, r5, #4294967295
    333e:	d2f1      	bcs.n	3324 <CPUINFO_DCacheCleanInvalidate+0x28>
    3340:	f3bf 8f4f 	dsb	sy
    3344:	f3bf 8f6f 	isb	sy
    3348:	bcf0      	pop	{r4, r5, r6, r7}
    334a:	4770      	bx	lr
    334c:	e000ed00 	and	lr, r0, r0, lsl #26

00003350 <CPUINFO_DCacheInvalidateByAddr>:
    3350:	f3bf 8f4f 	dsb	sy
    3354:	2900      	cmp	r1, #0
    3356:	dd06      	ble.n	3366 <CPUINFO_DCacheInvalidateByAddr+0x16>
    3358:	4b05      	ldr	r3, [pc, #20]	; (3370 <CPUINFO_DCacheInvalidateByAddr+0x20>)
    335a:	3920      	subs	r1, #32
    335c:	f8c3 025c 	str.w	r0, [r3, #604]	; 0x25c
    3360:	3020      	adds	r0, #32
    3362:	2900      	cmp	r1, #0
    3364:	dcf9      	bgt.n	335a <CPUINFO_DCacheInvalidateByAddr+0xa>
    3366:	f3bf 8f4f 	dsb	sy
    336a:	f3bf 8f6f 	isb	sy
    336e:	4770      	bx	lr
    3370:	e000ed00 	and	lr, r0, r0, lsl #26

00003374 <CPUINFO_DCacheCleanByAddr>:
    3374:	f3bf 8f4f 	dsb	sy
    3378:	2900      	cmp	r1, #0
    337a:	dd06      	ble.n	338a <CPUINFO_DCacheCleanByAddr+0x16>
    337c:	4b05      	ldr	r3, [pc, #20]	; (3394 <CPUINFO_DCacheCleanByAddr+0x20>)
    337e:	3920      	subs	r1, #32
    3380:	f8c3 0268 	str.w	r0, [r3, #616]	; 0x268
    3384:	3020      	adds	r0, #32
    3386:	2900      	cmp	r1, #0
    3388:	dcf9      	bgt.n	337e <CPUINFO_DCacheCleanByAddr+0xa>
    338a:	f3bf 8f4f 	dsb	sy
    338e:	f3bf 8f6f 	isb	sy
    3392:	4770      	bx	lr
    3394:	e000ed00 	and	lr, r0, r0, lsl #26

00003398 <CPUINFO_DCacheCleanInvalidateByAddr>:
    3398:	f3bf 8f4f 	dsb	sy
    339c:	2900      	cmp	r1, #0
    339e:	dd06      	ble.n	33ae <CPUINFO_DCacheCleanInvalidateByAddr+0x16>
    33a0:	4b05      	ldr	r3, [pc, #20]	; (33b8 <CPUINFO_DCacheCleanInvalidateByAddr+0x20>)
    33a2:	3920      	subs	r1, #32
    33a4:	f8c3 0270 	str.w	r0, [r3, #624]	; 0x270
    33a8:	3020      	adds	r0, #32
    33aa:	2900      	cmp	r1, #0
    33ac:	dcf9      	bgt.n	33a2 <CPUINFO_DCacheCleanInvalidateByAddr+0xa>
    33ae:	f3bf 8f4f 	dsb	sy
    33b2:	f3bf 8f6f 	isb	sy
    33b6:	4770      	bx	lr
    33b8:	e000ed00 	and	lr, r0, r0, lsl #26

000033bc <peripheralAddrConvert>:
    33bc:	f44f 73c6 	mov.w	r3, #396	; 0x18c
    33c0:	781b      	ldrb	r3, [r3, #0]
    33c2:	2b01      	cmp	r3, #1
    33c4:	d013      	beq.n	33ee <peripheralAddrConvert+0x32>
    33c6:	d31a      	bcc.n	33fe <peripheralAddrConvert+0x42>
    33c8:	2b02      	cmp	r3, #2
    33ca:	d10f      	bne.n	33ec <peripheralAddrConvert+0x30>
    33cc:	f020 5300 	bic.w	r3, r0, #536870912	; 0x20000000
    33d0:	f5b3 3f80 	cmp.w	r3, #65536	; 0x10000
    33d4:	d210      	bcs.n	33f8 <peripheralAddrConvert+0x3c>
    33d6:	f5b0 3f80 	cmp.w	r0, #65536	; 0x10000
    33da:	d331      	bcc.n	3440 <peripheralAddrConvert+0x84>
    33dc:	f100 4360 	add.w	r3, r0, #3758096384	; 0xe0000000
    33e0:	f5b3 3f80 	cmp.w	r3, #65536	; 0x10000
    33e4:	d222      	bcs.n	342c <peripheralAddrConvert+0x70>
    33e6:	4b18      	ldr	r3, [pc, #96]	; (3448 <peripheralAddrConvert+0x8c>)
    33e8:	4403      	add	r3, r0
    33ea:	e006      	b.n	33fa <peripheralAddrConvert+0x3e>
    33ec:	4770      	bx	lr
    33ee:	f020 5200 	bic.w	r2, r0, #536870912	; 0x20000000
    33f2:	4b16      	ldr	r3, [pc, #88]	; (344c <peripheralAddrConvert+0x90>)
    33f4:	429a      	cmp	r2, r3
    33f6:	d910      	bls.n	341a <peripheralAddrConvert+0x5e>
    33f8:	4603      	mov	r3, r0
    33fa:	4618      	mov	r0, r3
    33fc:	4770      	bx	lr
    33fe:	f020 5200 	bic.w	r2, r0, #536870912	; 0x20000000
    3402:	4b13      	ldr	r3, [pc, #76]	; (3450 <peripheralAddrConvert+0x94>)
    3404:	429a      	cmp	r2, r3
    3406:	d8f7      	bhi.n	33f8 <peripheralAddrConvert+0x3c>
    3408:	4298      	cmp	r0, r3
    340a:	d913      	bls.n	3434 <peripheralAddrConvert+0x78>
    340c:	f100 4260 	add.w	r2, r0, #3758096384	; 0xe0000000
    3410:	429a      	cmp	r2, r3
    3412:	d80b      	bhi.n	342c <peripheralAddrConvert+0x70>
    3414:	4b0f      	ldr	r3, [pc, #60]	; (3454 <peripheralAddrConvert+0x98>)
    3416:	4403      	add	r3, r0
    3418:	e7ef      	b.n	33fa <peripheralAddrConvert+0x3e>
    341a:	4298      	cmp	r0, r3
    341c:	d90d      	bls.n	343a <peripheralAddrConvert+0x7e>
    341e:	f100 4260 	add.w	r2, r0, #3758096384	; 0xe0000000
    3422:	429a      	cmp	r2, r3
    3424:	d802      	bhi.n	342c <peripheralAddrConvert+0x70>
    3426:	4b0c      	ldr	r3, [pc, #48]	; (3458 <peripheralAddrConvert+0x9c>)
    3428:	4403      	add	r3, r0
    342a:	e7e6      	b.n	33fa <peripheralAddrConvert+0x3e>
    342c:	f04f 33ff 	mov.w	r3, #4294967295
    3430:	4618      	mov	r0, r3
    3432:	4770      	bx	lr
    3434:	f100 4388 	add.w	r3, r0, #1140850688	; 0x44000000
    3438:	e7df      	b.n	33fa <peripheralAddrConvert+0x3e>
    343a:	4b08      	ldr	r3, [pc, #32]	; (345c <peripheralAddrConvert+0xa0>)
    343c:	4403      	add	r3, r0
    343e:	e7dc      	b.n	33fa <peripheralAddrConvert+0x3e>
    3440:	f100 4330 	add.w	r3, r0, #2952790016	; 0xb0000000
    3444:	e7d9      	b.n	33fa <peripheralAddrConvert+0x3e>
    3446:	bf00      	nop
    3448:	b0080000 	andlt	r0, r8, r0
    344c:	0003ffff 	strdeq	pc, [r3], -pc	; <UNPREDICTABLE>
    3450:	0007ffff 	strdeq	pc, [r7], -pc	; <UNPREDICTABLE>
    3454:	24080000 	strcs	r0, [r8], #-0
    3458:	24180000 	ldrcs	r0, [r8], #-0
    345c:	44100000 	ldrmi	r0, [r0], #-0

00003460 <reg_IrqHandle>:
    3460:	2862      	cmp	r0, #98	; 0x62
    3462:	dc0b      	bgt.n	347c <reg_IrqHandle+0x1c>
    3464:	4b06      	ldr	r3, [pc, #24]	; (3480 <reg_IrqHandle+0x20>)
    3466:	b410      	push	{r4}
    3468:	eb03 0480 	add.w	r4, r3, r0, lsl #2
    346c:	f843 1020 	str.w	r1, [r3, r0, lsl #2]
    3470:	2001      	movs	r0, #1
    3472:	f8c4 218c 	str.w	r2, [r4, #396]	; 0x18c
    3476:	f85d 4b04 	ldr.w	r4, [sp], #4
    347a:	4770      	bx	lr
    347c:	2001      	movs	r0, #1
    347e:	4770      	bx	lr
    3480:	2000038c 	andcs	r0, r0, ip, lsl #7

00003484 <rmv_IrqHandle>:
    3484:	2862      	cmp	r0, #98	; 0x62
    3486:	dc07      	bgt.n	3498 <rmv_IrqHandle+0x14>
    3488:	4a04      	ldr	r2, [pc, #16]	; (349c <rmv_IrqHandle+0x18>)
    348a:	2300      	movs	r3, #0
    348c:	eb02 0180 	add.w	r1, r2, r0, lsl #2
    3490:	f842 3020 	str.w	r3, [r2, r0, lsl #2]
    3494:	f8c1 318c 	str.w	r3, [r1, #396]	; 0x18c
    3498:	2001      	movs	r0, #1
    349a:	4770      	bx	lr
    349c:	2000038c 	andcs	r0, r0, ip, lsl #7
    34a0:	4770      	bx	lr
    34a2:	bf00      	nop

000034a4 <osSystickHandler>:
    34a4:	4770      	bx	lr
    34a6:	bf00      	nop

000034a8 <SYSTICK_IRQHandler>:
    34a8:	b508      	push	{r3, lr}
    34aa:	f7ff fd11 	bl	2ed0 <SysTicks_IncTickCount>
    34ae:	f7ff fff9 	bl	34a4 <osSystickHandler>
    34b2:	bd08      	pop	{r3, pc}

000034b4 <default_isr>:
    34b4:	4770      	bx	lr
    34b6:	bf00      	nop

000034b8 <hard_fault_monitor>:
    34b8:	e92d 4ff8 	stmdb	sp!, {r3, r4, r5, r6, r7, r8, r9, sl, fp, lr}
    34bc:	f8d0 a000 	ldr.w	sl, [r0]
    34c0:	f8d0 9004 	ldr.w	r9, [r0, #4]
    34c4:	f8d0 8008 	ldr.w	r8, [r0, #8]
    34c8:	68c7      	ldr	r7, [r0, #12]
    34ca:	6906      	ldr	r6, [r0, #16]
    34cc:	6945      	ldr	r5, [r0, #20]
    34ce:	6984      	ldr	r4, [r0, #24]
    34d0:	f8d0 b01c 	ldr.w	fp, [r0, #28]
    34d4:	f003 fdc0 	bl	7058 <dlog_get_output_level>
    34d8:	2801      	cmp	r0, #1
    34da:	d906      	bls.n	34ea <hard_fault_monitor+0x32>
    34dc:	f44f 73c6 	mov.w	r3, #396	; 0x18c
    34e0:	4a34      	ldr	r2, [pc, #208]	; (35b4 <hard_fault_monitor+0xfc>)
    34e2:	4835      	ldr	r0, [pc, #212]	; (35b8 <hard_fault_monitor+0x100>)
    34e4:	6819      	ldr	r1, [r3, #0]
    34e6:	f004 fcc9 	bl	7e7c <iprintf>
    34ea:	f003 fdb5 	bl	7058 <dlog_get_output_level>
    34ee:	2801      	cmp	r0, #1
    34f0:	d907      	bls.n	3502 <hard_fault_monitor+0x4a>
    34f2:	f44f 71c6 	mov.w	r1, #396	; 0x18c
    34f6:	4653      	mov	r3, sl
    34f8:	4a2e      	ldr	r2, [pc, #184]	; (35b4 <hard_fault_monitor+0xfc>)
    34fa:	6809      	ldr	r1, [r1, #0]
    34fc:	482f      	ldr	r0, [pc, #188]	; (35bc <hard_fault_monitor+0x104>)
    34fe:	f004 fcbd 	bl	7e7c <iprintf>
    3502:	f003 fda9 	bl	7058 <dlog_get_output_level>
    3506:	2801      	cmp	r0, #1
    3508:	d907      	bls.n	351a <hard_fault_monitor+0x62>
    350a:	f44f 71c6 	mov.w	r1, #396	; 0x18c
    350e:	464b      	mov	r3, r9
    3510:	4a28      	ldr	r2, [pc, #160]	; (35b4 <hard_fault_monitor+0xfc>)
    3512:	6809      	ldr	r1, [r1, #0]
    3514:	482a      	ldr	r0, [pc, #168]	; (35c0 <hard_fault_monitor+0x108>)
    3516:	f004 fcb1 	bl	7e7c <iprintf>
    351a:	f003 fd9d 	bl	7058 <dlog_get_output_level>
    351e:	2801      	cmp	r0, #1
    3520:	d907      	bls.n	3532 <hard_fault_monitor+0x7a>
    3522:	f44f 71c6 	mov.w	r1, #396	; 0x18c
    3526:	4643      	mov	r3, r8
    3528:	4a22      	ldr	r2, [pc, #136]	; (35b4 <hard_fault_monitor+0xfc>)
    352a:	6809      	ldr	r1, [r1, #0]
    352c:	4825      	ldr	r0, [pc, #148]	; (35c4 <hard_fault_monitor+0x10c>)
    352e:	f004 fca5 	bl	7e7c <iprintf>
    3532:	f003 fd91 	bl	7058 <dlog_get_output_level>
    3536:	2801      	cmp	r0, #1
    3538:	d907      	bls.n	354a <hard_fault_monitor+0x92>
    353a:	f44f 71c6 	mov.w	r1, #396	; 0x18c
    353e:	463b      	mov	r3, r7
    3540:	4a1c      	ldr	r2, [pc, #112]	; (35b4 <hard_fault_monitor+0xfc>)
    3542:	6809      	ldr	r1, [r1, #0]
    3544:	4820      	ldr	r0, [pc, #128]	; (35c8 <hard_fault_monitor+0x110>)
    3546:	f004 fc99 	bl	7e7c <iprintf>
    354a:	f003 fd85 	bl	7058 <dlog_get_output_level>
    354e:	2801      	cmp	r0, #1
    3550:	d907      	bls.n	3562 <hard_fault_monitor+0xaa>
    3552:	f44f 71c6 	mov.w	r1, #396	; 0x18c
    3556:	4633      	mov	r3, r6
    3558:	4a16      	ldr	r2, [pc, #88]	; (35b4 <hard_fault_monitor+0xfc>)
    355a:	6809      	ldr	r1, [r1, #0]
    355c:	481b      	ldr	r0, [pc, #108]	; (35cc <hard_fault_monitor+0x114>)
    355e:	f004 fc8d 	bl	7e7c <iprintf>
    3562:	f003 fd79 	bl	7058 <dlog_get_output_level>
    3566:	2801      	cmp	r0, #1
    3568:	d907      	bls.n	357a <hard_fault_monitor+0xc2>
    356a:	f44f 71c6 	mov.w	r1, #396	; 0x18c
    356e:	462b      	mov	r3, r5
    3570:	4a10      	ldr	r2, [pc, #64]	; (35b4 <hard_fault_monitor+0xfc>)
    3572:	6809      	ldr	r1, [r1, #0]
    3574:	4816      	ldr	r0, [pc, #88]	; (35d0 <hard_fault_monitor+0x118>)
    3576:	f004 fc81 	bl	7e7c <iprintf>
    357a:	f003 fd6d 	bl	7058 <dlog_get_output_level>
    357e:	2801      	cmp	r0, #1
    3580:	d907      	bls.n	3592 <hard_fault_monitor+0xda>
    3582:	f44f 71c6 	mov.w	r1, #396	; 0x18c
    3586:	4623      	mov	r3, r4
    3588:	4a0a      	ldr	r2, [pc, #40]	; (35b4 <hard_fault_monitor+0xfc>)
    358a:	6809      	ldr	r1, [r1, #0]
    358c:	4811      	ldr	r0, [pc, #68]	; (35d4 <hard_fault_monitor+0x11c>)
    358e:	f004 fc75 	bl	7e7c <iprintf>
    3592:	f003 fd61 	bl	7058 <dlog_get_output_level>
    3596:	2801      	cmp	r0, #1
    3598:	d907      	bls.n	35aa <hard_fault_monitor+0xf2>
    359a:	f44f 71c6 	mov.w	r1, #396	; 0x18c
    359e:	465b      	mov	r3, fp
    35a0:	4a04      	ldr	r2, [pc, #16]	; (35b4 <hard_fault_monitor+0xfc>)
    35a2:	6809      	ldr	r1, [r1, #0]
    35a4:	480c      	ldr	r0, [pc, #48]	; (35d8 <hard_fault_monitor+0x120>)
    35a6:	f004 fc69 	bl	7e7c <iprintf>
    35aa:	f640 30b8 	movw	r0, #3000	; 0xbb8
    35ae:	f003 fc0f 	bl	6dd0 <DLOG_Output>
    35b2:	e7fe      	b.n	35b2 <hard_fault_monitor+0xfa>
    35b4:	0000d604 	andeq	sp, r0, r4, lsl #12
    35b8:	0000d618 	andeq	sp, r0, r8, lsl r6
    35bc:	0000d638 	andeq	sp, r0, r8, lsr r6
    35c0:	0000d64c 	andeq	sp, r0, ip, asr #12
    35c4:	0000d660 	andeq	sp, r0, r0, ror #12
    35c8:	0000d674 	andeq	sp, r0, r4, ror r6
    35cc:	0000d688 	andeq	sp, r0, r8, lsl #13
    35d0:	0000d6a0 	andeq	sp, r0, r0, lsr #13
    35d4:	0000d6dc 	ldrdeq	sp, [r0], -ip
    35d8:	0000d708 	andeq	sp, r0, r8, lsl #14

000035dc <hardfault_isr>:
    35dc:	f01e 0f04 	tst.w	lr, #4
    35e0:	bf0c      	ite	eq
    35e2:	f3ef 8008 	mrseq	r0, MSP
    35e6:	f3ef 8009 	mrsne	r0, PSP
    35ea:	f7ff bf65 	b.w	34b8 <hard_fault_monitor>
    35ee:	4770      	bx	lr

000035f0 <IRQHandler_16>:
    35f0:	b510      	push	{r4, lr}
    35f2:	4c06      	ldr	r4, [pc, #24]	; (360c <IRQHandler_16+0x1c>)
    35f4:	6823      	ldr	r3, [r4, #0]
    35f6:	b10b      	cbz	r3, 35fc <IRQHandler_16+0xc>
    35f8:	2000      	movs	r0, #0
    35fa:	4798      	blx	r3
    35fc:	f8d4 318c 	ldr.w	r3, [r4, #396]	; 0x18c
    3600:	b11b      	cbz	r3, 360a <IRQHandler_16+0x1a>
    3602:	2000      	movs	r0, #0
    3604:	e8bd 4010 	ldmia.w	sp!, {r4, lr}
    3608:	4718      	bx	r3
    360a:	bd10      	pop	{r4, pc}
    360c:	2000038c 	andcs	r0, r0, ip, lsl #7

00003610 <IRQHandler_17>:
    3610:	b510      	push	{r4, lr}
    3612:	4c06      	ldr	r4, [pc, #24]	; (362c <IRQHandler_17+0x1c>)
    3614:	6863      	ldr	r3, [r4, #4]
    3616:	b10b      	cbz	r3, 361c <IRQHandler_17+0xc>
    3618:	2001      	movs	r0, #1
    361a:	4798      	blx	r3
    361c:	f8d4 3190 	ldr.w	r3, [r4, #400]	; 0x190
    3620:	b11b      	cbz	r3, 362a <IRQHandler_17+0x1a>
    3622:	2001      	movs	r0, #1
    3624:	e8bd 4010 	ldmia.w	sp!, {r4, lr}
    3628:	4718      	bx	r3
    362a:	bd10      	pop	{r4, pc}
    362c:	2000038c 	andcs	r0, r0, ip, lsl #7

00003630 <IRQHandler_18>:
    3630:	b510      	push	{r4, lr}
    3632:	4c06      	ldr	r4, [pc, #24]	; (364c <IRQHandler_18+0x1c>)
    3634:	68a3      	ldr	r3, [r4, #8]
    3636:	b10b      	cbz	r3, 363c <IRQHandler_18+0xc>
    3638:	2002      	movs	r0, #2
    363a:	4798      	blx	r3
    363c:	f8d4 3194 	ldr.w	r3, [r4, #404]	; 0x194
    3640:	b11b      	cbz	r3, 364a <IRQHandler_18+0x1a>
    3642:	2002      	movs	r0, #2
    3644:	e8bd 4010 	ldmia.w	sp!, {r4, lr}
    3648:	4718      	bx	r3
    364a:	bd10      	pop	{r4, pc}
    364c:	2000038c 	andcs	r0, r0, ip, lsl #7

00003650 <IRQHandler_19>:
    3650:	b510      	push	{r4, lr}
    3652:	4c06      	ldr	r4, [pc, #24]	; (366c <IRQHandler_19+0x1c>)
    3654:	68e3      	ldr	r3, [r4, #12]
    3656:	b10b      	cbz	r3, 365c <IRQHandler_19+0xc>
    3658:	2003      	movs	r0, #3
    365a:	4798      	blx	r3
    365c:	f8d4 3198 	ldr.w	r3, [r4, #408]	; 0x198
    3660:	b11b      	cbz	r3, 366a <IRQHandler_19+0x1a>
    3662:	2003      	movs	r0, #3
    3664:	e8bd 4010 	ldmia.w	sp!, {r4, lr}
    3668:	4718      	bx	r3
    366a:	bd10      	pop	{r4, pc}
    366c:	2000038c 	andcs	r0, r0, ip, lsl #7

00003670 <IRQHandler_20>:
    3670:	b510      	push	{r4, lr}
    3672:	4c06      	ldr	r4, [pc, #24]	; (368c <IRQHandler_20+0x1c>)
    3674:	6923      	ldr	r3, [r4, #16]
    3676:	b10b      	cbz	r3, 367c <IRQHandler_20+0xc>
    3678:	2004      	movs	r0, #4
    367a:	4798      	blx	r3
    367c:	f8d4 319c 	ldr.w	r3, [r4, #412]	; 0x19c
    3680:	b11b      	cbz	r3, 368a <IRQHandler_20+0x1a>
    3682:	2004      	movs	r0, #4
    3684:	e8bd 4010 	ldmia.w	sp!, {r4, lr}
    3688:	4718      	bx	r3
    368a:	bd10      	pop	{r4, pc}
    368c:	2000038c 	andcs	r0, r0, ip, lsl #7

00003690 <IRQHandler_21>:
    3690:	b510      	push	{r4, lr}
    3692:	4c06      	ldr	r4, [pc, #24]	; (36ac <IRQHandler_21+0x1c>)
    3694:	6963      	ldr	r3, [r4, #20]
    3696:	b10b      	cbz	r3, 369c <IRQHandler_21+0xc>
    3698:	2005      	movs	r0, #5
    369a:	4798      	blx	r3
    369c:	f8d4 31a0 	ldr.w	r3, [r4, #416]	; 0x1a0
    36a0:	b11b      	cbz	r3, 36aa <IRQHandler_21+0x1a>
    36a2:	2005      	movs	r0, #5
    36a4:	e8bd 4010 	ldmia.w	sp!, {r4, lr}
    36a8:	4718      	bx	r3
    36aa:	bd10      	pop	{r4, pc}
    36ac:	2000038c 	andcs	r0, r0, ip, lsl #7

000036b0 <IRQHandler_22>:
    36b0:	b510      	push	{r4, lr}
    36b2:	4c06      	ldr	r4, [pc, #24]	; (36cc <IRQHandler_22+0x1c>)
    36b4:	69a3      	ldr	r3, [r4, #24]
    36b6:	b10b      	cbz	r3, 36bc <IRQHandler_22+0xc>
    36b8:	2006      	movs	r0, #6
    36ba:	4798      	blx	r3
    36bc:	f8d4 31a4 	ldr.w	r3, [r4, #420]	; 0x1a4
    36c0:	b11b      	cbz	r3, 36ca <IRQHandler_22+0x1a>
    36c2:	2006      	movs	r0, #6
    36c4:	e8bd 4010 	ldmia.w	sp!, {r4, lr}
    36c8:	4718      	bx	r3
    36ca:	bd10      	pop	{r4, pc}
    36cc:	2000038c 	andcs	r0, r0, ip, lsl #7

000036d0 <IRQHandler_23>:
    36d0:	b510      	push	{r4, lr}
    36d2:	4c06      	ldr	r4, [pc, #24]	; (36ec <IRQHandler_23+0x1c>)
    36d4:	69e3      	ldr	r3, [r4, #28]
    36d6:	b10b      	cbz	r3, 36dc <IRQHandler_23+0xc>
    36d8:	2007      	movs	r0, #7
    36da:	4798      	blx	r3
    36dc:	f8d4 31a8 	ldr.w	r3, [r4, #424]	; 0x1a8
    36e0:	b11b      	cbz	r3, 36ea <IRQHandler_23+0x1a>
    36e2:	2007      	movs	r0, #7
    36e4:	e8bd 4010 	ldmia.w	sp!, {r4, lr}
    36e8:	4718      	bx	r3
    36ea:	bd10      	pop	{r4, pc}
    36ec:	2000038c 	andcs	r0, r0, ip, lsl #7

000036f0 <IRQHandler_24>:
    36f0:	b510      	push	{r4, lr}
    36f2:	4c06      	ldr	r4, [pc, #24]	; (370c <IRQHandler_24+0x1c>)
    36f4:	6a23      	ldr	r3, [r4, #32]
    36f6:	b10b      	cbz	r3, 36fc <IRQHandler_24+0xc>
    36f8:	2008      	movs	r0, #8
    36fa:	4798      	blx	r3
    36fc:	f8d4 31ac 	ldr.w	r3, [r4, #428]	; 0x1ac
    3700:	b11b      	cbz	r3, 370a <IRQHandler_24+0x1a>
    3702:	2008      	movs	r0, #8
    3704:	e8bd 4010 	ldmia.w	sp!, {r4, lr}
    3708:	4718      	bx	r3
    370a:	bd10      	pop	{r4, pc}
    370c:	2000038c 	andcs	r0, r0, ip, lsl #7

00003710 <IRQHandler_25>:
    3710:	b510      	push	{r4, lr}
    3712:	4c06      	ldr	r4, [pc, #24]	; (372c <IRQHandler_25+0x1c>)
    3714:	6a63      	ldr	r3, [r4, #36]	; 0x24
    3716:	b10b      	cbz	r3, 371c <IRQHandler_25+0xc>
    3718:	2009      	movs	r0, #9
    371a:	4798      	blx	r3
    371c:	f8d4 31b0 	ldr.w	r3, [r4, #432]	; 0x1b0
    3720:	b11b      	cbz	r3, 372a <IRQHandler_25+0x1a>
    3722:	2009      	movs	r0, #9
    3724:	e8bd 4010 	ldmia.w	sp!, {r4, lr}
    3728:	4718      	bx	r3
    372a:	bd10      	pop	{r4, pc}
    372c:	2000038c 	andcs	r0, r0, ip, lsl #7

00003730 <IRQHandler_26>:
    3730:	b510      	push	{r4, lr}
    3732:	4c06      	ldr	r4, [pc, #24]	; (374c <IRQHandler_26+0x1c>)
    3734:	6aa3      	ldr	r3, [r4, #40]	; 0x28
    3736:	b10b      	cbz	r3, 373c <IRQHandler_26+0xc>
    3738:	200a      	movs	r0, #10
    373a:	4798      	blx	r3
    373c:	f8d4 31b4 	ldr.w	r3, [r4, #436]	; 0x1b4
    3740:	b11b      	cbz	r3, 374a <IRQHandler_26+0x1a>
    3742:	200a      	movs	r0, #10
    3744:	e8bd 4010 	ldmia.w	sp!, {r4, lr}
    3748:	4718      	bx	r3
    374a:	bd10      	pop	{r4, pc}
    374c:	2000038c 	andcs	r0, r0, ip, lsl #7

00003750 <IRQHandler_27>:
    3750:	b510      	push	{r4, lr}
    3752:	4c06      	ldr	r4, [pc, #24]	; (376c <IRQHandler_27+0x1c>)
    3754:	6ae3      	ldr	r3, [r4, #44]	; 0x2c
    3756:	b10b      	cbz	r3, 375c <IRQHandler_27+0xc>
    3758:	200b      	movs	r0, #11
    375a:	4798      	blx	r3
    375c:	f8d4 31b8 	ldr.w	r3, [r4, #440]	; 0x1b8
    3760:	b11b      	cbz	r3, 376a <IRQHandler_27+0x1a>
    3762:	200b      	movs	r0, #11
    3764:	e8bd 4010 	ldmia.w	sp!, {r4, lr}
    3768:	4718      	bx	r3
    376a:	bd10      	pop	{r4, pc}
    376c:	2000038c 	andcs	r0, r0, ip, lsl #7

00003770 <IRQHandler_28>:
    3770:	b510      	push	{r4, lr}
    3772:	4c06      	ldr	r4, [pc, #24]	; (378c <IRQHandler_28+0x1c>)
    3774:	6b23      	ldr	r3, [r4, #48]	; 0x30
    3776:	b10b      	cbz	r3, 377c <IRQHandler_28+0xc>
    3778:	200c      	movs	r0, #12
    377a:	4798      	blx	r3
    377c:	f8d4 31bc 	ldr.w	r3, [r4, #444]	; 0x1bc
    3780:	b11b      	cbz	r3, 378a <IRQHandler_28+0x1a>
    3782:	200c      	movs	r0, #12
    3784:	e8bd 4010 	ldmia.w	sp!, {r4, lr}
    3788:	4718      	bx	r3
    378a:	bd10      	pop	{r4, pc}
    378c:	2000038c 	andcs	r0, r0, ip, lsl #7

00003790 <IRQHandler_29>:
    3790:	b510      	push	{r4, lr}
    3792:	4c06      	ldr	r4, [pc, #24]	; (37ac <IRQHandler_29+0x1c>)
    3794:	6b63      	ldr	r3, [r4, #52]	; 0x34
    3796:	b10b      	cbz	r3, 379c <IRQHandler_29+0xc>
    3798:	200d      	movs	r0, #13
    379a:	4798      	blx	r3
    379c:	f8d4 31c0 	ldr.w	r3, [r4, #448]	; 0x1c0
    37a0:	b11b      	cbz	r3, 37aa <IRQHandler_29+0x1a>
    37a2:	200d      	movs	r0, #13
    37a4:	e8bd 4010 	ldmia.w	sp!, {r4, lr}
    37a8:	4718      	bx	r3
    37aa:	bd10      	pop	{r4, pc}
    37ac:	2000038c 	andcs	r0, r0, ip, lsl #7

000037b0 <IRQHandler_30>:
    37b0:	b510      	push	{r4, lr}
    37b2:	4c06      	ldr	r4, [pc, #24]	; (37cc <IRQHandler_30+0x1c>)
    37b4:	6ba3      	ldr	r3, [r4, #56]	; 0x38
    37b6:	b10b      	cbz	r3, 37bc <IRQHandler_30+0xc>
    37b8:	200e      	movs	r0, #14
    37ba:	4798      	blx	r3
    37bc:	f8d4 31c4 	ldr.w	r3, [r4, #452]	; 0x1c4
    37c0:	b11b      	cbz	r3, 37ca <IRQHandler_30+0x1a>
    37c2:	200e      	movs	r0, #14
    37c4:	e8bd 4010 	ldmia.w	sp!, {r4, lr}
    37c8:	4718      	bx	r3
    37ca:	bd10      	pop	{r4, pc}
    37cc:	2000038c 	andcs	r0, r0, ip, lsl #7

000037d0 <IRQHandler_31>:
    37d0:	b510      	push	{r4, lr}
    37d2:	4c06      	ldr	r4, [pc, #24]	; (37ec <IRQHandler_31+0x1c>)
    37d4:	6be3      	ldr	r3, [r4, #60]	; 0x3c
    37d6:	b10b      	cbz	r3, 37dc <IRQHandler_31+0xc>
    37d8:	200f      	movs	r0, #15
    37da:	4798      	blx	r3
    37dc:	f8d4 31c8 	ldr.w	r3, [r4, #456]	; 0x1c8
    37e0:	b11b      	cbz	r3, 37ea <IRQHandler_31+0x1a>
    37e2:	200f      	movs	r0, #15
    37e4:	e8bd 4010 	ldmia.w	sp!, {r4, lr}
    37e8:	4718      	bx	r3
    37ea:	bd10      	pop	{r4, pc}
    37ec:	2000038c 	andcs	r0, r0, ip, lsl #7

000037f0 <IRQHandler_32>:
    37f0:	b510      	push	{r4, lr}
    37f2:	4c06      	ldr	r4, [pc, #24]	; (380c <IRQHandler_32+0x1c>)
    37f4:	6c23      	ldr	r3, [r4, #64]	; 0x40
    37f6:	b10b      	cbz	r3, 37fc <IRQHandler_32+0xc>
    37f8:	2010      	movs	r0, #16
    37fa:	4798      	blx	r3
    37fc:	f8d4 31cc 	ldr.w	r3, [r4, #460]	; 0x1cc
    3800:	b11b      	cbz	r3, 380a <IRQHandler_32+0x1a>
    3802:	2010      	movs	r0, #16
    3804:	e8bd 4010 	ldmia.w	sp!, {r4, lr}
    3808:	4718      	bx	r3
    380a:	bd10      	pop	{r4, pc}
    380c:	2000038c 	andcs	r0, r0, ip, lsl #7

00003810 <IRQHandler_33>:
    3810:	b510      	push	{r4, lr}
    3812:	4c06      	ldr	r4, [pc, #24]	; (382c <IRQHandler_33+0x1c>)
    3814:	6c63      	ldr	r3, [r4, #68]	; 0x44
    3816:	b10b      	cbz	r3, 381c <IRQHandler_33+0xc>
    3818:	2011      	movs	r0, #17
    381a:	4798      	blx	r3
    381c:	f8d4 31d0 	ldr.w	r3, [r4, #464]	; 0x1d0
    3820:	b11b      	cbz	r3, 382a <IRQHandler_33+0x1a>
    3822:	2011      	movs	r0, #17
    3824:	e8bd 4010 	ldmia.w	sp!, {r4, lr}
    3828:	4718      	bx	r3
    382a:	bd10      	pop	{r4, pc}
    382c:	2000038c 	andcs	r0, r0, ip, lsl #7

00003830 <IRQHandler_34>:
    3830:	b510      	push	{r4, lr}
    3832:	4c06      	ldr	r4, [pc, #24]	; (384c <IRQHandler_34+0x1c>)
    3834:	6ca3      	ldr	r3, [r4, #72]	; 0x48
    3836:	b10b      	cbz	r3, 383c <IRQHandler_34+0xc>
    3838:	2012      	movs	r0, #18
    383a:	4798      	blx	r3
    383c:	f8d4 31d4 	ldr.w	r3, [r4, #468]	; 0x1d4
    3840:	b11b      	cbz	r3, 384a <IRQHandler_34+0x1a>
    3842:	2012      	movs	r0, #18
    3844:	e8bd 4010 	ldmia.w	sp!, {r4, lr}
    3848:	4718      	bx	r3
    384a:	bd10      	pop	{r4, pc}
    384c:	2000038c 	andcs	r0, r0, ip, lsl #7

00003850 <IRQHandler_35>:
    3850:	b510      	push	{r4, lr}
    3852:	4c06      	ldr	r4, [pc, #24]	; (386c <IRQHandler_35+0x1c>)
    3854:	6ce3      	ldr	r3, [r4, #76]	; 0x4c
    3856:	b10b      	cbz	r3, 385c <IRQHandler_35+0xc>
    3858:	2013      	movs	r0, #19
    385a:	4798      	blx	r3
    385c:	f8d4 31d8 	ldr.w	r3, [r4, #472]	; 0x1d8
    3860:	b11b      	cbz	r3, 386a <IRQHandler_35+0x1a>
    3862:	2013      	movs	r0, #19
    3864:	e8bd 4010 	ldmia.w	sp!, {r4, lr}
    3868:	4718      	bx	r3
    386a:	bd10      	pop	{r4, pc}
    386c:	2000038c 	andcs	r0, r0, ip, lsl #7

00003870 <IRQHandler_36>:
    3870:	b510      	push	{r4, lr}
    3872:	4c06      	ldr	r4, [pc, #24]	; (388c <IRQHandler_36+0x1c>)
    3874:	6d23      	ldr	r3, [r4, #80]	; 0x50
    3876:	b10b      	cbz	r3, 387c <IRQHandler_36+0xc>
    3878:	2014      	movs	r0, #20
    387a:	4798      	blx	r3
    387c:	f8d4 31dc 	ldr.w	r3, [r4, #476]	; 0x1dc
    3880:	b11b      	cbz	r3, 388a <IRQHandler_36+0x1a>
    3882:	2014      	movs	r0, #20
    3884:	e8bd 4010 	ldmia.w	sp!, {r4, lr}
    3888:	4718      	bx	r3
    388a:	bd10      	pop	{r4, pc}
    388c:	2000038c 	andcs	r0, r0, ip, lsl #7

00003890 <IRQHandler_37>:
    3890:	b510      	push	{r4, lr}
    3892:	4c06      	ldr	r4, [pc, #24]	; (38ac <IRQHandler_37+0x1c>)
    3894:	6d63      	ldr	r3, [r4, #84]	; 0x54
    3896:	b10b      	cbz	r3, 389c <IRQHandler_37+0xc>
    3898:	2015      	movs	r0, #21
    389a:	4798      	blx	r3
    389c:	f8d4 31e0 	ldr.w	r3, [r4, #480]	; 0x1e0
    38a0:	b11b      	cbz	r3, 38aa <IRQHandler_37+0x1a>
    38a2:	2015      	movs	r0, #21
    38a4:	e8bd 4010 	ldmia.w	sp!, {r4, lr}
    38a8:	4718      	bx	r3
    38aa:	bd10      	pop	{r4, pc}
    38ac:	2000038c 	andcs	r0, r0, ip, lsl #7

000038b0 <IRQHandler_38>:
    38b0:	b510      	push	{r4, lr}
    38b2:	4c06      	ldr	r4, [pc, #24]	; (38cc <IRQHandler_38+0x1c>)
    38b4:	6da3      	ldr	r3, [r4, #88]	; 0x58
    38b6:	b10b      	cbz	r3, 38bc <IRQHandler_38+0xc>
    38b8:	2016      	movs	r0, #22
    38ba:	4798      	blx	r3
    38bc:	f8d4 31e4 	ldr.w	r3, [r4, #484]	; 0x1e4
    38c0:	b11b      	cbz	r3, 38ca <IRQHandler_38+0x1a>
    38c2:	2016      	movs	r0, #22
    38c4:	e8bd 4010 	ldmia.w	sp!, {r4, lr}
    38c8:	4718      	bx	r3
    38ca:	bd10      	pop	{r4, pc}
    38cc:	2000038c 	andcs	r0, r0, ip, lsl #7

000038d0 <IRQHandler_39>:
    38d0:	b510      	push	{r4, lr}
    38d2:	4c06      	ldr	r4, [pc, #24]	; (38ec <IRQHandler_39+0x1c>)
    38d4:	6de3      	ldr	r3, [r4, #92]	; 0x5c
    38d6:	b10b      	cbz	r3, 38dc <IRQHandler_39+0xc>
    38d8:	2017      	movs	r0, #23
    38da:	4798      	blx	r3
    38dc:	f8d4 31e8 	ldr.w	r3, [r4, #488]	; 0x1e8
    38e0:	b11b      	cbz	r3, 38ea <IRQHandler_39+0x1a>
    38e2:	2017      	movs	r0, #23
    38e4:	e8bd 4010 	ldmia.w	sp!, {r4, lr}
    38e8:	4718      	bx	r3
    38ea:	bd10      	pop	{r4, pc}
    38ec:	2000038c 	andcs	r0, r0, ip, lsl #7

000038f0 <IRQHandler_40>:
    38f0:	b510      	push	{r4, lr}
    38f2:	4c06      	ldr	r4, [pc, #24]	; (390c <IRQHandler_40+0x1c>)
    38f4:	6e23      	ldr	r3, [r4, #96]	; 0x60
    38f6:	b10b      	cbz	r3, 38fc <IRQHandler_40+0xc>
    38f8:	2018      	movs	r0, #24
    38fa:	4798      	blx	r3
    38fc:	f8d4 31ec 	ldr.w	r3, [r4, #492]	; 0x1ec
    3900:	b11b      	cbz	r3, 390a <IRQHandler_40+0x1a>
    3902:	2018      	movs	r0, #24
    3904:	e8bd 4010 	ldmia.w	sp!, {r4, lr}
    3908:	4718      	bx	r3
    390a:	bd10      	pop	{r4, pc}
    390c:	2000038c 	andcs	r0, r0, ip, lsl #7

00003910 <IRQHandler_41>:
    3910:	b510      	push	{r4, lr}
    3912:	4c06      	ldr	r4, [pc, #24]	; (392c <IRQHandler_41+0x1c>)
    3914:	6e63      	ldr	r3, [r4, #100]	; 0x64
    3916:	b10b      	cbz	r3, 391c <IRQHandler_41+0xc>
    3918:	2019      	movs	r0, #25
    391a:	4798      	blx	r3
    391c:	f8d4 31f0 	ldr.w	r3, [r4, #496]	; 0x1f0
    3920:	b11b      	cbz	r3, 392a <IRQHandler_41+0x1a>
    3922:	2019      	movs	r0, #25
    3924:	e8bd 4010 	ldmia.w	sp!, {r4, lr}
    3928:	4718      	bx	r3
    392a:	bd10      	pop	{r4, pc}
    392c:	2000038c 	andcs	r0, r0, ip, lsl #7

00003930 <IRQHandler_42>:
    3930:	b510      	push	{r4, lr}
    3932:	4c06      	ldr	r4, [pc, #24]	; (394c <IRQHandler_42+0x1c>)
    3934:	6ea3      	ldr	r3, [r4, #104]	; 0x68
    3936:	b10b      	cbz	r3, 393c <IRQHandler_42+0xc>
    3938:	201a      	movs	r0, #26
    393a:	4798      	blx	r3
    393c:	f8d4 31f4 	ldr.w	r3, [r4, #500]	; 0x1f4
    3940:	b11b      	cbz	r3, 394a <IRQHandler_42+0x1a>
    3942:	201a      	movs	r0, #26
    3944:	e8bd 4010 	ldmia.w	sp!, {r4, lr}
    3948:	4718      	bx	r3
    394a:	bd10      	pop	{r4, pc}
    394c:	2000038c 	andcs	r0, r0, ip, lsl #7

00003950 <IRQHandler_43>:
    3950:	b510      	push	{r4, lr}
    3952:	4c06      	ldr	r4, [pc, #24]	; (396c <IRQHandler_43+0x1c>)
    3954:	6ee3      	ldr	r3, [r4, #108]	; 0x6c
    3956:	b10b      	cbz	r3, 395c <IRQHandler_43+0xc>
    3958:	201b      	movs	r0, #27
    395a:	4798      	blx	r3
    395c:	f8d4 31f8 	ldr.w	r3, [r4, #504]	; 0x1f8
    3960:	b11b      	cbz	r3, 396a <IRQHandler_43+0x1a>
    3962:	201b      	movs	r0, #27
    3964:	e8bd 4010 	ldmia.w	sp!, {r4, lr}
    3968:	4718      	bx	r3
    396a:	bd10      	pop	{r4, pc}
    396c:	2000038c 	andcs	r0, r0, ip, lsl #7

00003970 <IRQHandler_44>:
    3970:	b510      	push	{r4, lr}
    3972:	4c06      	ldr	r4, [pc, #24]	; (398c <IRQHandler_44+0x1c>)
    3974:	6f23      	ldr	r3, [r4, #112]	; 0x70
    3976:	b10b      	cbz	r3, 397c <IRQHandler_44+0xc>
    3978:	201c      	movs	r0, #28
    397a:	4798      	blx	r3
    397c:	f8d4 31fc 	ldr.w	r3, [r4, #508]	; 0x1fc
    3980:	b11b      	cbz	r3, 398a <IRQHandler_44+0x1a>
    3982:	201c      	movs	r0, #28
    3984:	e8bd 4010 	ldmia.w	sp!, {r4, lr}
    3988:	4718      	bx	r3
    398a:	bd10      	pop	{r4, pc}
    398c:	2000038c 	andcs	r0, r0, ip, lsl #7

00003990 <IRQHandler_45>:
    3990:	b510      	push	{r4, lr}
    3992:	4c06      	ldr	r4, [pc, #24]	; (39ac <IRQHandler_45+0x1c>)
    3994:	6f63      	ldr	r3, [r4, #116]	; 0x74
    3996:	b10b      	cbz	r3, 399c <IRQHandler_45+0xc>
    3998:	201d      	movs	r0, #29
    399a:	4798      	blx	r3
    399c:	f8d4 3200 	ldr.w	r3, [r4, #512]	; 0x200
    39a0:	b11b      	cbz	r3, 39aa <IRQHandler_45+0x1a>
    39a2:	201d      	movs	r0, #29
    39a4:	e8bd 4010 	ldmia.w	sp!, {r4, lr}
    39a8:	4718      	bx	r3
    39aa:	bd10      	pop	{r4, pc}
    39ac:	2000038c 	andcs	r0, r0, ip, lsl #7

000039b0 <IRQHandler_46>:
    39b0:	b510      	push	{r4, lr}
    39b2:	4c06      	ldr	r4, [pc, #24]	; (39cc <IRQHandler_46+0x1c>)
    39b4:	6fa3      	ldr	r3, [r4, #120]	; 0x78
    39b6:	b10b      	cbz	r3, 39bc <IRQHandler_46+0xc>
    39b8:	201e      	movs	r0, #30
    39ba:	4798      	blx	r3
    39bc:	f8d4 3204 	ldr.w	r3, [r4, #516]	; 0x204
    39c0:	b11b      	cbz	r3, 39ca <IRQHandler_46+0x1a>
    39c2:	201e      	movs	r0, #30
    39c4:	e8bd 4010 	ldmia.w	sp!, {r4, lr}
    39c8:	4718      	bx	r3
    39ca:	bd10      	pop	{r4, pc}
    39cc:	2000038c 	andcs	r0, r0, ip, lsl #7

000039d0 <IRQHandler_47>:
    39d0:	b510      	push	{r4, lr}
    39d2:	4c06      	ldr	r4, [pc, #24]	; (39ec <IRQHandler_47+0x1c>)
    39d4:	6fe3      	ldr	r3, [r4, #124]	; 0x7c
    39d6:	b10b      	cbz	r3, 39dc <IRQHandler_47+0xc>
    39d8:	201f      	movs	r0, #31
    39da:	4798      	blx	r3
    39dc:	f8d4 3208 	ldr.w	r3, [r4, #520]	; 0x208
    39e0:	b11b      	cbz	r3, 39ea <IRQHandler_47+0x1a>
    39e2:	201f      	movs	r0, #31
    39e4:	e8bd 4010 	ldmia.w	sp!, {r4, lr}
    39e8:	4718      	bx	r3
    39ea:	bd10      	pop	{r4, pc}
    39ec:	2000038c 	andcs	r0, r0, ip, lsl #7

000039f0 <IRQHandler_48>:
    39f0:	b510      	push	{r4, lr}
    39f2:	4c07      	ldr	r4, [pc, #28]	; (3a10 <IRQHandler_48+0x20>)
    39f4:	f8d4 3080 	ldr.w	r3, [r4, #128]	; 0x80
    39f8:	b10b      	cbz	r3, 39fe <IRQHandler_48+0xe>
    39fa:	2020      	movs	r0, #32
    39fc:	4798      	blx	r3
    39fe:	f8d4 320c 	ldr.w	r3, [r4, #524]	; 0x20c
    3a02:	b11b      	cbz	r3, 3a0c <IRQHandler_48+0x1c>
    3a04:	2020      	movs	r0, #32
    3a06:	e8bd 4010 	ldmia.w	sp!, {r4, lr}
    3a0a:	4718      	bx	r3
    3a0c:	bd10      	pop	{r4, pc}
    3a0e:	bf00      	nop
    3a10:	2000038c 	andcs	r0, r0, ip, lsl #7

00003a14 <IRQHandler_49>:
    3a14:	b510      	push	{r4, lr}
    3a16:	4c07      	ldr	r4, [pc, #28]	; (3a34 <IRQHandler_49+0x20>)
    3a18:	f8d4 3084 	ldr.w	r3, [r4, #132]	; 0x84
    3a1c:	b10b      	cbz	r3, 3a22 <IRQHandler_49+0xe>
    3a1e:	2021      	movs	r0, #33	; 0x21
    3a20:	4798      	blx	r3
    3a22:	f8d4 3210 	ldr.w	r3, [r4, #528]	; 0x210
    3a26:	b11b      	cbz	r3, 3a30 <IRQHandler_49+0x1c>
    3a28:	2021      	movs	r0, #33	; 0x21
    3a2a:	e8bd 4010 	ldmia.w	sp!, {r4, lr}
    3a2e:	4718      	bx	r3
    3a30:	bd10      	pop	{r4, pc}
    3a32:	bf00      	nop
    3a34:	2000038c 	andcs	r0, r0, ip, lsl #7

00003a38 <IRQHandler_50>:
    3a38:	b510      	push	{r4, lr}
    3a3a:	4c07      	ldr	r4, [pc, #28]	; (3a58 <IRQHandler_50+0x20>)
    3a3c:	f8d4 3088 	ldr.w	r3, [r4, #136]	; 0x88
    3a40:	b10b      	cbz	r3, 3a46 <IRQHandler_50+0xe>
    3a42:	2022      	movs	r0, #34	; 0x22
    3a44:	4798      	blx	r3
    3a46:	f8d4 3214 	ldr.w	r3, [r4, #532]	; 0x214
    3a4a:	b11b      	cbz	r3, 3a54 <IRQHandler_50+0x1c>
    3a4c:	2022      	movs	r0, #34	; 0x22
    3a4e:	e8bd 4010 	ldmia.w	sp!, {r4, lr}
    3a52:	4718      	bx	r3
    3a54:	bd10      	pop	{r4, pc}
    3a56:	bf00      	nop
    3a58:	2000038c 	andcs	r0, r0, ip, lsl #7

00003a5c <IRQHandler_51>:
    3a5c:	b510      	push	{r4, lr}
    3a5e:	4c07      	ldr	r4, [pc, #28]	; (3a7c <IRQHandler_51+0x20>)
    3a60:	f8d4 308c 	ldr.w	r3, [r4, #140]	; 0x8c
    3a64:	b10b      	cbz	r3, 3a6a <IRQHandler_51+0xe>
    3a66:	2023      	movs	r0, #35	; 0x23
    3a68:	4798      	blx	r3
    3a6a:	f8d4 3218 	ldr.w	r3, [r4, #536]	; 0x218
    3a6e:	b11b      	cbz	r3, 3a78 <IRQHandler_51+0x1c>
    3a70:	2023      	movs	r0, #35	; 0x23
    3a72:	e8bd 4010 	ldmia.w	sp!, {r4, lr}
    3a76:	4718      	bx	r3
    3a78:	bd10      	pop	{r4, pc}
    3a7a:	bf00      	nop
    3a7c:	2000038c 	andcs	r0, r0, ip, lsl #7

00003a80 <IRQHandler_52>:
    3a80:	b510      	push	{r4, lr}
    3a82:	4c07      	ldr	r4, [pc, #28]	; (3aa0 <IRQHandler_52+0x20>)
    3a84:	f8d4 3090 	ldr.w	r3, [r4, #144]	; 0x90
    3a88:	b10b      	cbz	r3, 3a8e <IRQHandler_52+0xe>
    3a8a:	2024      	movs	r0, #36	; 0x24
    3a8c:	4798      	blx	r3
    3a8e:	f8d4 321c 	ldr.w	r3, [r4, #540]	; 0x21c
    3a92:	b11b      	cbz	r3, 3a9c <IRQHandler_52+0x1c>
    3a94:	2024      	movs	r0, #36	; 0x24
    3a96:	e8bd 4010 	ldmia.w	sp!, {r4, lr}
    3a9a:	4718      	bx	r3
    3a9c:	bd10      	pop	{r4, pc}
    3a9e:	bf00      	nop
    3aa0:	2000038c 	andcs	r0, r0, ip, lsl #7

00003aa4 <IRQHandler_53>:
    3aa4:	b510      	push	{r4, lr}
    3aa6:	4c07      	ldr	r4, [pc, #28]	; (3ac4 <IRQHandler_53+0x20>)
    3aa8:	f8d4 3094 	ldr.w	r3, [r4, #148]	; 0x94
    3aac:	b10b      	cbz	r3, 3ab2 <IRQHandler_53+0xe>
    3aae:	2025      	movs	r0, #37	; 0x25
    3ab0:	4798      	blx	r3
    3ab2:	f8d4 3220 	ldr.w	r3, [r4, #544]	; 0x220
    3ab6:	b11b      	cbz	r3, 3ac0 <IRQHandler_53+0x1c>
    3ab8:	2025      	movs	r0, #37	; 0x25
    3aba:	e8bd 4010 	ldmia.w	sp!, {r4, lr}
    3abe:	4718      	bx	r3
    3ac0:	bd10      	pop	{r4, pc}
    3ac2:	bf00      	nop
    3ac4:	2000038c 	andcs	r0, r0, ip, lsl #7

00003ac8 <IRQHandler_54>:
    3ac8:	b510      	push	{r4, lr}
    3aca:	4c07      	ldr	r4, [pc, #28]	; (3ae8 <IRQHandler_54+0x20>)
    3acc:	f8d4 3098 	ldr.w	r3, [r4, #152]	; 0x98
    3ad0:	b10b      	cbz	r3, 3ad6 <IRQHandler_54+0xe>
    3ad2:	2026      	movs	r0, #38	; 0x26
    3ad4:	4798      	blx	r3
    3ad6:	f8d4 3224 	ldr.w	r3, [r4, #548]	; 0x224
    3ada:	b11b      	cbz	r3, 3ae4 <IRQHandler_54+0x1c>
    3adc:	2026      	movs	r0, #38	; 0x26
    3ade:	e8bd 4010 	ldmia.w	sp!, {r4, lr}
    3ae2:	4718      	bx	r3
    3ae4:	bd10      	pop	{r4, pc}
    3ae6:	bf00      	nop
    3ae8:	2000038c 	andcs	r0, r0, ip, lsl #7

00003aec <IRQHandler_55>:
    3aec:	b510      	push	{r4, lr}
    3aee:	4c07      	ldr	r4, [pc, #28]	; (3b0c <IRQHandler_55+0x20>)
    3af0:	f8d4 309c 	ldr.w	r3, [r4, #156]	; 0x9c
    3af4:	b10b      	cbz	r3, 3afa <IRQHandler_55+0xe>
    3af6:	2027      	movs	r0, #39	; 0x27
    3af8:	4798      	blx	r3
    3afa:	f8d4 3228 	ldr.w	r3, [r4, #552]	; 0x228
    3afe:	b11b      	cbz	r3, 3b08 <IRQHandler_55+0x1c>
    3b00:	2027      	movs	r0, #39	; 0x27
    3b02:	e8bd 4010 	ldmia.w	sp!, {r4, lr}
    3b06:	4718      	bx	r3
    3b08:	bd10      	pop	{r4, pc}
    3b0a:	bf00      	nop
    3b0c:	2000038c 	andcs	r0, r0, ip, lsl #7

00003b10 <IRQHandler_56>:
    3b10:	b510      	push	{r4, lr}
    3b12:	4c07      	ldr	r4, [pc, #28]	; (3b30 <IRQHandler_56+0x20>)
    3b14:	f8d4 30a0 	ldr.w	r3, [r4, #160]	; 0xa0
    3b18:	b10b      	cbz	r3, 3b1e <IRQHandler_56+0xe>
    3b1a:	2028      	movs	r0, #40	; 0x28
    3b1c:	4798      	blx	r3
    3b1e:	f8d4 322c 	ldr.w	r3, [r4, #556]	; 0x22c
    3b22:	b11b      	cbz	r3, 3b2c <IRQHandler_56+0x1c>
    3b24:	2028      	movs	r0, #40	; 0x28
    3b26:	e8bd 4010 	ldmia.w	sp!, {r4, lr}
    3b2a:	4718      	bx	r3
    3b2c:	bd10      	pop	{r4, pc}
    3b2e:	bf00      	nop
    3b30:	2000038c 	andcs	r0, r0, ip, lsl #7

00003b34 <IRQHandler_57>:
    3b34:	b510      	push	{r4, lr}
    3b36:	4c07      	ldr	r4, [pc, #28]	; (3b54 <IRQHandler_57+0x20>)
    3b38:	f8d4 30a4 	ldr.w	r3, [r4, #164]	; 0xa4
    3b3c:	b10b      	cbz	r3, 3b42 <IRQHandler_57+0xe>
    3b3e:	2029      	movs	r0, #41	; 0x29
    3b40:	4798      	blx	r3
    3b42:	f8d4 3230 	ldr.w	r3, [r4, #560]	; 0x230
    3b46:	b11b      	cbz	r3, 3b50 <IRQHandler_57+0x1c>
    3b48:	2029      	movs	r0, #41	; 0x29
    3b4a:	e8bd 4010 	ldmia.w	sp!, {r4, lr}
    3b4e:	4718      	bx	r3
    3b50:	bd10      	pop	{r4, pc}
    3b52:	bf00      	nop
    3b54:	2000038c 	andcs	r0, r0, ip, lsl #7

00003b58 <IRQHandler_58>:
    3b58:	b510      	push	{r4, lr}
    3b5a:	4c07      	ldr	r4, [pc, #28]	; (3b78 <IRQHandler_58+0x20>)
