
ar8020_gndcpu2.bin.elf:     file format elf32-littlearm


Disassembly of section .vectors:

00000000 <vectors>:
   0:	2000a000 	andcs	sl, r0, r0
   4:	00000191 	muleq	r0, r1, r1
   8:	0000153d 	andeq	r1, r0, sp, lsr r5
   c:	00001665 	andeq	r1, r0, r5, ror #12
  10:	0000153d 	andeq	r1, r0, sp, lsr r5
  14:	0000153d 	andeq	r1, r0, sp, lsr r5
  18:	0000153d 	andeq	r1, r0, sp, lsr r5
  1c:	0000153d 	andeq	r1, r0, sp, lsr r5
  20:	0000153d 	andeq	r1, r0, sp, lsr r5
  24:	0000153d 	andeq	r1, r0, sp, lsr r5
  28:	0000153d 	andeq	r1, r0, sp, lsr r5
  2c:	000001f1 	strdeq	r0, [r0], -r1
  30:	0000153d 	andeq	r1, r0, sp, lsr r5
  34:	0000153d 	andeq	r1, r0, sp, lsr r5
  38:	000001f1 	strdeq	r0, [r0], -r1
  3c:	00001531 	andeq	r1, r0, r1, lsr r5
  40:	00001679 	andeq	r1, r0, r9, ror r6
  44:	00001699 	muleq	r0, r9, r6
  48:	000016b9 			; <UNDEFINED> instruction: 0x000016b9
  4c:	000016d9 	ldrdeq	r1, [r0], -r9
  50:	000016f9 	strdeq	r1, [r0], -r9
  54:	00001719 	andeq	r1, r0, r9, lsl r7
  58:	00001739 	andeq	r1, r0, r9, lsr r7
  5c:	00001759 	andeq	r1, r0, r9, asr r7
  60:	00001779 	andeq	r1, r0, r9, ror r7
  64:	00001799 	muleq	r0, r9, r7
  68:	000017b9 			; <UNDEFINED> instruction: 0x000017b9
  6c:	000017d9 	ldrdeq	r1, [r0], -r9
  70:	000017f9 	strdeq	r1, [r0], -r9
  74:	00001819 	andeq	r1, r0, r9, lsl r8
  78:	00001839 	andeq	r1, r0, r9, lsr r8
  7c:	00001859 	andeq	r1, r0, r9, asr r8
  80:	00001879 	andeq	r1, r0, r9, ror r8
  84:	00001899 	muleq	r0, r9, r8
  88:	000018b9 			; <UNDEFINED> instruction: 0x000018b9
  8c:	000018d9 	ldrdeq	r1, [r0], -r9
  90:	000018f9 	strdeq	r1, [r0], -r9
  94:	00001919 	andeq	r1, r0, r9, lsl r9
  98:	00001939 	andeq	r1, r0, r9, lsr r9
  9c:	00001959 	andeq	r1, r0, r9, asr r9
  a0:	00001979 	andeq	r1, r0, r9, ror r9
  a4:	00001999 	muleq	r0, r9, r9
  a8:	000019b9 			; <UNDEFINED> instruction: 0x000019b9
  ac:	000019d9 	ldrdeq	r1, [r0], -r9
  b0:	000019f9 	strdeq	r1, [r0], -r9
  b4:	00001a19 	andeq	r1, r0, r9, lsl sl
  b8:	00001a39 	andeq	r1, r0, r9, lsr sl
  bc:	00001a59 	andeq	r1, r0, r9, asr sl
  c0:	00001a79 	andeq	r1, r0, r9, ror sl
  c4:	00001a9d 	muleq	r0, sp, sl
  c8:	00001ac1 	andeq	r1, r0, r1, asr #21
  cc:	00001ae5 	andeq	r1, r0, r5, ror #21
  d0:	00001b09 	andeq	r1, r0, r9, lsl #22
  d4:	00001b2d 	andeq	r1, r0, sp, lsr #22
  d8:	00001b51 	andeq	r1, r0, r1, asr fp
  dc:	00001b75 	andeq	r1, r0, r5, ror fp
  e0:	00001b99 	muleq	r0, r9, fp
  e4:	00001bbd 			; <UNDEFINED> instruction: 0x00001bbd
  e8:	00001be1 	andeq	r1, r0, r1, ror #23
  ec:	00001c05 	andeq	r1, r0, r5, lsl #24
  f0:	00001c29 	andeq	r1, r0, r9, lsr #24
  f4:	00001c4d 	andeq	r1, r0, sp, asr #24
  f8:	00001c71 	andeq	r1, r0, r1, ror ip
  fc:	00001c95 	muleq	r0, r5, ip
 100:	00001cb9 			; <UNDEFINED> instruction: 0x00001cb9
 104:	00001cdd 	ldrdeq	r1, [r0], -sp
 108:	00001d01 	andeq	r1, r0, r1, lsl #26
 10c:	00001d25 	andeq	r1, r0, r5, lsr #26
 110:	00001d49 	andeq	r1, r0, r9, asr #26
 114:	00001d6d 	andeq	r1, r0, sp, ror #26
 118:	00001d91 	muleq	r0, r1, sp
 11c:	00001db5 			; <UNDEFINED> instruction: 0x00001db5
 120:	00001dd9 	ldrdeq	r1, [r0], -r9
 124:	00001dfd 	strdeq	r1, [r0], -sp
 128:	00001e21 	andeq	r1, r0, r1, lsr #28
 12c:	00001e45 	andeq	r1, r0, r5, asr #28
 130:	00001e69 	andeq	r1, r0, r9, ror #28
 134:	00001e8d 	andeq	r1, r0, sp, lsl #29
 138:	00001eb1 			; <UNDEFINED> instruction: 0x00001eb1
 13c:	00001ed5 	ldrdeq	r1, [r0], -r5
 140:	00001ef9 	strdeq	r1, [r0], -r9
 144:	00001f1d 	andeq	r1, r0, sp, lsl pc
 148:	00001f41 	andeq	r1, r0, r1, asr #30
 14c:	00001f65 	andeq	r1, r0, r5, ror #30
 150:	00001f89 	andeq	r1, r0, r9, lsl #31
 154:	00001fad 	andeq	r1, r0, sp, lsr #31
 158:	00001fd1 	ldrdeq	r1, [r0], -r1	; <UNPREDICTABLE>
 15c:	00001ff5 	strdeq	r1, [r0], -r5
 160:	00002019 	andeq	r2, r0, r9, lsl r0
 164:	0000203d 	andeq	r2, r0, sp, lsr r0
 168:	00002061 	andeq	r2, r0, r1, rrx
 16c:	00002085 	andeq	r2, r0, r5, lsl #1
 170:	000020a9 	andeq	r2, r0, r9, lsr #1
 174:	000020cd 	andeq	r2, r0, sp, asr #1
 178:	000020f1 	strdeq	r2, [r0], -r1
 17c:	00002115 	andeq	r2, r0, r5, lsl r1
 180:	00002139 	andeq	r2, r0, r9, lsr r1
 184:	0000215d 	andeq	r2, r0, sp, asr r1
 188:	00002181 	andeq	r2, r0, r1, lsl #3
 18c:	00000002 	andeq	r0, r0, r2

Disassembly of section .start:

00000190 <Reset_Handler>:
 190:	f8df d048 	ldr.w	sp, [pc, #72]	; 1dc <loop_bss_end+0x6>
 194:	2400      	movs	r4, #0
 196:	2500      	movs	r5, #0
 198:	2600      	movs	r6, #0
 19a:	2700      	movs	r7, #0
 19c:	f05f 0800 	movs.w	r8, #0
 1a0:	f05f 0900 	movs.w	r9, #0
 1a4:	f05f 0a00 	movs.w	sl, #0
 1a8:	f05f 0b00 	movs.w	fp, #0
 1ac:	f05f 0c00 	movs.w	ip, #0
 1b0:	480b      	ldr	r0, [pc, #44]	; (1e0 <loop_bss_end+0xa>)
 1b2:	490c      	ldr	r1, [pc, #48]	; (1e4 <loop_bss_end+0xe>)
 1b4:	f04f 5200 	mov.w	r2, #536870912	; 0x20000000

000001b8 <loop_mov>:
 1b8:	4288      	cmp	r0, r1
 1ba:	d004      	beq.n	1c6 <loop_end>
 1bc:	6803      	ldr	r3, [r0, #0]
 1be:	6013      	str	r3, [r2, #0]
 1c0:	3004      	adds	r0, #4
 1c2:	3204      	adds	r2, #4
 1c4:	e7f8      	b.n	1b8 <loop_mov>

000001c6 <loop_end>:
 1c6:	4808      	ldr	r0, [pc, #32]	; (1e8 <loop_bss_end+0x12>)
 1c8:	4908      	ldr	r1, [pc, #32]	; (1ec <loop_bss_end+0x16>)
 1ca:	2200      	movs	r2, #0

000001cc <loop_bss>:
 1cc:	4288      	cmp	r0, r1
 1ce:	d002      	beq.n	1d6 <loop_bss_end>
 1d0:	6002      	str	r2, [r0, #0]
 1d2:	3004      	adds	r0, #4
 1d4:	e7fa      	b.n	1cc <loop_bss>

000001d6 <loop_bss_end>:
 1d6:	f000 f813 	bl	200 <main>
 1da:	a0000000 	andge	r0, r0, r0
 1de:	dd482000 	stclle	0, cr2, [r8, #-0]
 1e2:	e3800000 	orr	r0, r0, #0
 1e6:	06380000 	ldrteq	r0, [r8], -r0
 1ea:	52802000 	addpl	r2, r0, #0
 1ee:	e7fe2000 	ldrb	r2, [lr, r0]!

000001f0 <PendSV_Handler>:
 1f0:	e7fe      	b.n	1f0 <PendSV_Handler>
	...

Disassembly of section .text:

000001f8 <Gnd_TIM2_1_IRQHandler>:
     1f8:	200f      	movs	r0, #15
     1fa:	f000 ba83 	b.w	704 <HAL_LED_TOGGLE>
     1fe:	bf00      	nop

00000200 <main>:
     200:	b500      	push	{lr}
     202:	b083      	sub	sp, #12
     204:	a801      	add	r0, sp, #4
     206:	f000 f923 	bl	450 <HAL_SYS_CTL_GetConfig>
     20a:	9801      	ldr	r0, [sp, #4]
     20c:	f000 f926 	bl	45c <HAL_SYS_CTL_Init>
     210:	f000 fc58 	bl	ac4 <WATCHDOG_InitCpu2>
     214:	2201      	movs	r2, #1
     216:	2100      	movs	r1, #0
     218:	4811      	ldr	r0, [pc, #68]	; (260 <main+0x60>)
     21a:	f007 fd29 	bl	7c70 <DLOG_Init>
     21e:	2003      	movs	r0, #3
     220:	f007 ff08 	bl	8034 <dlog_set_output_level>
     224:	f007 ff12 	bl	804c <dlog_get_output_level>
     228:	b988      	cbnz	r0, 24e <main+0x4e>
     22a:	490e      	ldr	r1, [pc, #56]	; (264 <main+0x64>)
     22c:	480e      	ldr	r0, [pc, #56]	; (268 <main+0x68>)
     22e:	f000 fbb7 	bl	9a0 <HAL_BB_RegisterLnaFuntion>
     232:	2000      	movs	r0, #0
     234:	f000 fbb6 	bl	9a4 <HAL_BB_InitGround>
     238:	4a0c      	ldr	r2, [pc, #48]	; (26c <main+0x6c>)
     23a:	490d      	ldr	r1, [pc, #52]	; (270 <main+0x70>)
     23c:	2011      	movs	r0, #17
     23e:	f000 fa95 	bl	76c <HAL_TIMER_RegisterTimer>
     242:	f007 fb55 	bl	78f0 <SYS_EVENT_Process>
     246:	2000      	movs	r0, #0
     248:	f007 fe7a 	bl	7f40 <DLOG_Process>
     24c:	e7f9      	b.n	242 <main+0x42>
     24e:	f44f 73c6 	mov.w	r3, #396	; 0x18c
     252:	4a08      	ldr	r2, [pc, #32]	; (274 <main+0x74>)
     254:	4808      	ldr	r0, [pc, #32]	; (278 <main+0x78>)
     256:	6819      	ldr	r1, [r3, #0]
     258:	f008 fec0 	bl	8fdc <printf>
     25c:	e7e5      	b.n	22a <main+0x2a>
     25e:	bf00      	nop
     260:	000085a5 	andeq	r8, r0, r5, lsr #11
     264:	000003f9 	strdeq	r0, [r0], -r9
     268:	000003d9 	ldrdeq	r0, [r0], -r9
     26c:	000001f9 	strdeq	r0, [r0], -r9
     270:	000f4240 	andeq	r4, pc, r0, asr #4
     274:	0000b6d8 	ldrdeq	fp, [r0], -r8
     278:	0000b6e0 	andeq	fp, r0, r0, ror #13

0000027c <command_BB_add_cmds>:
     27c:	e92d 41f0 	stmdb	sp!, {r4, r5, r6, r7, r8, lr}
     280:	4616      	mov	r6, r2
     282:	2200      	movs	r2, #0
     284:	460d      	mov	r5, r1
     286:	461f      	mov	r7, r3
     288:	4611      	mov	r1, r2
     28a:	f8dd 8018 	ldr.w	r8, [sp, #24]
     28e:	f008 ff59 	bl	9144 <strtoul>
     292:	2200      	movs	r2, #0
     294:	4604      	mov	r4, r0
     296:	4628      	mov	r0, r5
     298:	4611      	mov	r1, r2
     29a:	f008 ff53 	bl	9144 <strtoul>
     29e:	2200      	movs	r2, #0
     2a0:	4605      	mov	r5, r0
     2a2:	4630      	mov	r0, r6
     2a4:	4611      	mov	r1, r2
     2a6:	f008 ff4d 	bl	9144 <strtoul>
     2aa:	2200      	movs	r2, #0
     2ac:	4606      	mov	r6, r0
     2ae:	4638      	mov	r0, r7
     2b0:	4611      	mov	r1, r2
     2b2:	f008 ff47 	bl	9144 <strtoul>
     2b6:	2200      	movs	r2, #0
     2b8:	4607      	mov	r7, r0
     2ba:	4640      	mov	r0, r8
     2bc:	4611      	mov	r1, r2
     2be:	f008 ff41 	bl	9144 <strtoul>
     2c2:	463b      	mov	r3, r7
     2c4:	9006      	str	r0, [sp, #24]
     2c6:	4632      	mov	r2, r6
     2c8:	4629      	mov	r1, r5
     2ca:	b2e0      	uxtb	r0, r4
     2cc:	e8bd 41f0 	ldmia.w	sp!, {r4, r5, r6, r7, r8, lr}
     2d0:	f00b b992 	b.w	b5f8 <__BB_add_cmds_veneer>

000002d4 <command_BB_GroundconnectToskyByRcId>:
     2d4:	b570      	push	{r4, r5, r6, lr}
     2d6:	4615      	mov	r5, r2
     2d8:	2200      	movs	r2, #0
     2da:	b084      	sub	sp, #16
     2dc:	460e      	mov	r6, r1
     2de:	4611      	mov	r1, r2
     2e0:	461c      	mov	r4, r3
     2e2:	f008 ff2f 	bl	9144 <strtoul>
     2e6:	2200      	movs	r2, #0
     2e8:	f88d 0008 	strb.w	r0, [sp, #8]
     2ec:	4630      	mov	r0, r6
     2ee:	4611      	mov	r1, r2
     2f0:	f008 ff28 	bl	9144 <strtoul>
     2f4:	2200      	movs	r2, #0
     2f6:	f88d 0009 	strb.w	r0, [sp, #9]
     2fa:	4628      	mov	r0, r5
     2fc:	4611      	mov	r1, r2
     2fe:	f008 ff21 	bl	9144 <strtoul>
     302:	2200      	movs	r2, #0
     304:	f88d 000a 	strb.w	r0, [sp, #10]
     308:	4620      	mov	r0, r4
     30a:	4611      	mov	r1, r2
     30c:	f008 ff1a 	bl	9144 <strtoul>
     310:	2200      	movs	r2, #0
     312:	f88d 000b 	strb.w	r0, [sp, #11]
     316:	4611      	mov	r1, r2
     318:	9808      	ldr	r0, [sp, #32]
     31a:	f008 ff13 	bl	9144 <strtoul>
     31e:	2200      	movs	r2, #0
     320:	f88d 000c 	strb.w	r0, [sp, #12]
     324:	4611      	mov	r1, r2
     326:	9809      	ldr	r0, [sp, #36]	; 0x24
     328:	f008 ff0c 	bl	9144 <strtoul>
     32c:	2200      	movs	r2, #0
     32e:	f88d 0004 	strb.w	r0, [sp, #4]
     332:	4611      	mov	r1, r2
     334:	980a      	ldr	r0, [sp, #40]	; 0x28
     336:	f008 ff05 	bl	9144 <strtoul>
     33a:	a901      	add	r1, sp, #4
     33c:	f88d 0005 	strb.w	r0, [sp, #5]
     340:	a802      	add	r0, sp, #8
     342:	f000 facd 	bl	8e0 <HAL_BB_GroundConnectToSkyByRcId>
     346:	b004      	add	sp, #16
     348:	bd70      	pop	{r4, r5, r6, pc}
     34a:	bf00      	nop

0000034c <command_searchRcId>:
     34c:	2200      	movs	r2, #0
     34e:	b508      	push	{r3, lr}
     350:	4611      	mov	r1, r2
     352:	f008 fef7 	bl	9144 <strtoul>
     356:	b2c0      	uxtb	r0, r0
     358:	e8bd 4008 	ldmia.w	sp!, {r3, lr}
     35c:	f000 baec 	b.w	938 <HAL_BB_SearchRcId>

00000360 <command_setSubBBch>:
     360:	2200      	movs	r2, #0
     362:	b508      	push	{r3, lr}
     364:	4611      	mov	r1, r2
     366:	f008 feed 	bl	9144 <strtoul>
     36a:	b2c0      	uxtb	r0, r0
     36c:	e8bd 4008 	ldmia.w	sp!, {r3, lr}
     370:	f000 bafc 	b.w	96c <HAL_BB_SubBandSetCH>

00000374 <command_set_loglevel>:
     374:	460b      	mov	r3, r1
     376:	2200      	movs	r2, #0
     378:	b570      	push	{r4, r5, r6, lr}
     37a:	4611      	mov	r1, r2
     37c:	4605      	mov	r5, r0
     37e:	4618      	mov	r0, r3
     380:	f008 fee0 	bl	9144 <strtoul>
     384:	4606      	mov	r6, r0
     386:	f001 f80b 	bl	13a0 <CPUINFO_GetLocalCpuId>
     38a:	4604      	mov	r4, r0
     38c:	2204      	movs	r2, #4
     38e:	4628      	mov	r0, r5
     390:	490e      	ldr	r1, [pc, #56]	; (3cc <command_set_loglevel+0x58>)
     392:	f008 feb1 	bl	90f8 <memcmp>
     396:	b92c      	cbnz	r4, 3a4 <command_set_loglevel+0x30>
     398:	b920      	cbnz	r0, 3a4 <command_set_loglevel+0x30>
     39a:	b2f0      	uxtb	r0, r6
     39c:	e8bd 4070 	ldmia.w	sp!, {r4, r5, r6, lr}
     3a0:	f007 be48 	b.w	8034 <dlog_set_output_level>
     3a4:	2204      	movs	r2, #4
     3a6:	490a      	ldr	r1, [pc, #40]	; (3d0 <command_set_loglevel+0x5c>)
     3a8:	4628      	mov	r0, r5
     3aa:	f008 fea5 	bl	90f8 <memcmp>
     3ae:	2c01      	cmp	r4, #1
     3b0:	d101      	bne.n	3b6 <command_set_loglevel+0x42>
     3b2:	2800      	cmp	r0, #0
     3b4:	d0f1      	beq.n	39a <command_set_loglevel+0x26>
     3b6:	4628      	mov	r0, r5
     3b8:	2204      	movs	r2, #4
     3ba:	4906      	ldr	r1, [pc, #24]	; (3d4 <command_set_loglevel+0x60>)
     3bc:	f008 fe9c 	bl	90f8 <memcmp>
     3c0:	2c02      	cmp	r4, #2
     3c2:	d101      	bne.n	3c8 <command_set_loglevel+0x54>
     3c4:	2800      	cmp	r0, #0
     3c6:	d0e8      	beq.n	39a <command_set_loglevel+0x26>
     3c8:	bd70      	pop	{r4, r5, r6, pc}
     3ca:	bf00      	nop
     3cc:	0000b8bc 			; <UNDEFINED> instruction: 0x0000b8bc
     3d0:	0000b8c4 	andeq	fp, r0, r4, asr #17
     3d4:	0000b8cc 	andeq	fp, r0, ip, asr #17

000003d8 <lna_open>:
     3d8:	b508      	push	{r3, lr}
     3da:	202e      	movs	r0, #46	; 0x2e
     3dc:	f000 f94c 	bl	678 <HAL_GPIO_InPut>
     3e0:	202f      	movs	r0, #47	; 0x2f
     3e2:	f000 f949 	bl	678 <HAL_GPIO_InPut>
     3e6:	2030      	movs	r0, #48	; 0x30
     3e8:	f000 f946 	bl	678 <HAL_GPIO_InPut>
     3ec:	2031      	movs	r0, #49	; 0x31
     3ee:	e8bd 4008 	ldmia.w	sp!, {r3, lr}
     3f2:	f000 b941 	b.w	678 <HAL_GPIO_InPut>
     3f6:	bf00      	nop

000003f8 <lna_bypass>:
     3f8:	b508      	push	{r3, lr}
     3fa:	202e      	movs	r0, #46	; 0x2e
     3fc:	f000 f926 	bl	64c <HAL_GPIO_OutPut>
     400:	2031      	movs	r0, #49	; 0x31
     402:	f000 f923 	bl	64c <HAL_GPIO_OutPut>
     406:	2101      	movs	r1, #1
     408:	202e      	movs	r0, #46	; 0x2e
     40a:	f000 f96f 	bl	6ec <HAL_GPIO_SetPin>
     40e:	2101      	movs	r1, #1
     410:	2031      	movs	r0, #49	; 0x31
     412:	e8bd 4008 	ldmia.w	sp!, {r3, lr}
     416:	f000 b969 	b.w	6ec <HAL_GPIO_SetPin>
     41a:	bf00      	nop

0000041c <HAL_SYS_CTL_SetCpuClk>:
     41c:	b570      	push	{r4, r5, r6, lr}
     41e:	4606      	mov	r6, r0
     420:	460d      	mov	r5, r1
     422:	f000 ffbd 	bl	13a0 <CPUINFO_GetLocalCpuId>
     426:	b108      	cbz	r0, 42c <HAL_SYS_CTL_SetCpuClk+0x10>
     428:	4808      	ldr	r0, [pc, #32]	; (44c <HAL_SYS_CTL_SetCpuClk+0x30>)
     42a:	bd70      	pop	{r4, r5, r6, pc}
     42c:	4604      	mov	r4, r0
     42e:	f002 f99d 	bl	276c <BB_SPI_init>
     432:	4630      	mov	r0, r6
     434:	4621      	mov	r1, r4
     436:	f000 fd45 	bl	ec4 <PLLCTRL_SetCoreClk>
     43a:	4628      	mov	r0, r5
     43c:	2102      	movs	r1, #2
     43e:	f000 fd41 	bl	ec4 <PLLCTRL_SetCoreClk>
     442:	4620      	mov	r0, r4
     444:	f002 fa1e 	bl	2884 <BB_SPI_DisableEnable>
     448:	4620      	mov	r0, r4
     44a:	bd70      	pop	{r4, r5, r6, pc}
     44c:	00060002 	andeq	r0, r6, r2

00000450 <HAL_SYS_CTL_GetConfig>:
     450:	4b01      	ldr	r3, [pc, #4]	; (458 <HAL_SYS_CTL_GetConfig+0x8>)
     452:	6003      	str	r3, [r0, #0]
     454:	2000      	movs	r0, #0
     456:	4770      	bx	lr
     458:	20000060 	andcs	r0, r0, r0, rrx

0000045c <HAL_SYS_CTL_Init>:
     45c:	b510      	push	{r4, lr}
     45e:	2300      	movs	r3, #0
     460:	b082      	sub	sp, #8
     462:	4c38      	ldr	r4, [pc, #224]	; (544 <HAL_SYS_CTL_Init+0xe8>)
     464:	f8ad 3006 	strh.w	r3, [sp, #6]
     468:	4298      	cmp	r0, r3
     46a:	bf18      	it	ne
     46c:	4604      	movne	r4, r0
     46e:	f000 ff97 	bl	13a0 <CPUINFO_GetLocalCpuId>
     472:	2800      	cmp	r0, #0
     474:	d150      	bne.n	518 <HAL_SYS_CTL_Init+0xbc>
     476:	7aa3      	ldrb	r3, [r4, #10]
     478:	4833      	ldr	r0, [pc, #204]	; (548 <HAL_SYS_CTL_Init+0xec>)
     47a:	2b00      	cmp	r3, #0
     47c:	bf14      	ite	ne
     47e:	2103      	movne	r1, #3
     480:	2101      	moveq	r1, #1
     482:	f000 fb37 	bl	af4 <Reg_Write32>
     486:	7aa3      	ldrb	r3, [r4, #10]
     488:	2b00      	cmp	r3, #0
     48a:	d04b      	beq.n	524 <HAL_SYS_CTL_Init+0xc8>
     48c:	f007 fec8 	bl	8220 <COMMON_driverMutexInit>
     490:	f005 ffa6 	bl	63e0 <BB_ComClearResource>
     494:	f000 fb38 	bl	b08 <InterCore_Init>
     498:	2002      	movs	r0, #2
     49a:	f000 fa95 	bl	9c8 <HAL_NVIC_SetPriorityGrouping>
     49e:	8861      	ldrh	r1, [r4, #2]
     4a0:	8820      	ldrh	r0, [r4, #0]
     4a2:	f7ff ffbb 	bl	41c <HAL_SYS_CTL_SetCpuClk>
     4a6:	f000 ff7b 	bl	13a0 <CPUINFO_GetLocalCpuId>
     4aa:	b910      	cbnz	r0, 4b2 <HAL_SYS_CTL_Init+0x56>
     4ac:	4b27      	ldr	r3, [pc, #156]	; (54c <HAL_SYS_CTL_Init+0xf0>)
     4ae:	4a28      	ldr	r2, [pc, #160]	; (550 <HAL_SYS_CTL_Init+0xf4>)
     4b0:	601a      	str	r2, [r3, #0]
     4b2:	f000 fd57 	bl	f64 <PLLCTRL_CheckCoreClkReady>
     4b6:	2800      	cmp	r0, #0
     4b8:	d0fb      	beq.n	4b2 <HAL_SYS_CTL_Init+0x56>
     4ba:	7923      	ldrb	r3, [r4, #4]
     4bc:	2b01      	cmp	r3, #1
     4be:	d03e      	beq.n	53e <HAL_SYS_CTL_Init+0xe2>
     4c0:	b90b      	cbnz	r3, 4c6 <HAL_SYS_CTL_Init+0x6a>
     4c2:	f000 ff65 	bl	1390 <FPU_AccessDisable>
     4c6:	2200      	movs	r2, #0
     4c8:	211f      	movs	r1, #31
     4ca:	f04f 30ff 	mov.w	r0, #4294967295
     4ce:	f000 fa8f 	bl	9f0 <HAL_NVIC_SetPriority>
     4d2:	f000 ff65 	bl	13a0 <CPUINFO_GetLocalCpuId>
     4d6:	4601      	mov	r1, r0
     4d8:	f10d 0006 	add.w	r0, sp, #6
     4dc:	f000 fd36 	bl	f4c <PLLCTRL_GetCoreClk>
     4e0:	f8bd 2006 	ldrh.w	r2, [sp, #6]
     4e4:	4b1b      	ldr	r3, [pc, #108]	; (554 <HAL_SYS_CTL_Init+0xf8>)
     4e6:	21f8      	movs	r1, #248	; 0xf8
     4e8:	8920      	ldrh	r0, [r4, #8]
     4ea:	fb03 f302 	mul.w	r3, r3, r2
     4ee:	4a1a      	ldr	r2, [pc, #104]	; (558 <HAL_SYS_CTL_Init+0xfc>)
     4f0:	fbb3 f0f0 	udiv	r0, r3, r0
     4f4:	f882 1023 	strb.w	r1, [r2, #35]	; 0x23
     4f8:	f000 fc34 	bl	d64 <SysTicks_Init>
     4fc:	200a      	movs	r0, #10
     4fe:	f000 fcb3 	bl	e68 <SysTicks_DelayMS>
     502:	7960      	ldrb	r0, [r4, #5]
     504:	f000 ff50 	bl	13a8 <CPUINFO_ICacheEnable>
     508:	79a0      	ldrb	r0, [r4, #6]
     50a:	f000 ff7b 	bl	1404 <CPUINFO_DCacheEnable>
     50e:	f008 f995 	bl	883c <cpp_run_init_array>
     512:	2000      	movs	r0, #0
     514:	b002      	add	sp, #8
     516:	bd10      	pop	{r4, pc}
     518:	490c      	ldr	r1, [pc, #48]	; (54c <HAL_SYS_CTL_Init+0xf0>)
     51a:	4a0d      	ldr	r2, [pc, #52]	; (550 <HAL_SYS_CTL_Init+0xf4>)
     51c:	680b      	ldr	r3, [r1, #0]
     51e:	4293      	cmp	r3, r2
     520:	d1fc      	bne.n	51c <HAL_SYS_CTL_Init+0xc0>
     522:	e7b7      	b.n	494 <HAL_SYS_CTL_Init+0x38>
     524:	490d      	ldr	r1, [pc, #52]	; (55c <HAL_SYS_CTL_Init+0x100>)
     526:	480e      	ldr	r0, [pc, #56]	; (560 <HAL_SYS_CTL_Init+0x104>)
     528:	f000 fae4 	bl	af4 <Reg_Write32>
     52c:	490d      	ldr	r1, [pc, #52]	; (564 <HAL_SYS_CTL_Init+0x108>)
     52e:	480e      	ldr	r0, [pc, #56]	; (568 <HAL_SYS_CTL_Init+0x10c>)
     530:	f000 fae0 	bl	af4 <Reg_Write32>
     534:	2136      	movs	r1, #54	; 0x36
     536:	480d      	ldr	r0, [pc, #52]	; (56c <HAL_SYS_CTL_Init+0x110>)
     538:	f000 fadc 	bl	af4 <Reg_Write32>
     53c:	e7a6      	b.n	48c <HAL_SYS_CTL_Init+0x30>
     53e:	f000 ff1f 	bl	1380 <FPU_AccessEnable>
     542:	e7c0      	b.n	4c6 <HAL_SYS_CTL_Init+0x6a>
     544:	20000060 	andcs	r0, r0, r0, rrx
     548:	40b00068 	adcsmi	r0, r0, r8, rrx
     54c:	40b00048 	adcsmi	r0, r0, r8, asr #32
     550:	35533553 	ldrbcc	r3, [r3, #-1363]	; 0xfffffaad
     554:	000f4240 	andeq	r4, pc, r0, asr #4
     558:	e000ed00 	and	lr, r0, r0, lsl #26
     55c:	81c00000 	bichi	r0, r0, r0
     560:	a003007c 	andge	r0, r3, ip, ror r0
     564:	81d00000 	bicshi	r0, r0, r0
     568:	a0030080 	andge	r0, r3, r0, lsl #1
     56c:	a0030084 	andge	r0, r3, r4, lsl #1

00000570 <GPIO_VectorFunctionN3>:
     570:	b5f8      	push	{r3, r4, r5, r6, r7, lr}
     572:	4607      	mov	r7, r0
     574:	f000 fe66 	bl	1244 <GPIO_Intr_GetIntrGroupStatus>
     578:	b2c6      	uxtb	r6, r0
     57a:	4d0a      	ldr	r5, [pc, #40]	; (5a4 <GPIO_VectorFunctionN3+0x34>)
     57c:	4638      	mov	r0, r7
     57e:	2400      	movs	r4, #0
     580:	4631      	mov	r1, r6
     582:	f000 fe7d 	bl	1280 <GPIO_Intr_ClearIntrGroup>
     586:	fa46 f304 	asr.w	r3, r6, r4
     58a:	3401      	adds	r4, #1
     58c:	f013 0f01 	tst.w	r3, #1
     590:	d003      	beq.n	59a <GPIO_VectorFunctionN3+0x2a>
     592:	682b      	ldr	r3, [r5, #0]
     594:	4638      	mov	r0, r7
     596:	b103      	cbz	r3, 59a <GPIO_VectorFunctionN3+0x2a>
     598:	4798      	blx	r3
     59a:	2c08      	cmp	r4, #8
     59c:	f105 0504 	add.w	r5, r5, #4
     5a0:	d1f1      	bne.n	586 <GPIO_VectorFunctionN3+0x16>
     5a2:	bdf8      	pop	{r3, r4, r5, r6, r7, pc}
     5a4:	20000698 	mulcs	r0, r8, r6

000005a8 <GPIO_VectorFunctionN2>:
     5a8:	b5f8      	push	{r3, r4, r5, r6, r7, lr}
     5aa:	4607      	mov	r7, r0
     5ac:	f000 fe4a 	bl	1244 <GPIO_Intr_GetIntrGroupStatus>
     5b0:	b2c6      	uxtb	r6, r0
     5b2:	4d0a      	ldr	r5, [pc, #40]	; (5dc <GPIO_VectorFunctionN2+0x34>)
     5b4:	4638      	mov	r0, r7
     5b6:	2400      	movs	r4, #0
     5b8:	4631      	mov	r1, r6
     5ba:	f000 fe61 	bl	1280 <GPIO_Intr_ClearIntrGroup>
     5be:	fa46 f304 	asr.w	r3, r6, r4
     5c2:	3401      	adds	r4, #1
     5c4:	f013 0f01 	tst.w	r3, #1
     5c8:	d003      	beq.n	5d2 <GPIO_VectorFunctionN2+0x2a>
     5ca:	682b      	ldr	r3, [r5, #0]
     5cc:	4638      	mov	r0, r7
     5ce:	b103      	cbz	r3, 5d2 <GPIO_VectorFunctionN2+0x2a>
     5d0:	4798      	blx	r3
     5d2:	2c08      	cmp	r4, #8
     5d4:	f105 0504 	add.w	r5, r5, #4
     5d8:	d1f1      	bne.n	5be <GPIO_VectorFunctionN2+0x16>
     5da:	bdf8      	pop	{r3, r4, r5, r6, r7, pc}
     5dc:	20000678 	andcs	r0, r0, r8, ror r6

000005e0 <GPIO_VectorFunctionN1>:
     5e0:	b5f8      	push	{r3, r4, r5, r6, r7, lr}
     5e2:	4607      	mov	r7, r0
     5e4:	f000 fe2e 	bl	1244 <GPIO_Intr_GetIntrGroupStatus>
     5e8:	b2c6      	uxtb	r6, r0
     5ea:	4d0a      	ldr	r5, [pc, #40]	; (614 <GPIO_VectorFunctionN1+0x34>)
     5ec:	4638      	mov	r0, r7
     5ee:	2400      	movs	r4, #0
     5f0:	4631      	mov	r1, r6
     5f2:	f000 fe45 	bl	1280 <GPIO_Intr_ClearIntrGroup>
     5f6:	fa46 f304 	asr.w	r3, r6, r4
     5fa:	3401      	adds	r4, #1
     5fc:	f013 0f01 	tst.w	r3, #1
     600:	d003      	beq.n	60a <GPIO_VectorFunctionN1+0x2a>
     602:	682b      	ldr	r3, [r5, #0]
     604:	4638      	mov	r0, r7
     606:	b103      	cbz	r3, 60a <GPIO_VectorFunctionN1+0x2a>
     608:	4798      	blx	r3
     60a:	2c08      	cmp	r4, #8
     60c:	f105 0504 	add.w	r5, r5, #4
     610:	d1f1      	bne.n	5f6 <GPIO_VectorFunctionN1+0x16>
     612:	bdf8      	pop	{r3, r4, r5, r6, r7, pc}
     614:	20000658 	andcs	r0, r0, r8, asr r6

00000618 <GPIO_VectorFunctionN0>:
     618:	b5f8      	push	{r3, r4, r5, r6, r7, lr}
     61a:	4606      	mov	r6, r0
     61c:	f000 fe12 	bl	1244 <GPIO_Intr_GetIntrGroupStatus>
     620:	b2c5      	uxtb	r5, r0
     622:	2400      	movs	r4, #0
     624:	4630      	mov	r0, r6
     626:	4f08      	ldr	r7, [pc, #32]	; (648 <GPIO_VectorFunctionN0+0x30>)
     628:	4629      	mov	r1, r5
     62a:	f000 fe29 	bl	1280 <GPIO_Intr_ClearIntrGroup>
     62e:	fa45 f304 	asr.w	r3, r5, r4
     632:	07db      	lsls	r3, r3, #31
     634:	d504      	bpl.n	640 <GPIO_VectorFunctionN0+0x28>
     636:	f857 3024 	ldr.w	r3, [r7, r4, lsl #2]
     63a:	4630      	mov	r0, r6
     63c:	b103      	cbz	r3, 640 <GPIO_VectorFunctionN0+0x28>
     63e:	4798      	blx	r3
     640:	3401      	adds	r4, #1
     642:	2c08      	cmp	r4, #8
     644:	d1f3      	bne.n	62e <GPIO_VectorFunctionN0+0x16>
     646:	bdf8      	pop	{r3, r4, r5, r6, r7, pc}
     648:	20000638 	andcs	r0, r0, r8, lsr r6

0000064c <HAL_GPIO_OutPut>:
     64c:	0603      	lsls	r3, r0, #24
     64e:	d501      	bpl.n	654 <HAL_GPIO_OutPut+0x8>
     650:	4808      	ldr	r0, [pc, #32]	; (674 <HAL_GPIO_OutPut+0x28>)
     652:	4770      	bx	lr
     654:	b510      	push	{r4, lr}
     656:	4604      	mov	r4, r0
     658:	2102      	movs	r1, #2
     65a:	f000 fd5d 	bl	1118 <GPIO_SetMode>
     65e:	2101      	movs	r1, #1
     660:	4620      	mov	r0, r4
     662:	f000 fda1 	bl	11a8 <GPIO_SetPinDirect>
     666:	4620      	mov	r0, r4
     668:	2100      	movs	r1, #0
     66a:	f000 fdc5 	bl	11f8 <GPIO_SetPinCtrl>
     66e:	2000      	movs	r0, #0
     670:	bd10      	pop	{r4, pc}
     672:	bf00      	nop
     674:	00030001 	andeq	r0, r3, r1

00000678 <HAL_GPIO_InPut>:
     678:	0603      	lsls	r3, r0, #24
     67a:	d501      	bpl.n	680 <HAL_GPIO_InPut+0x8>
     67c:	4808      	ldr	r0, [pc, #32]	; (6a0 <HAL_GPIO_InPut+0x28>)
     67e:	4770      	bx	lr
     680:	b510      	push	{r4, lr}
     682:	4604      	mov	r4, r0
     684:	2102      	movs	r1, #2
     686:	f000 fd47 	bl	1118 <GPIO_SetMode>
     68a:	2100      	movs	r1, #0
     68c:	4620      	mov	r0, r4
     68e:	f000 fd8b 	bl	11a8 <GPIO_SetPinDirect>
     692:	4620      	mov	r0, r4
     694:	2100      	movs	r1, #0
     696:	f000 fdaf 	bl	11f8 <GPIO_SetPinCtrl>
     69a:	2000      	movs	r0, #0
     69c:	bd10      	pop	{r4, pc}
     69e:	bf00      	nop
     6a0:	00030001 	andeq	r0, r3, r1

000006a4 <GPIO_GetOutPin>:
     6a4:	0943      	lsrs	r3, r0, #5
     6a6:	2b03      	cmp	r3, #3
     6a8:	b510      	push	{r4, lr}
     6aa:	4604      	mov	r4, r0
     6ac:	d814      	bhi.n	6d8 <GPIO_GetOutPin+0x34>
     6ae:	4a0e      	ldr	r2, [pc, #56]	; (6e8 <GPIO_GetOutPin+0x44>)
     6b0:	f852 1023 	ldr.w	r1, [r2, r3, lsl #2]
     6b4:	f3c4 03c1 	ubfx	r3, r4, #3, #2
     6b8:	3b01      	subs	r3, #1
     6ba:	2b02      	cmp	r3, #2
     6bc:	d812      	bhi.n	6e4 <GPIO_GetOutPin+0x40>
     6be:	4a0a      	ldr	r2, [pc, #40]	; (6e8 <GPIO_GetOutPin+0x44>)
     6c0:	eb02 0383 	add.w	r3, r2, r3, lsl #2
     6c4:	6918      	ldr	r0, [r3, #16]
     6c6:	f004 0407 	and.w	r4, r4, #7
     6ca:	4408      	add	r0, r1
     6cc:	f000 fa10 	bl	af0 <Reg_Read32>
     6d0:	40e0      	lsrs	r0, r4
     6d2:	f000 0001 	and.w	r0, r0, #1
     6d6:	bd10      	pop	{r4, pc}
     6d8:	f3c4 03c1 	ubfx	r3, r4, #3, #2
     6dc:	2100      	movs	r1, #0
     6de:	3b01      	subs	r3, #1
     6e0:	2b02      	cmp	r3, #2
     6e2:	d9ec      	bls.n	6be <GPIO_GetOutPin+0x1a>
     6e4:	2000      	movs	r0, #0
     6e6:	e7ee      	b.n	6c6 <GPIO_GetOutPin+0x22>
     6e8:	0000b8e4 	andeq	fp, r0, r4, ror #17

000006ec <HAL_GPIO_SetPin>:
     6ec:	0602      	lsls	r2, r0, #24
     6ee:	d501      	bpl.n	6f4 <HAL_GPIO_SetPin+0x8>
     6f0:	4803      	ldr	r0, [pc, #12]	; (700 <HAL_GPIO_SetPin+0x14>)
     6f2:	4770      	bx	lr
     6f4:	b508      	push	{r3, lr}
     6f6:	f000 fd21 	bl	113c <GPIO_SetPin>
     6fa:	2000      	movs	r0, #0
     6fc:	bd08      	pop	{r3, pc}
     6fe:	bf00      	nop
     700:	00030001 	andeq	r0, r3, r1

00000704 <HAL_LED_TOGGLE>:
     704:	b538      	push	{r3, r4, r5, lr}
     706:	4605      	mov	r5, r0
     708:	f7ff ffcc 	bl	6a4 <GPIO_GetOutPin>
     70c:	b940      	cbnz	r0, 720 <HAL_LED_TOGGLE+0x1c>
     70e:	062a      	lsls	r2, r5, #24
     710:	d40e      	bmi.n	730 <HAL_LED_TOGGLE+0x2c>
     712:	4604      	mov	r4, r0
     714:	2101      	movs	r1, #1
     716:	4628      	mov	r0, r5
     718:	f000 fd10 	bl	113c <GPIO_SetPin>
     71c:	4620      	mov	r0, r4
     71e:	bd38      	pop	{r3, r4, r5, pc}
     720:	062b      	lsls	r3, r5, #24
     722:	d405      	bmi.n	730 <HAL_LED_TOGGLE+0x2c>
     724:	4628      	mov	r0, r5
     726:	2100      	movs	r1, #0
     728:	f000 fd08 	bl	113c <GPIO_SetPin>
     72c:	2000      	movs	r0, #0
     72e:	bd38      	pop	{r3, r4, r5, pc}
     730:	4800      	ldr	r0, [pc, #0]	; (734 <HAL_LED_TOGGLE+0x30>)
     732:	bd38      	pop	{r3, r4, r5, pc}
     734:	00030001 	andeq	r0, r3, r1

00000738 <TIMER_ClearNvic>:
     738:	3809      	subs	r0, #9
     73a:	2817      	cmp	r0, #23
     73c:	d900      	bls.n	740 <TIMER_ClearNvic+0x8>
     73e:	4770      	bx	lr
     740:	2303      	movs	r3, #3
     742:	b2c0      	uxtb	r0, r0
     744:	2100      	movs	r1, #0
     746:	fa20 f203 	lsr.w	r2, r0, r3
     74a:	f000 0007 	and.w	r0, r0, #7
     74e:	b500      	push	{lr}
     750:	b083      	sub	sp, #12
     752:	9101      	str	r1, [sp, #4]
     754:	f88d 2004 	strb.w	r2, [sp, #4]
     758:	f88d 0005 	strb.w	r0, [sp, #5]
     75c:	f88d 3006 	strb.w	r3, [sp, #6]
     760:	9801      	ldr	r0, [sp, #4]
     762:	f000 fc0b 	bl	f7c <TIM_ClearNvic>
     766:	b003      	add	sp, #12
     768:	f85d fb04 	ldr.w	pc, [sp], #4

0000076c <HAL_TIMER_RegisterTimer>:
     76c:	2817      	cmp	r0, #23
     76e:	d901      	bls.n	774 <HAL_TIMER_RegisterTimer+0x8>
     770:	4827      	ldr	r0, [pc, #156]	; (810 <HAL_TIMER_RegisterTimer+0xa4>)
     772:	4770      	bx	lr
     774:	b5f0      	push	{r4, r5, r6, r7, lr}
     776:	460e      	mov	r6, r1
     778:	b083      	sub	sp, #12
     77a:	4601      	mov	r1, r0
     77c:	4604      	mov	r4, r0
     77e:	2004      	movs	r0, #4
     780:	4617      	mov	r7, r2
     782:	f007 fe13 	bl	83ac <COMMON_driverMutexGet>
     786:	3001      	adds	r0, #1
     788:	d031      	beq.n	7ee <HAL_TIMER_RegisterTimer+0x82>
     78a:	4621      	mov	r1, r4
     78c:	2004      	movs	r0, #4
     78e:	f007 fd4f 	bl	8230 <COMMON_driverMutexSet>
     792:	4621      	mov	r1, r4
     794:	2004      	movs	r0, #4
     796:	2500      	movs	r5, #0
     798:	f007 fd08 	bl	81ac <COMMON_driverInitSet>
     79c:	f004 0207 	and.w	r2, r4, #7
     7a0:	2303      	movs	r3, #3
     7a2:	08e0      	lsrs	r0, r4, #3
     7a4:	3409      	adds	r4, #9
     7a6:	9501      	str	r5, [sp, #4]
     7a8:	f88d 3006 	strb.w	r3, [sp, #6]
     7ac:	4631      	mov	r1, r6
     7ae:	b2e4      	uxtb	r4, r4
     7b0:	f88d 2005 	strb.w	r2, [sp, #5]
     7b4:	f88d 0004 	strb.w	r0, [sp, #4]
     7b8:	2648      	movs	r6, #72	; 0x48
     7ba:	9801      	ldr	r0, [sp, #4]
     7bc:	f000 fc6c 	bl	1098 <TIM_RegisterTimer>
     7c0:	4639      	mov	r1, r7
     7c2:	4a14      	ldr	r2, [pc, #80]	; (814 <HAL_TIMER_RegisterTimer+0xa8>)
     7c4:	b260      	sxtb	r0, r4
     7c6:	f000 fe9f 	bl	1508 <reg_IrqHandle>
     7ca:	f004 011f 	and.w	r1, r4, #31
     7ce:	2301      	movs	r3, #1
     7d0:	4a11      	ldr	r2, [pc, #68]	; (818 <HAL_TIMER_RegisterTimer+0xac>)
     7d2:	0960      	lsrs	r0, r4, #5
     7d4:	408b      	lsls	r3, r1
     7d6:	4422      	add	r2, r4
     7d8:	490f      	ldr	r1, [pc, #60]	; (818 <HAL_TIMER_RegisterTimer+0xac>)
     7da:	f882 6300 	strb.w	r6, [r2, #768]	; 0x300
     7de:	f841 3020 	str.w	r3, [r1, r0, lsl #2]
     7e2:	9801      	ldr	r0, [sp, #4]
     7e4:	f000 fc30 	bl	1048 <TIM_StartTimer>
     7e8:	4628      	mov	r0, r5
     7ea:	b003      	add	sp, #12
     7ec:	bdf0      	pop	{r4, r5, r6, r7, pc}
     7ee:	f007 fc2d 	bl	804c <dlog_get_output_level>
     7f2:	2801      	cmp	r0, #1
     7f4:	d909      	bls.n	80a <HAL_TIMER_RegisterTimer+0x9e>
     7f6:	f44f 71c6 	mov.w	r1, #396	; 0x18c
     7fa:	4623      	mov	r3, r4
     7fc:	4a07      	ldr	r2, [pc, #28]	; (81c <HAL_TIMER_RegisterTimer+0xb0>)
     7fe:	6809      	ldr	r1, [r1, #0]
     800:	4807      	ldr	r0, [pc, #28]	; (820 <HAL_TIMER_RegisterTimer+0xb4>)
     802:	f008 fbeb 	bl	8fdc <printf>
     806:	20fd      	movs	r0, #253	; 0xfd
     808:	e7ef      	b.n	7ea <HAL_TIMER_RegisterTimer+0x7e>
     80a:	20fd      	movs	r0, #253	; 0xfd
     80c:	e7ed      	b.n	7ea <HAL_TIMER_RegisterTimer+0x7e>
     80e:	bf00      	nop
     810:	00040001 	andeq	r0, r4, r1
     814:	00000739 	andeq	r0, r0, r9, lsr r7
     818:	e000e100 	and	lr, r0, r0, lsl #2
     81c:	0000b910 	andeq	fp, r0, r0, lsl r9
     820:	0000b948 	andeq	fp, r0, r8, asr #18

00000824 <HAL_UART_Init>:
     824:	2807      	cmp	r0, #7
     826:	d809      	bhi.n	83c <HAL_UART_Init+0x18>
     828:	2908      	cmp	r1, #8
     82a:	e92d 41f0 	stmdb	sp!, {r4, r5, r6, r7, r8, lr}
     82e:	bf94      	ite	ls
     830:	2400      	movls	r4, #0
     832:	2401      	movhi	r4, #1
     834:	b124      	cbz	r4, 840 <HAL_UART_Init+0x1c>
     836:	4826      	ldr	r0, [pc, #152]	; (8d0 <HAL_UART_Init+0xac>)
     838:	e8bd 81f0 	ldmia.w	sp!, {r4, r5, r6, r7, r8, pc}
     83c:	4824      	ldr	r0, [pc, #144]	; (8d0 <HAL_UART_Init+0xac>)
     83e:	4770      	bx	lr
     840:	460e      	mov	r6, r1
     842:	4605      	mov	r5, r0
     844:	4601      	mov	r1, r0
     846:	4620      	mov	r0, r4
     848:	4617      	mov	r7, r2
     84a:	f007 fdaf 	bl	83ac <COMMON_driverMutexGet>
     84e:	3001      	adds	r0, #1
     850:	d029      	beq.n	8a6 <HAL_UART_Init+0x82>
     852:	fa4f f885 	sxtb.w	r8, r5
     856:	4629      	mov	r1, r5
     858:	4620      	mov	r0, r4
     85a:	f007 fce9 	bl	8230 <COMMON_driverMutexSet>
     85e:	4629      	mov	r1, r5
     860:	4620      	mov	r0, r4
     862:	f007 fca3 	bl	81ac <COMMON_driverInitSet>
     866:	4640      	mov	r0, r8
     868:	f000 f90e 	bl	a88 <HAL_NVIC_DisableIrq>
     86c:	4639      	mov	r1, r7
     86e:	4628      	mov	r0, r5
     870:	f001 ff6c 	bl	274c <UART_RegisterUserRxHandler>
     874:	4917      	ldr	r1, [pc, #92]	; (8d4 <HAL_UART_Init+0xb0>)
     876:	4622      	mov	r2, r4
     878:	4640      	mov	r0, r8
     87a:	eb01 0686 	add.w	r6, r1, r6, lsl #2
     87e:	2105      	movs	r1, #5
     880:	6936      	ldr	r6, [r6, #16]
     882:	f000 f8b5 	bl	9f0 <HAL_NVIC_SetPriority>
     886:	4914      	ldr	r1, [pc, #80]	; (8d8 <HAL_UART_Init+0xb4>)
     888:	4622      	mov	r2, r4
     88a:	4640      	mov	r0, r8
     88c:	f000 f896 	bl	9bc <HAL_NVIC_RegisterHandler>
     890:	4631      	mov	r1, r6
     892:	4628      	mov	r0, r5
     894:	f001 fcac 	bl	21f0 <uart_init>
     898:	b1a7      	cbz	r7, 8c4 <HAL_UART_Init+0xa0>
     89a:	4640      	mov	r0, r8
     89c:	f000 f8e4 	bl	a68 <HAL_NVIC_EnableIrq>
     8a0:	4620      	mov	r0, r4
     8a2:	e8bd 81f0 	ldmia.w	sp!, {r4, r5, r6, r7, r8, pc}
     8a6:	f007 fbd1 	bl	804c <dlog_get_output_level>
     8aa:	2801      	cmp	r0, #1
     8ac:	d90d      	bls.n	8ca <HAL_UART_Init+0xa6>
     8ae:	f44f 71c6 	mov.w	r1, #396	; 0x18c
     8b2:	462b      	mov	r3, r5
     8b4:	4a07      	ldr	r2, [pc, #28]	; (8d4 <HAL_UART_Init+0xb0>)
     8b6:	6809      	ldr	r1, [r1, #0]
     8b8:	4808      	ldr	r0, [pc, #32]	; (8dc <HAL_UART_Init+0xb8>)
     8ba:	f008 fb8f 	bl	8fdc <printf>
     8be:	20fd      	movs	r0, #253	; 0xfd
     8c0:	e8bd 81f0 	ldmia.w	sp!, {r4, r5, r6, r7, r8, pc}
     8c4:	4638      	mov	r0, r7
     8c6:	e8bd 81f0 	ldmia.w	sp!, {r4, r5, r6, r7, r8, pc}
     8ca:	20fd      	movs	r0, #253	; 0xfd
     8cc:	e8bd 81f0 	ldmia.w	sp!, {r4, r5, r6, r7, r8, pc}
     8d0:	000b0002 	andeq	r0, fp, r2
     8d4:	0000b984 	andeq	fp, r0, r4, lsl #19
     8d8:	000026b1 			; <UNDEFINED> instruction: 0x000026b1
     8dc:	0000b9d8 	ldrdeq	fp, [r0], -r8

000008e0 <HAL_BB_GroundConnectToSkyByRcId>:
     8e0:	b5f0      	push	{r4, r5, r6, r7, lr}
     8e2:	7842      	ldrb	r2, [r0, #1]
     8e4:	b085      	sub	sp, #20
     8e6:	460d      	mov	r5, r1
     8e8:	7803      	ldrb	r3, [r0, #0]
     8ea:	2705      	movs	r7, #5
     8ec:	0412      	lsls	r2, r2, #16
     8ee:	78c4      	ldrb	r4, [r0, #3]
     8f0:	2601      	movs	r6, #1
     8f2:	f88d 7004 	strb.w	r7, [sp, #4]
     8f6:	ea42 6203 	orr.w	r2, r2, r3, lsl #24
     8fa:	782f      	ldrb	r7, [r5, #0]
     8fc:	a901      	add	r1, sp, #4
     8fe:	7903      	ldrb	r3, [r0, #4]
     900:	4322      	orrs	r2, r4
     902:	7880      	ldrb	r0, [r0, #2]
     904:	786c      	ldrb	r4, [r5, #1]
     906:	ea43 2307 	orr.w	r3, r3, r7, lsl #8
     90a:	ea42 2200 	orr.w	r2, r2, r0, lsl #8
     90e:	4808      	ldr	r0, [pc, #32]	; (930 <HAL_BB_GroundConnectToSkyByRcId+0x50>)
     910:	ea43 4304 	orr.w	r3, r3, r4, lsl #16
     914:	f88d 6005 	strb.w	r6, [sp, #5]
     918:	9202      	str	r2, [sp, #8]
     91a:	9303      	str	r3, [sp, #12]
     91c:	f006 ffda 	bl	78d4 <SYS_EVENT_NotifyInterCore>
     920:	4b04      	ldr	r3, [pc, #16]	; (934 <HAL_BB_GroundConnectToSkyByRcId+0x54>)
     922:	2800      	cmp	r0, #0
     924:	bf0c      	ite	eq
     926:	4618      	moveq	r0, r3
     928:	2000      	movne	r0, #0
     92a:	b005      	add	sp, #20
     92c:	bdf0      	pop	{r4, r5, r6, r7, pc}
     92e:	bf00      	nop
     930:	10000004 	andne	r0, r0, r4
     934:	000f0002 	andeq	r0, pc, r2

00000938 <HAL_BB_SearchRcId>:
     938:	b500      	push	{lr}
     93a:	b085      	sub	sp, #20
     93c:	2205      	movs	r2, #5
     93e:	2300      	movs	r3, #0
     940:	9002      	str	r0, [sp, #8]
     942:	a901      	add	r1, sp, #4
     944:	4807      	ldr	r0, [pc, #28]	; (964 <HAL_BB_SearchRcId+0x2c>)
     946:	f88d 3005 	strb.w	r3, [sp, #5]
     94a:	f88d 2004 	strb.w	r2, [sp, #4]
     94e:	f006 ffc1 	bl	78d4 <SYS_EVENT_NotifyInterCore>
     952:	4b05      	ldr	r3, [pc, #20]	; (968 <HAL_BB_SearchRcId+0x30>)
     954:	2800      	cmp	r0, #0
     956:	bf0c      	ite	eq
     958:	4618      	moveq	r0, r3
     95a:	2000      	movne	r0, #0
     95c:	b005      	add	sp, #20
     95e:	f85d fb04 	ldr.w	pc, [sp], #4
     962:	bf00      	nop
     964:	10000004 	andne	r0, r0, r4
     968:	000f0002 	andeq	r0, pc, r2

0000096c <HAL_BB_SubBandSetCH>:
     96c:	b500      	push	{lr}
     96e:	b085      	sub	sp, #20
     970:	2207      	movs	r2, #7
     972:	231d      	movs	r3, #29
     974:	9002      	str	r0, [sp, #8]
     976:	a901      	add	r1, sp, #4
     978:	4807      	ldr	r0, [pc, #28]	; (998 <HAL_BB_SubBandSetCH+0x2c>)
     97a:	f88d 3005 	strb.w	r3, [sp, #5]
     97e:	f88d 2004 	strb.w	r2, [sp, #4]
     982:	f006 ffa7 	bl	78d4 <SYS_EVENT_NotifyInterCore>
     986:	4b05      	ldr	r3, [pc, #20]	; (99c <HAL_BB_SubBandSetCH+0x30>)
     988:	2800      	cmp	r0, #0
     98a:	bf0c      	ite	eq
     98c:	4618      	moveq	r0, r3
     98e:	2000      	movne	r0, #0
     990:	b005      	add	sp, #20
     992:	f85d fb04 	ldr.w	pc, [sp], #4
     996:	bf00      	nop
     998:	10000004 	andne	r0, r0, r4
     99c:	000f0002 	andeq	r0, pc, r2

000009a0 <HAL_BB_RegisterLnaFuntion>:
     9a0:	f005 b984 	b.w	5cac <BB_Register_lna>

000009a4 <HAL_BB_InitGround>:
     9a4:	4601      	mov	r1, r0
     9a6:	4a04      	ldr	r2, [pc, #16]	; (9b8 <HAL_BB_InitGround+0x14>)
     9a8:	2001      	movs	r0, #1
     9aa:	b508      	push	{r3, lr}
     9ac:	f00a fdcc 	bl	b548 <__BB_init_veneer>
     9b0:	f002 fac2 	bl	2f38 <BB_GRD_start>
     9b4:	2000      	movs	r0, #0
     9b6:	bd08      	pop	{r3, pc}
     9b8:	2000010c 	andcs	r0, r0, ip, lsl #2

000009bc <HAL_NVIC_RegisterHandler>:
     9bc:	b508      	push	{r3, lr}
     9be:	f000 fda3 	bl	1508 <reg_IrqHandle>
     9c2:	2000      	movs	r0, #0
     9c4:	bd08      	pop	{r3, pc}
     9c6:	bf00      	nop

000009c8 <HAL_NVIC_SetPriorityGrouping>:
     9c8:	b430      	push	{r4, r5}
     9ca:	4c07      	ldr	r4, [pc, #28]	; (9e8 <HAL_NVIC_SetPriorityGrouping+0x20>)
     9cc:	f64f 01ff 	movw	r1, #63743	; 0xf8ff
     9d0:	0202      	lsls	r2, r0, #8
     9d2:	4b06      	ldr	r3, [pc, #24]	; (9ec <HAL_NVIC_SetPriorityGrouping+0x24>)
     9d4:	68e5      	ldr	r5, [r4, #12]
     9d6:	2000      	movs	r0, #0
     9d8:	f402 62e0 	and.w	r2, r2, #1792	; 0x700
     9dc:	4029      	ands	r1, r5
     9de:	430b      	orrs	r3, r1
     9e0:	4313      	orrs	r3, r2
     9e2:	60e3      	str	r3, [r4, #12]
     9e4:	bc30      	pop	{r4, r5}
     9e6:	4770      	bx	lr
     9e8:	e000ed00 	and	lr, r0, r0, lsl #26
     9ec:	05fa0000 	ldrbeq	r0, [sl, #0]!

000009f0 <HAL_NVIC_SetPriority>:
     9f0:	4b1a      	ldr	r3, [pc, #104]	; (a5c <HAL_NVIC_SetPriority+0x6c>)
     9f2:	68db      	ldr	r3, [r3, #12]
     9f4:	f3c3 2302 	ubfx	r3, r3, #8, #3
     9f8:	b430      	push	{r4, r5}
     9fa:	f1c3 0507 	rsb	r5, r3, #7
     9fe:	1d5c      	adds	r4, r3, #5
     a00:	2d05      	cmp	r5, #5
     a02:	bf28      	it	cs
     a04:	2505      	movcs	r5, #5
     a06:	2c06      	cmp	r4, #6
     a08:	d91a      	bls.n	a40 <HAL_NVIC_SetPriority+0x50>
     a0a:	3b02      	subs	r3, #2
     a0c:	2401      	movs	r4, #1
     a0e:	409c      	lsls	r4, r3
     a10:	3c01      	subs	r4, #1
     a12:	4022      	ands	r2, r4
     a14:	2401      	movs	r4, #1
     a16:	2800      	cmp	r0, #0
     a18:	fa04 f405 	lsl.w	r4, r4, r5
     a1c:	f104 34ff 	add.w	r4, r4, #4294967295
     a20:	ea01 0104 	and.w	r1, r1, r4
     a24:	fa01 f303 	lsl.w	r3, r1, r3
     a28:	ea42 0203 	orr.w	r2, r2, r3
     a2c:	db0b      	blt.n	a46 <HAL_NVIC_SetPriority+0x56>
     a2e:	00d2      	lsls	r2, r2, #3
     a30:	4b0b      	ldr	r3, [pc, #44]	; (a60 <HAL_NVIC_SetPriority+0x70>)
     a32:	b2d2      	uxtb	r2, r2
     a34:	4403      	add	r3, r0
     a36:	2000      	movs	r0, #0
     a38:	f883 2300 	strb.w	r2, [r3, #768]	; 0x300
     a3c:	bc30      	pop	{r4, r5}
     a3e:	4770      	bx	lr
     a40:	2200      	movs	r2, #0
     a42:	4613      	mov	r3, r2
     a44:	e7e6      	b.n	a14 <HAL_NVIC_SetPriority+0x24>
     a46:	f000 000f 	and.w	r0, r0, #15
     a4a:	00d2      	lsls	r2, r2, #3
     a4c:	4b05      	ldr	r3, [pc, #20]	; (a64 <HAL_NVIC_SetPriority+0x74>)
     a4e:	b2d2      	uxtb	r2, r2
     a50:	4403      	add	r3, r0
     a52:	2000      	movs	r0, #0
     a54:	761a      	strb	r2, [r3, #24]
     a56:	bc30      	pop	{r4, r5}
     a58:	4770      	bx	lr
     a5a:	bf00      	nop
     a5c:	e000ed00 	and	lr, r0, r0, lsl #26
     a60:	e000e100 	and	lr, r0, r0, lsl #2
     a64:	e000ecfc 	strd	lr, [r0], -ip

00000a68 <HAL_NVIC_EnableIrq>:
     a68:	4603      	mov	r3, r0
     a6a:	2201      	movs	r2, #1
     a6c:	4905      	ldr	r1, [pc, #20]	; (a84 <HAL_NVIC_EnableIrq+0x1c>)
     a6e:	2000      	movs	r0, #0
     a70:	b410      	push	{r4}
     a72:	f003 041f 	and.w	r4, r3, #31
     a76:	095b      	lsrs	r3, r3, #5
     a78:	40a2      	lsls	r2, r4
     a7a:	f85d 4b04 	ldr.w	r4, [sp], #4
     a7e:	f841 2023 	str.w	r2, [r1, r3, lsl #2]
     a82:	4770      	bx	lr
     a84:	e000e100 	and	lr, r0, r0, lsl #2

00000a88 <HAL_NVIC_DisableIrq>:
     a88:	4603      	mov	r3, r0
     a8a:	2101      	movs	r1, #1
     a8c:	2000      	movs	r0, #0
     a8e:	095a      	lsrs	r2, r3, #5
     a90:	f003 031f 	and.w	r3, r3, #31
     a94:	b410      	push	{r4}
     a96:	3220      	adds	r2, #32
     a98:	4c03      	ldr	r4, [pc, #12]	; (aa8 <HAL_NVIC_DisableIrq+0x20>)
     a9a:	fa01 f303 	lsl.w	r3, r1, r3
     a9e:	f844 3022 	str.w	r3, [r4, r2, lsl #2]
     aa2:	f85d 4b04 	ldr.w	r4, [sp], #4
     aa6:	4770      	bx	lr
     aa8:	e000e100 	and	lr, r0, r0, lsl #2

00000aac <WATCHDOG_ResetCpu2>:
     aac:	4a03      	ldr	r2, [pc, #12]	; (abc <WATCHDOG_ResetCpu2+0x10>)
     aae:	4904      	ldr	r1, [pc, #16]	; (ac0 <WATCHDOG_ResetCpu2+0x14>)
     ab0:	6813      	ldr	r3, [r2, #0]
     ab2:	3301      	adds	r3, #1
     ab4:	6013      	str	r3, [r2, #0]
     ab6:	600b      	str	r3, [r1, #0]
     ab8:	4770      	bx	lr
     aba:	bf00      	nop
     abc:	200006b8 			; <UNDEFINED> instruction: 0x200006b8
     ac0:	210042f0 	strdcs	r4, [r0, -r0]

00000ac4 <WATCHDOG_InitCpu2>:
     ac4:	4a06      	ldr	r2, [pc, #24]	; (ae0 <WATCHDOG_InitCpu2+0x1c>)
     ac6:	4907      	ldr	r1, [pc, #28]	; (ae4 <WATCHDOG_InitCpu2+0x20>)
     ac8:	6813      	ldr	r3, [r2, #0]
     aca:	4807      	ldr	r0, [pc, #28]	; (ae8 <WATCHDOG_InitCpu2+0x24>)
     acc:	3301      	adds	r3, #1
     ace:	b410      	push	{r4}
     ad0:	4c06      	ldr	r4, [pc, #24]	; (aec <WATCHDOG_InitCpu2+0x28>)
     ad2:	6013      	str	r3, [r2, #0]
     ad4:	6023      	str	r3, [r4, #0]
     ad6:	f85d 4b04 	ldr.w	r4, [sp], #4
     ada:	f006 beb9 	b.w	7850 <SYS_EVENT_RegisterHandler>
     ade:	bf00      	nop
     ae0:	200006b8 			; <UNDEFINED> instruction: 0x200006b8
     ae4:	00000aad 	andeq	r0, r0, sp, lsr #21
     ae8:	40008000 	andmi	r8, r0, r0
     aec:	210042f0 	strdcs	r4, [r0, -r0]

00000af0 <Reg_Read32>:
     af0:	6800      	ldr	r0, [r0, #0]
     af2:	4770      	bx	lr

00000af4 <Reg_Write32>:
     af4:	6001      	str	r1, [r0, #0]
     af6:	4770      	bx	lr

00000af8 <Reg_Write32_Mask>:
     af8:	6803      	ldr	r3, [r0, #0]
     afa:	4059      	eors	r1, r3
     afc:	400a      	ands	r2, r1
     afe:	405a      	eors	r2, r3
     b00:	6002      	str	r2, [r0, #0]
     b02:	4770      	bx	lr

00000b04 <write_reg32>:
     b04:	6001      	str	r1, [r0, #0]
     b06:	4770      	bx	lr

00000b08 <InterCore_Init>:
     b08:	b538      	push	{r3, r4, r5, lr}
     b0a:	f000 fc37 	bl	137c <MPU_SetUp>
     b0e:	f44f 7204 	mov.w	r2, #528	; 0x210
     b12:	2100      	movs	r1, #0
     b14:	480e      	ldr	r0, [pc, #56]	; (b50 <InterCore_Init+0x48>)
     b16:	f008 fb0b 	bl	9130 <memset>
     b1a:	4c0e      	ldr	r4, [pc, #56]	; (b54 <InterCore_Init+0x4c>)
     b1c:	f000 fcdc 	bl	14d8 <InterCore_CopyConfigureFormFlashToSRAM>
     b20:	4b0d      	ldr	r3, [pc, #52]	; (b58 <InterCore_Init+0x50>)
     b22:	2105      	movs	r1, #5
     b24:	2540      	movs	r5, #64	; 0x40
     b26:	6818      	ldr	r0, [r3, #0]
     b28:	f000 fab6 	bl	1098 <TIM_RegisterTimer>
     b2c:	2200      	movs	r2, #0
     b2e:	490b      	ldr	r1, [pc, #44]	; (b5c <InterCore_Init+0x54>)
     b30:	201d      	movs	r0, #29
     b32:	f000 fce9 	bl	1508 <reg_IrqHandle>
     b36:	f04f 5300 	mov.w	r3, #536870912	; 0x20000000
     b3a:	f884 531d 	strb.w	r5, [r4, #797]	; 0x31d
     b3e:	6023      	str	r3, [r4, #0]
     b40:	f000 fc2e 	bl	13a0 <CPUINFO_GetLocalCpuId>
     b44:	b910      	cbnz	r0, b4c <InterCore_Init+0x44>
     b46:	f884 0346 	strb.w	r0, [r4, #838]	; 0x346
     b4a:	60a5      	str	r5, [r4, #8]
     b4c:	bd38      	pop	{r3, r4, r5, pc}
     b4e:	bf00      	nop
     b50:	21004000 	mrscs	r4, (UNDEF: 0)
     b54:	e000e100 	and	lr, r0, r0, lsl #2
     b58:	0000ba00 	andeq	fp, r0, r0, lsl #20
     b5c:	00000d09 	andeq	r0, r0, r9, lsl #26

00000b60 <InterCore_SendMsg>:
     b60:	e92d 43f8 	stmdb	sp!, {r3, r4, r5, r6, r7, r8, r9, lr}
     b64:	460e      	mov	r6, r1
     b66:	4698      	mov	r8, r3
     b68:	4605      	mov	r5, r0
     b6a:	4617      	mov	r7, r2
     b6c:	f000 fc18 	bl	13a0 <CPUINFO_GetLocalCpuId>
     b70:	1c41      	adds	r1, r0, #1
     b72:	0083      	lsls	r3, r0, #2
     b74:	0089      	lsls	r1, r1, #2
     b76:	b2db      	uxtb	r3, r3
     b78:	b2c9      	uxtb	r1, r1
     b7a:	428b      	cmp	r3, r1
     b7c:	d21b      	bcs.n	bb6 <InterCore_SendMsg+0x56>
     b7e:	eb03 0283 	add.w	r2, r3, r3, lsl #2
     b82:	4686      	mov	lr, r0
     b84:	4c25      	ldr	r4, [pc, #148]	; (c1c <InterCore_SendMsg+0xbc>)
     b86:	eb03 0242 	add.w	r2, r3, r2, lsl #1
     b8a:	0092      	lsls	r2, r2, #2
     b8c:	4414      	add	r4, r2
     b8e:	f8d4 c008 	ldr.w	ip, [r4, #8]
     b92:	68e2      	ldr	r2, [r4, #12]
     b94:	6920      	ldr	r0, [r4, #16]
     b96:	ea4c 0202 	orr.w	r2, ip, r2
     b9a:	f894 c004 	ldrb.w	ip, [r4, #4]
     b9e:	4302      	orrs	r2, r0
     ba0:	4562      	cmp	r2, ip
     ba2:	d00f      	beq.n	bc4 <InterCore_SendMsg+0x64>
     ba4:	3301      	adds	r3, #1
     ba6:	4c1d      	ldr	r4, [pc, #116]	; (c1c <InterCore_SendMsg+0xbc>)
     ba8:	b2db      	uxtb	r3, r3
     baa:	eb03 0283 	add.w	r2, r3, r3, lsl #2
     bae:	4299      	cmp	r1, r3
     bb0:	eb03 0242 	add.w	r2, r3, r2, lsl #1
     bb4:	d8e9      	bhi.n	b8a <InterCore_SendMsg+0x2a>
     bb6:	f007 fa49 	bl	804c <dlog_get_output_level>
     bba:	2803      	cmp	r0, #3
     bbc:	d823      	bhi.n	c06 <InterCore_SendMsg+0xa6>
     bbe:	2000      	movs	r0, #0
     bc0:	e8bd 83f8 	ldmia.w	sp!, {r3, r4, r5, r6, r7, r8, r9, pc}
     bc4:	f04f 0901 	mov.w	r9, #1
     bc8:	4642      	mov	r2, r8
     bca:	4639      	mov	r1, r7
     bcc:	f104 001c 	add.w	r0, r4, #28
     bd0:	fa09 fe0e 	lsl.w	lr, r9, lr
     bd4:	2a10      	cmp	r2, #16
     bd6:	fa5f fe8e 	uxtb.w	lr, lr
     bda:	bf28      	it	cs
     bdc:	2210      	movcs	r2, #16
     bde:	f884 e000 	strb.w	lr, [r4]
     be2:	7823      	ldrb	r3, [r4, #0]
     be4:	ea25 0503 	bic.w	r5, r5, r3
     be8:	7125      	strb	r5, [r4, #4]
     bea:	61a6      	str	r6, [r4, #24]
     bec:	f008 fa0e 	bl	900c <memcpy>
     bf0:	2300      	movs	r3, #0
     bf2:	4a0b      	ldr	r2, [pc, #44]	; (c20 <InterCore_SendMsg+0xc0>)
     bf4:	60a3      	str	r3, [r4, #8]
     bf6:	6810      	ldr	r0, [r2, #0]
     bf8:	60e3      	str	r3, [r4, #12]
     bfa:	6123      	str	r3, [r4, #16]
     bfc:	f000 fa24 	bl	1048 <TIM_StartTimer>
     c00:	4648      	mov	r0, r9
     c02:	e8bd 83f8 	ldmia.w	sp!, {r3, r4, r5, r6, r7, r8, r9, pc}
     c06:	f44f 73c6 	mov.w	r3, #396	; 0x18c
     c0a:	4a06      	ldr	r2, [pc, #24]	; (c24 <InterCore_SendMsg+0xc4>)
     c0c:	4806      	ldr	r0, [pc, #24]	; (c28 <InterCore_SendMsg+0xc8>)
     c0e:	6819      	ldr	r1, [r3, #0]
     c10:	f008 f9e4 	bl	8fdc <printf>
     c14:	2000      	movs	r0, #0
     c16:	e8bd 83f8 	ldmia.w	sp!, {r3, r4, r5, r6, r7, r8, r9, pc}
     c1a:	bf00      	nop
     c1c:	21004000 	mrscs	r4, (UNDEF: 0)
     c20:	0000ba00 	andeq	fp, r0, r0, lsl #20
     c24:	0000ba04 	andeq	fp, r0, r4, lsl #20
     c28:	0000ba2c 	andeq	fp, r0, ip, lsr #20

00000c2c <InterCore_GetMsg>:
     c2c:	e92d 43f0 	stmdb	sp!, {r4, r5, r6, r7, r8, r9, lr}
     c30:	4606      	mov	r6, r0
     c32:	b083      	sub	sp, #12
     c34:	460f      	mov	r7, r1
     c36:	4690      	mov	r8, r2
     c38:	f000 fbb2 	bl	13a0 <CPUINFO_GetLocalCpuId>
     c3c:	2e00      	cmp	r6, #0
     c3e:	d042      	beq.n	cc6 <InterCore_GetMsg+0x9a>
     c40:	2f00      	cmp	r7, #0
     c42:	d040      	beq.n	cc6 <InterCore_GetMsg+0x9a>
     c44:	2201      	movs	r2, #1
     c46:	0083      	lsls	r3, r0, #2
     c48:	4c29      	ldr	r4, [pc, #164]	; (cf0 <InterCore_GetMsg+0xc4>)
     c4a:	fa02 f500 	lsl.w	r5, r2, r0
     c4e:	3308      	adds	r3, #8
     c50:	4928      	ldr	r1, [pc, #160]	; (cf4 <InterCore_GetMsg+0xc8>)
     c52:	b2ed      	uxtb	r5, r5
     c54:	591a      	ldr	r2, [r3, r4]
     c56:	eb03 0904 	add.w	r9, r3, r4
     c5a:	b912      	cbnz	r2, c62 <InterCore_GetMsg+0x36>
     c5c:	7922      	ldrb	r2, [r4, #4]
     c5e:	4215      	tst	r5, r2
     c60:	d106      	bne.n	c70 <InterCore_GetMsg+0x44>
     c62:	342c      	adds	r4, #44	; 0x2c
     c64:	428c      	cmp	r4, r1
     c66:	d1f5      	bne.n	c54 <InterCore_GetMsg+0x28>
     c68:	2000      	movs	r0, #0
     c6a:	b003      	add	sp, #12
     c6c:	e8bd 83f0 	ldmia.w	sp!, {r4, r5, r6, r7, r8, r9, pc}
     c70:	f007 f9ec 	bl	804c <dlog_get_output_level>
     c74:	2803      	cmp	r0, #3
     c76:	d832      	bhi.n	cde <InterCore_GetMsg+0xb2>
     c78:	4642      	mov	r2, r8
     c7a:	69a3      	ldr	r3, [r4, #24]
     c7c:	4638      	mov	r0, r7
     c7e:	f104 011c 	add.w	r1, r4, #28
     c82:	2a10      	cmp	r2, #16
     c84:	6033      	str	r3, [r6, #0]
     c86:	bf28      	it	cs
     c88:	2210      	movcs	r2, #16
     c8a:	f008 f9bf 	bl	900c <memcpy>
     c8e:	f8c9 5000 	str.w	r5, [r9]
     c92:	f3bf 8f4f 	dsb	sy
     c96:	f3bf 8f5f 	dmb	sy
     c9a:	f8d9 3000 	ldr.w	r3, [r9]
     c9e:	429d      	cmp	r5, r3
     ca0:	d00d      	beq.n	cbe <InterCore_GetMsg+0x92>
     ca2:	f007 f9d3 	bl	804c <dlog_get_output_level>
     ca6:	2801      	cmp	r0, #1
     ca8:	d909      	bls.n	cbe <InterCore_GetMsg+0x92>
     caa:	f44f 71c6 	mov.w	r1, #396	; 0x18c
     cae:	f8d9 3000 	ldr.w	r3, [r9]
     cb2:	4a11      	ldr	r2, [pc, #68]	; (cf8 <InterCore_GetMsg+0xcc>)
     cb4:	6809      	ldr	r1, [r1, #0]
     cb6:	4811      	ldr	r0, [pc, #68]	; (cfc <InterCore_GetMsg+0xd0>)
     cb8:	9500      	str	r5, [sp, #0]
     cba:	f008 f98f 	bl	8fdc <printf>
     cbe:	2001      	movs	r0, #1
     cc0:	b003      	add	sp, #12
     cc2:	e8bd 83f0 	ldmia.w	sp!, {r4, r5, r6, r7, r8, r9, pc}
     cc6:	f007 f9c1 	bl	804c <dlog_get_output_level>
     cca:	2801      	cmp	r0, #1
     ccc:	d9cc      	bls.n	c68 <InterCore_GetMsg+0x3c>
     cce:	f44f 73c6 	mov.w	r3, #396	; 0x18c
     cd2:	4a09      	ldr	r2, [pc, #36]	; (cf8 <InterCore_GetMsg+0xcc>)
     cd4:	480a      	ldr	r0, [pc, #40]	; (d00 <InterCore_GetMsg+0xd4>)
     cd6:	6819      	ldr	r1, [r3, #0]
     cd8:	f008 f980 	bl	8fdc <printf>
     cdc:	e7c4      	b.n	c68 <InterCore_GetMsg+0x3c>
     cde:	f44f 71c6 	mov.w	r1, #396	; 0x18c
     ce2:	69a3      	ldr	r3, [r4, #24]
     ce4:	4a04      	ldr	r2, [pc, #16]	; (cf8 <InterCore_GetMsg+0xcc>)
     ce6:	6809      	ldr	r1, [r1, #0]
     ce8:	4806      	ldr	r0, [pc, #24]	; (d04 <InterCore_GetMsg+0xd8>)
     cea:	f008 f977 	bl	8fdc <printf>
     cee:	e7c3      	b.n	c78 <InterCore_GetMsg+0x4c>
     cf0:	21004000 	mrscs	r4, (UNDEF: 0)
     cf4:	21004210 	tstcs	r0, r0, lsl r2
     cf8:	0000ba18 	andeq	fp, r0, r8, lsl sl
     cfc:	0000baac 	andeq	fp, r0, ip, lsr #21
     d00:	0000ba64 	andeq	fp, r0, r4, ror #20
     d04:	0000ba80 	andeq	fp, r0, r0, lsl #21

00000d08 <InterCore_IRQ0Handler>:
     d08:	b530      	push	{r4, r5, lr}
     d0a:	4813      	ldr	r0, [pc, #76]	; (d58 <InterCore_IRQ0Handler+0x50>)
     d0c:	b087      	sub	sp, #28
     d0e:	f7ff feef 	bl	af0 <Reg_Read32>
     d12:	4a12      	ldr	r2, [pc, #72]	; (d5c <InterCore_IRQ0Handler+0x54>)
     d14:	f04f 5100 	mov.w	r1, #536870912	; 0x20000000
     d18:	4b11      	ldr	r3, [pc, #68]	; (d60 <InterCore_IRQ0Handler+0x58>)
     d1a:	250c      	movs	r5, #12
     d1c:	2400      	movs	r4, #0
     d1e:	f8c2 1180 	str.w	r1, [r2, #384]	; 0x180
     d22:	6818      	ldr	r0, [r3, #0]
     d24:	f000 f966 	bl	ff4 <TIM_StopTimer>
     d28:	a902      	add	r1, sp, #8
     d2a:	2210      	movs	r2, #16
     d2c:	a801      	add	r0, sp, #4
     d2e:	9401      	str	r4, [sp, #4]
     d30:	9402      	str	r4, [sp, #8]
     d32:	9403      	str	r4, [sp, #12]
     d34:	9404      	str	r4, [sp, #16]
     d36:	9405      	str	r4, [sp, #20]
     d38:	f7ff ff78 	bl	c2c <InterCore_GetMsg>
     d3c:	9b01      	ldr	r3, [sp, #4]
     d3e:	a902      	add	r1, sp, #8
     d40:	f023 4000 	bic.w	r0, r3, #2147483648	; 0x80000000
     d44:	b12b      	cbz	r3, d52 <InterCore_IRQ0Handler+0x4a>
     d46:	f006 fdbd 	bl	78c4 <SYS_EVENT_Notify_From_ISR>
     d4a:	1e6b      	subs	r3, r5, #1
     d4c:	f013 05ff 	ands.w	r5, r3, #255	; 0xff
     d50:	d1ea      	bne.n	d28 <InterCore_IRQ0Handler+0x20>
     d52:	b007      	add	sp, #28
     d54:	bd30      	pop	{r4, r5, pc}
     d56:	bf00      	nop
     d58:	4008005c 	andmi	r0, r8, ip, asr r0
     d5c:	e000e100 	and	lr, r0, r0, lsl #2
     d60:	0000ba00 	andeq	fp, r0, r0, lsl #20

00000d64 <SysTicks_Init>:
     d64:	1e43      	subs	r3, r0, #1
     d66:	f1b3 7f80 	cmp.w	r3, #16777216	; 0x1000000
     d6a:	d20b      	bcs.n	d84 <SysTicks_Init+0x20>
     d6c:	4a06      	ldr	r2, [pc, #24]	; (d88 <SysTicks_Init+0x24>)
     d6e:	2100      	movs	r1, #0
     d70:	b430      	push	{r4, r5}
     d72:	2507      	movs	r5, #7
     d74:	4c05      	ldr	r4, [pc, #20]	; (d8c <SysTicks_Init+0x28>)
     d76:	6053      	str	r3, [r2, #4]
     d78:	4608      	mov	r0, r1
     d7a:	6091      	str	r1, [r2, #8]
     d7c:	6015      	str	r5, [r2, #0]
     d7e:	6023      	str	r3, [r4, #0]
     d80:	bc30      	pop	{r4, r5}
     d82:	4770      	bx	lr
     d84:	2001      	movs	r0, #1
     d86:	4770      	bx	lr
     d88:	e000e010 	and	lr, r0, r0, lsl r0
     d8c:	200006c0 	andcs	r0, r0, r0, asr #13

00000d90 <SysTicks_IncTickCount>:
     d90:	4a02      	ldr	r2, [pc, #8]	; (d9c <SysTicks_IncTickCount+0xc>)
     d92:	6853      	ldr	r3, [r2, #4]
     d94:	3301      	adds	r3, #1
     d96:	6053      	str	r3, [r2, #4]
     d98:	4770      	bx	lr
     d9a:	bf00      	nop
     d9c:	200006c0 	andcs	r0, r0, r0, asr #13

00000da0 <SysTicks_GetTickCount>:
     da0:	4b01      	ldr	r3, [pc, #4]	; (da8 <SysTicks_GetTickCount+0x8>)
     da2:	6858      	ldr	r0, [r3, #4]
     da4:	4770      	bx	lr
     da6:	bf00      	nop
     da8:	200006c0 	andcs	r0, r0, r0, asr #13

00000dac <SysTicks_GetUsTickCount>:
     dac:	e92d 43f0 	stmdb	sp!, {r4, r5, r6, r7, r8, r9, lr}
     db0:	4b2b      	ldr	r3, [pc, #172]	; (e60 <SysTicks_GetUsTickCount+0xb4>)
     db2:	b083      	sub	sp, #12
     db4:	4c2b      	ldr	r4, [pc, #172]	; (e64 <SysTicks_GetUsTickCount+0xb8>)
     db6:	2700      	movs	r7, #0
     db8:	689d      	ldr	r5, [r3, #8]
     dba:	f04f 0900 	mov.w	r9, #0
     dbe:	6866      	ldr	r6, [r4, #4]
     dc0:	f000 faee 	bl	13a0 <CPUINFO_GetLocalCpuId>
     dc4:	4601      	mov	r1, r0
     dc6:	f10d 0006 	add.w	r0, sp, #6
     dca:	f000 f8bf 	bl	f4c <PLLCTRL_GetCoreClk>
     dce:	46a8      	mov	r8, r5
     dd0:	e9d4 2302 	ldrd	r2, r3, [r4, #8]
     dd4:	e9d4 0104 	ldrd	r0, r1, [r4, #16]
     dd8:	429f      	cmp	r7, r3
     dda:	bf08      	it	eq
     ddc:	4296      	cmpeq	r6, r2
     dde:	d22b      	bcs.n	e38 <SysTicks_GetUsTickCount+0x8c>
     de0:	4549      	cmp	r1, r9
     de2:	bf08      	it	eq
     de4:	42a8      	cmpeq	r0, r5
     de6:	d204      	bcs.n	df2 <SysTicks_GetUsTickCount+0x46>
     de8:	3201      	adds	r2, #1
     dea:	f143 0300 	adc.w	r3, r3, #0
     dee:	e9c4 2302 	strd	r2, r3, [r4, #8]
     df2:	ea4f 0e83 	mov.w	lr, r3, lsl #2
     df6:	0090      	lsls	r0, r2, #2
     df8:	ea4e 7192 	orr.w	r1, lr, r2, lsr #30
     dfc:	0146      	lsls	r6, r0, #5
     dfe:	014f      	lsls	r7, r1, #5
     e00:	ea47 67d0 	orr.w	r7, r7, r0, lsr #27
     e04:	1a30      	subs	r0, r6, r0
     e06:	6826      	ldr	r6, [r4, #0]
     e08:	eb67 0101 	sbc.w	r1, r7, r1
     e0c:	1812      	adds	r2, r2, r0
     e0e:	eba6 0505 	sub.w	r5, r6, r5
     e12:	f8bd 0006 	ldrh.w	r0, [sp, #6]
     e16:	414b      	adcs	r3, r1
     e18:	00d6      	lsls	r6, r2, #3
     e1a:	fbb5 f0f0 	udiv	r0, r5, r0
     e1e:	00d9      	lsls	r1, r3, #3
     e20:	e9c4 8904 	strd	r8, r9, [r4, #16]
     e24:	ea41 7152 	orr.w	r1, r1, r2, lsr #29
     e28:	1834      	adds	r4, r6, r0
     e2a:	f141 0500 	adc.w	r5, r1, #0
     e2e:	4620      	mov	r0, r4
     e30:	4629      	mov	r1, r5
     e32:	b003      	add	sp, #12
     e34:	e8bd 83f0 	ldmia.w	sp!, {r4, r5, r6, r7, r8, r9, pc}
     e38:	4549      	cmp	r1, r9
     e3a:	bf08      	it	eq
     e3c:	42a8      	cmpeq	r0, r5
     e3e:	d203      	bcs.n	e48 <SysTicks_GetUsTickCount+0x9c>
     e40:	429f      	cmp	r7, r3
     e42:	bf08      	it	eq
     e44:	4296      	cmpeq	r6, r2
     e46:	d004      	beq.n	e52 <SysTicks_GetUsTickCount+0xa6>
     e48:	4632      	mov	r2, r6
     e4a:	463b      	mov	r3, r7
     e4c:	e9c4 6702 	strd	r6, r7, [r4, #8]
     e50:	e7cf      	b.n	df2 <SysTicks_GetUsTickCount+0x46>
     e52:	1c72      	adds	r2, r6, #1
     e54:	f147 0300 	adc.w	r3, r7, #0
     e58:	e9c4 2302 	strd	r2, r3, [r4, #8]
     e5c:	e7c9      	b.n	df2 <SysTicks_GetUsTickCount+0x46>
     e5e:	bf00      	nop
     e60:	e000e010 	and	lr, r0, r0, lsl r0
     e64:	200006c0 	andcs	r0, r0, r0, asr #13

00000e68 <SysTicks_DelayMS>:
     e68:	b430      	push	{r4, r5}
     e6a:	4d09      	ldr	r5, [pc, #36]	; (e90 <SysTicks_DelayMS+0x28>)
     e6c:	6869      	ldr	r1, [r5, #4]
     e6e:	686b      	ldr	r3, [r5, #4]
     e70:	1e5a      	subs	r2, r3, #1
     e72:	4299      	cmp	r1, r3
     e74:	eba3 0401 	sub.w	r4, r3, r1
     e78:	eba2 0201 	sub.w	r2, r2, r1
     e7c:	d803      	bhi.n	e86 <SysTicks_DelayMS+0x1e>
     e7e:	42a0      	cmp	r0, r4
     e80:	d8f5      	bhi.n	e6e <SysTicks_DelayMS+0x6>
     e82:	bc30      	pop	{r4, r5}
     e84:	4770      	bx	lr
     e86:	4282      	cmp	r2, r0
     e88:	d3f1      	bcc.n	e6e <SysTicks_DelayMS+0x6>
     e8a:	bc30      	pop	{r4, r5}
     e8c:	4770      	bx	lr
     e8e:	bf00      	nop
     e90:	200006c0 	andcs	r0, r0, r0, asr #13

00000e94 <SysTicks_GetDiff>:
     e94:	4281      	cmp	r1, r0
     e96:	d202      	bcs.n	e9e <SysTicks_GetDiff+0xa>
     e98:	1a09      	subs	r1, r1, r0
     e9a:	1e48      	subs	r0, r1, #1
     e9c:	4770      	bx	lr
     e9e:	1a08      	subs	r0, r1, r0
     ea0:	4770      	bx	lr
     ea2:	bf00      	nop

00000ea4 <SysTicks_GetUsDiff>:
     ea4:	428b      	cmp	r3, r1
     ea6:	bf08      	it	eq
     ea8:	4282      	cmpeq	r2, r0
     eaa:	d207      	bcs.n	ebc <SysTicks_GetUsDiff+0x18>
     eac:	1a12      	subs	r2, r2, r0
     eae:	eb63 0301 	sbc.w	r3, r3, r1
     eb2:	f112 30ff 	adds.w	r0, r2, #4294967295
     eb6:	f143 31ff 	adc.w	r1, r3, #4294967295
     eba:	4770      	bx	lr
     ebc:	1a10      	subs	r0, r2, r0
     ebe:	eb63 0101 	sbc.w	r1, r3, r1
     ec2:	4770      	bx	lr

00000ec4 <PLLCTRL_SetCoreClk>:
     ec4:	28ff      	cmp	r0, #255	; 0xff
     ec6:	b2c2      	uxtb	r2, r0
     ec8:	b538      	push	{r3, r4, r5, lr}
     eca:	4604      	mov	r4, r0
     ecc:	bf8c      	ite	hi
     ece:	2501      	movhi	r5, #1
     ed0:	2500      	movls	r5, #0
     ed2:	4b18      	ldr	r3, [pc, #96]	; (f34 <PLLCTRL_SetCoreClk+0x70>)
     ed4:	2003      	movs	r0, #3
     ed6:	2901      	cmp	r1, #1
     ed8:	6018      	str	r0, [r3, #0]
     eda:	d91a      	bls.n	f12 <PLLCTRL_SetCoreClk+0x4e>
     edc:	21a4      	movs	r1, #164	; 0xa4
     ede:	2040      	movs	r0, #64	; 0x40
     ee0:	f001 fc9a 	bl	2818 <BB_SPI_WriteByte>
     ee4:	462a      	mov	r2, r5
     ee6:	21a5      	movs	r1, #165	; 0xa5
     ee8:	2040      	movs	r0, #64	; 0x40
     eea:	f001 fc95 	bl	2818 <BB_SPI_WriteByte>
     eee:	4b12      	ldr	r3, [pc, #72]	; (f38 <PLLCTRL_SetCoreClk+0x74>)
     ef0:	4a12      	ldr	r2, [pc, #72]	; (f3c <PLLCTRL_SetCoreClk+0x78>)
     ef2:	601c      	str	r4, [r3, #0]
     ef4:	7813      	ldrb	r3, [r2, #0]
     ef6:	f043 0302 	orr.w	r3, r3, #2
     efa:	7013      	strb	r3, [r2, #0]
     efc:	f003 0303 	and.w	r3, r3, #3
     f00:	2b03      	cmp	r3, #3
     f02:	d102      	bne.n	f0a <PLLCTRL_SetCoreClk+0x46>
     f04:	4b0e      	ldr	r3, [pc, #56]	; (f40 <PLLCTRL_SetCoreClk+0x7c>)
     f06:	4a0f      	ldr	r2, [pc, #60]	; (f44 <PLLCTRL_SetCoreClk+0x80>)
     f08:	601a      	str	r2, [r3, #0]
     f0a:	4b0a      	ldr	r3, [pc, #40]	; (f34 <PLLCTRL_SetCoreClk+0x70>)
     f0c:	2200      	movs	r2, #0
     f0e:	601a      	str	r2, [r3, #0]
     f10:	bd38      	pop	{r3, r4, r5, pc}
     f12:	21a1      	movs	r1, #161	; 0xa1
     f14:	2040      	movs	r0, #64	; 0x40
     f16:	f001 fc7f 	bl	2818 <BB_SPI_WriteByte>
     f1a:	462a      	mov	r2, r5
     f1c:	21a2      	movs	r1, #162	; 0xa2
     f1e:	2040      	movs	r0, #64	; 0x40
     f20:	f001 fc7a 	bl	2818 <BB_SPI_WriteByte>
     f24:	4b08      	ldr	r3, [pc, #32]	; (f48 <PLLCTRL_SetCoreClk+0x84>)
     f26:	4a05      	ldr	r2, [pc, #20]	; (f3c <PLLCTRL_SetCoreClk+0x78>)
     f28:	601c      	str	r4, [r3, #0]
     f2a:	7813      	ldrb	r3, [r2, #0]
     f2c:	f043 0301 	orr.w	r3, r3, #1
     f30:	7013      	strb	r3, [r2, #0]
     f32:	e7e3      	b.n	efc <PLLCTRL_SetCoreClk+0x38>
     f34:	a003009c 	mulge	r3, ip, r0
     f38:	210042d8 	ldrdcs	r4, [r0, -r8]
     f3c:	200006d8 	ldrdcs	r0, [r0], -r8
     f40:	210042d0 	ldrdcs	r4, [r0, -r0]
     f44:	20a5a502 	adccs	sl, r5, r2, lsl #10
     f48:	210042d4 	ldrdcs	r4, [r0, -r4]

00000f4c <PLLCTRL_GetCoreClk>:
     f4c:	2901      	cmp	r1, #1
     f4e:	d005      	beq.n	f5c <PLLCTRL_GetCoreClk+0x10>
     f50:	d304      	bcc.n	f5c <PLLCTRL_GetCoreClk+0x10>
     f52:	2902      	cmp	r1, #2
     f54:	d105      	bne.n	f62 <PLLCTRL_GetCoreClk+0x16>
     f56:	23a6      	movs	r3, #166	; 0xa6
     f58:	8003      	strh	r3, [r0, #0]
     f5a:	4770      	bx	lr
     f5c:	23c8      	movs	r3, #200	; 0xc8
     f5e:	8003      	strh	r3, [r0, #0]
     f60:	4770      	bx	lr
     f62:	4770      	bx	lr

00000f64 <PLLCTRL_CheckCoreClkReady>:
     f64:	4a03      	ldr	r2, [pc, #12]	; (f74 <PLLCTRL_CheckCoreClkReady+0x10>)
     f66:	4b04      	ldr	r3, [pc, #16]	; (f78 <PLLCTRL_CheckCoreClkReady+0x14>)
     f68:	6810      	ldr	r0, [r2, #0]
     f6a:	1ac0      	subs	r0, r0, r3
     f6c:	fab0 f080 	clz	r0, r0
     f70:	0940      	lsrs	r0, r0, #5
     f72:	4770      	bx	lr
     f74:	210042d0 	ldrdcs	r4, [r0, -r0]
     f78:	20a5a502 	adccs	sl, r5, r2, lsl #10

00000f7c <TIM_ClearNvic>:
     f7c:	f3c0 2307 	ubfx	r3, r0, #8, #8
     f80:	b500      	push	{lr}
     f82:	2b07      	cmp	r3, #7
     f84:	b083      	sub	sp, #12
     f86:	9001      	str	r0, [sp, #4]
     f88:	d812      	bhi.n	fb0 <TIM_ClearNvic+0x34>
     f8a:	b2c0      	uxtb	r0, r0
     f8c:	2802      	cmp	r0, #2
     f8e:	d80f      	bhi.n	fb0 <TIM_ClearNvic+0x34>
     f90:	b190      	cbz	r0, fb8 <TIM_ClearNvic+0x3c>
     f92:	4a0b      	ldr	r2, [pc, #44]	; (fc0 <TIM_ClearNvic+0x44>)
     f94:	490b      	ldr	r1, [pc, #44]	; (fc4 <TIM_ClearNvic+0x48>)
     f96:	2801      	cmp	r0, #1
     f98:	bf0c      	ite	eq
     f9a:	4610      	moveq	r0, r2
     f9c:	4608      	movne	r0, r1
     f9e:	2214      	movs	r2, #20
     fa0:	fb02 0003 	mla	r0, r2, r3, r0
     fa4:	300c      	adds	r0, #12
     fa6:	f7ff fda3 	bl	af0 <Reg_Read32>
     faa:	b003      	add	sp, #12
     fac:	f85d fb04 	ldr.w	pc, [sp], #4
     fb0:	2003      	movs	r0, #3
     fb2:	b003      	add	sp, #12
     fb4:	f85d fb04 	ldr.w	pc, [sp], #4
     fb8:	f04f 4080 	mov.w	r0, #1073741824	; 0x40000000
     fbc:	e7ef      	b.n	f9e <TIM_ClearNvic+0x22>
     fbe:	bf00      	nop
     fc0:	40040000 	andmi	r0, r4, r0
     fc4:	40080000 	andmi	r0, r8, r0

00000fc8 <TIM_Config>:
     fc8:	e92d 41f0 	stmdb	sp!, {r4, r5, r6, r7, r8, lr}
     fcc:	9f06      	ldr	r7, [sp, #24]
     fce:	4604      	mov	r4, r0
     fd0:	4698      	mov	r8, r3
     fd2:	4410      	add	r0, r2
     fd4:	9d08      	ldr	r5, [sp, #32]
     fd6:	f021 0101 	bic.w	r1, r1, #1
     fda:	9e07      	ldr	r6, [sp, #28]
     fdc:	f7ff fd8a 	bl	af4 <Reg_Write32>
     fe0:	4641      	mov	r1, r8
     fe2:	19e0      	adds	r0, r4, r7
     fe4:	f7ff fd86 	bl	af4 <Reg_Write32>
     fe8:	4631      	mov	r1, r6
     fea:	1960      	adds	r0, r4, r5
     fec:	e8bd 41f0 	ldmia.w	sp!, {r4, r5, r6, r7, r8, lr}
     ff0:	f7ff bd80 	b.w	af4 <Reg_Write32>

00000ff4 <TIM_StopTimer>:
     ff4:	f3c0 2307 	ubfx	r3, r0, #8, #8
     ff8:	b500      	push	{lr}
     ffa:	2b07      	cmp	r3, #7
     ffc:	b083      	sub	sp, #12
     ffe:	9001      	str	r0, [sp, #4]
    1000:	d816      	bhi.n	1030 <TIM_StopTimer+0x3c>
    1002:	b2c0      	uxtb	r0, r0
    1004:	2802      	cmp	r0, #2
    1006:	d813      	bhi.n	1030 <TIM_StopTimer+0x3c>
    1008:	b1b0      	cbz	r0, 1038 <TIM_StopTimer+0x44>
    100a:	4a0d      	ldr	r2, [pc, #52]	; (1040 <TIM_StopTimer+0x4c>)
    100c:	490d      	ldr	r1, [pc, #52]	; (1044 <TIM_StopTimer+0x50>)
    100e:	2801      	cmp	r0, #1
    1010:	bf0c      	ite	eq
    1012:	4610      	moveq	r0, r2
    1014:	4608      	movne	r0, r1
    1016:	2214      	movs	r2, #20
    1018:	f89d 1006 	ldrb.w	r1, [sp, #6]
    101c:	fb02 0003 	mla	r0, r2, r3, r0
    1020:	f001 01fe 	and.w	r1, r1, #254	; 0xfe
    1024:	3008      	adds	r0, #8
    1026:	f7ff fd65 	bl	af4 <Reg_Write32>
    102a:	b003      	add	sp, #12
    102c:	f85d fb04 	ldr.w	pc, [sp], #4
    1030:	2003      	movs	r0, #3
    1032:	b003      	add	sp, #12
    1034:	f85d fb04 	ldr.w	pc, [sp], #4
    1038:	f04f 4080 	mov.w	r0, #1073741824	; 0x40000000
    103c:	e7eb      	b.n	1016 <TIM_StopTimer+0x22>
    103e:	bf00      	nop
    1040:	40040000 	andmi	r0, r4, r0
    1044:	40080000 	andmi	r0, r8, r0

00001048 <TIM_StartTimer>:
    1048:	f3c0 2307 	ubfx	r3, r0, #8, #8
    104c:	b500      	push	{lr}
    104e:	2b07      	cmp	r3, #7
    1050:	b083      	sub	sp, #12
    1052:	9001      	str	r0, [sp, #4]
    1054:	d814      	bhi.n	1080 <TIM_StartTimer+0x38>
    1056:	b2c0      	uxtb	r0, r0
    1058:	2802      	cmp	r0, #2
    105a:	d811      	bhi.n	1080 <TIM_StartTimer+0x38>
    105c:	b1a0      	cbz	r0, 1088 <TIM_StartTimer+0x40>
    105e:	4a0c      	ldr	r2, [pc, #48]	; (1090 <TIM_StartTimer+0x48>)
    1060:	490c      	ldr	r1, [pc, #48]	; (1094 <TIM_StartTimer+0x4c>)
    1062:	2801      	cmp	r0, #1
    1064:	bf0c      	ite	eq
    1066:	4610      	moveq	r0, r2
    1068:	4608      	movne	r0, r1
    106a:	2214      	movs	r2, #20
    106c:	f89d 1006 	ldrb.w	r1, [sp, #6]
    1070:	fb02 0003 	mla	r0, r2, r3, r0
    1074:	3008      	adds	r0, #8
    1076:	f7ff fd3d 	bl	af4 <Reg_Write32>
    107a:	b003      	add	sp, #12
    107c:	f85d fb04 	ldr.w	pc, [sp], #4
    1080:	2003      	movs	r0, #3
    1082:	b003      	add	sp, #12
    1084:	f85d fb04 	ldr.w	pc, [sp], #4
    1088:	f04f 4080 	mov.w	r0, #1073741824	; 0x40000000
    108c:	e7ed      	b.n	106a <TIM_StartTimer+0x22>
    108e:	bf00      	nop
    1090:	40040000 	andmi	r0, r4, r0
    1094:	40080000 	andmi	r0, r8, r0

00001098 <TIM_RegisterTimer>:
    1098:	b5f0      	push	{r4, r5, r6, r7, lr}
    109a:	b089      	sub	sp, #36	; 0x24
    109c:	2200      	movs	r2, #0
    109e:	460e      	mov	r6, r1
    10a0:	b2c5      	uxtb	r5, r0
    10a2:	ab08      	add	r3, sp, #32
    10a4:	9005      	str	r0, [sp, #20]
    10a6:	4611      	mov	r1, r2
    10a8:	f3c0 2407 	ubfx	r4, r0, #8, #8
    10ac:	f823 2d02 	strh.w	r2, [r3, #-2]!
    10b0:	f3c0 4707 	ubfx	r7, r0, #16, #8
    10b4:	4618      	mov	r0, r3
    10b6:	f7ff ff49 	bl	f4c <PLLCTRL_GetCoreClk>
    10ba:	f8bd 301e 	ldrh.w	r3, [sp, #30]
    10be:	085b      	lsrs	r3, r3, #1
    10c0:	f8ad 301e 	strh.w	r3, [sp, #30]
    10c4:	b1eb      	cbz	r3, 1102 <TIM_RegisterTimer+0x6a>
    10c6:	2d02      	cmp	r5, #2
    10c8:	d818      	bhi.n	10fc <TIM_RegisterTimer+0x64>
    10ca:	2c07      	cmp	r4, #7
    10cc:	d816      	bhi.n	10fc <TIM_RegisterTimer+0x64>
    10ce:	b1dd      	cbz	r5, 1108 <TIM_RegisterTimer+0x70>
    10d0:	4a0f      	ldr	r2, [pc, #60]	; (1110 <TIM_RegisterTimer+0x78>)
    10d2:	4810      	ldr	r0, [pc, #64]	; (1114 <TIM_RegisterTimer+0x7c>)
    10d4:	2d01      	cmp	r5, #1
    10d6:	bf08      	it	eq
    10d8:	4610      	moveq	r0, r2
    10da:	eb04 0284 	add.w	r2, r4, r4, lsl #2
    10de:	342c      	adds	r4, #44	; 0x2c
    10e0:	2500      	movs	r5, #0
    10e2:	fb06 f303 	mul.w	r3, r6, r3
    10e6:	0092      	lsls	r2, r2, #2
    10e8:	4639      	mov	r1, r7
    10ea:	00a4      	lsls	r4, r4, #2
    10ec:	9501      	str	r5, [sp, #4]
    10ee:	9200      	str	r2, [sp, #0]
    10f0:	3208      	adds	r2, #8
    10f2:	9402      	str	r4, [sp, #8]
    10f4:	f7ff ff68 	bl	fc8 <TIM_Config>
    10f8:	b009      	add	sp, #36	; 0x24
    10fa:	bdf0      	pop	{r4, r5, r6, r7, pc}
    10fc:	2003      	movs	r0, #3
    10fe:	b009      	add	sp, #36	; 0x24
    1100:	bdf0      	pop	{r4, r5, r6, r7, pc}
    1102:	2004      	movs	r0, #4
    1104:	b009      	add	sp, #36	; 0x24
    1106:	bdf0      	pop	{r4, r5, r6, r7, pc}
    1108:	f04f 4080 	mov.w	r0, #1073741824	; 0x40000000
    110c:	e7e5      	b.n	10da <TIM_RegisterTimer+0x42>
    110e:	bf00      	nop
    1110:	40040000 	andmi	r0, r4, r0
    1114:	40080000 	andmi	r0, r8, r0

00001118 <GPIO_SetMode>:
    1118:	b410      	push	{r4}
    111a:	0043      	lsls	r3, r0, #1
    111c:	4c06      	ldr	r4, [pc, #24]	; (1138 <GPIO_SetMode+0x20>)
    111e:	f3c0 1007 	ubfx	r0, r0, #4, #8
    1122:	2203      	movs	r2, #3
    1124:	f003 031e 	and.w	r3, r3, #30
    1128:	4404      	add	r4, r0
    112a:	4099      	lsls	r1, r3
    112c:	409a      	lsls	r2, r3
    112e:	00a0      	lsls	r0, r4, #2
    1130:	f85d 4b04 	ldr.w	r4, [sp], #4
    1134:	f7ff bce0 	b.w	af8 <Reg_Write32_Mask>
    1138:	102c001f 	eorne	r0, ip, pc, lsl r0

0000113c <GPIO_SetPin>:
    113c:	0943      	lsrs	r3, r0, #5
    113e:	b430      	push	{r4, r5}
    1140:	2b03      	cmp	r3, #3
    1142:	d824      	bhi.n	118e <GPIO_SetPin+0x52>
    1144:	e8df f003 	tbb	[pc, r3]
    1148:	181f2102 	ldmdane	pc, {r1, r8, sp}	; <UNPREDICTABLE>
    114c:	4c12      	ldr	r4, [pc, #72]	; (1198 <GPIO_SetPin+0x5c>)
    114e:	f3c0 03c1 	ubfx	r3, r0, #3, #2
    1152:	2b02      	cmp	r3, #2
    1154:	d015      	beq.n	1182 <GPIO_SetPin+0x46>
    1156:	2b03      	cmp	r3, #3
    1158:	d01b      	beq.n	1192 <GPIO_SetPin+0x56>
    115a:	2b01      	cmp	r3, #1
    115c:	bf0c      	ite	eq
    115e:	250c      	moveq	r5, #12
    1160:	2500      	movne	r5, #0
    1162:	f000 0207 	and.w	r2, r0, #7
    1166:	2301      	movs	r3, #1
    1168:	1928      	adds	r0, r5, r4
    116a:	fa03 f202 	lsl.w	r2, r3, r2
    116e:	b101      	cbz	r1, 1172 <GPIO_SetPin+0x36>
    1170:	4611      	mov	r1, r2
    1172:	bc30      	pop	{r4, r5}
    1174:	f7ff bcc0 	b.w	af8 <Reg_Write32_Mask>
    1178:	f3c0 03c1 	ubfx	r3, r0, #3, #2
    117c:	4c07      	ldr	r4, [pc, #28]	; (119c <GPIO_SetPin+0x60>)
    117e:	2b02      	cmp	r3, #2
    1180:	d1e9      	bne.n	1156 <GPIO_SetPin+0x1a>
    1182:	2518      	movs	r5, #24
    1184:	e7ed      	b.n	1162 <GPIO_SetPin+0x26>
    1186:	4c06      	ldr	r4, [pc, #24]	; (11a0 <GPIO_SetPin+0x64>)
    1188:	e7e1      	b.n	114e <GPIO_SetPin+0x12>
    118a:	4c06      	ldr	r4, [pc, #24]	; (11a4 <GPIO_SetPin+0x68>)
    118c:	e7df      	b.n	114e <GPIO_SetPin+0x12>
    118e:	bc30      	pop	{r4, r5}
    1190:	4770      	bx	lr
    1192:	2524      	movs	r5, #36	; 0x24
    1194:	e7e5      	b.n	1162 <GPIO_SetPin+0x26>
    1196:	bf00      	nop
    1198:	40400000 	submi	r0, r0, r0
    119c:	404c0000 	submi	r0, ip, r0
    11a0:	40480000 	submi	r0, r8, r0
    11a4:	40440000 	submi	r0, r4, r0

000011a8 <GPIO_SetPinDirect>:
    11a8:	b5f8      	push	{r3, r4, r5, r6, r7, lr}
    11aa:	f241 0210 	movw	r2, #4112	; 0x1010
    11ae:	f3c0 0ec1 	ubfx	lr, r0, #3, #2
    11b2:	2404      	movs	r4, #4
    11b4:	f3c0 1747 	ubfx	r7, r0, #5, #8
    11b8:	230c      	movs	r3, #12
    11ba:	460e      	mov	r6, r1
    11bc:	443a      	add	r2, r7
    11be:	f000 0507 	and.w	r5, r0, #7
    11c2:	fb13 430e 	smlabb	r3, r3, lr, r4
    11c6:	eb03 4482 	add.w	r4, r3, r2, lsl #18
    11ca:	4620      	mov	r0, r4
    11cc:	f7ff fc90 	bl	af0 <Reg_Read32>
    11d0:	2e01      	cmp	r6, #1
    11d2:	d009      	beq.n	11e8 <GPIO_SetPinDirect+0x40>
    11d4:	2101      	movs	r1, #1
    11d6:	fa01 f505 	lsl.w	r5, r1, r5
    11da:	ea20 0105 	bic.w	r1, r0, r5
    11de:	4620      	mov	r0, r4
    11e0:	e8bd 40f8 	ldmia.w	sp!, {r3, r4, r5, r6, r7, lr}
    11e4:	f7ff bc86 	b.w	af4 <Reg_Write32>
    11e8:	fa06 f105 	lsl.w	r1, r6, r5
    11ec:	4301      	orrs	r1, r0
    11ee:	4620      	mov	r0, r4
    11f0:	e8bd 40f8 	ldmia.w	sp!, {r3, r4, r5, r6, r7, lr}
    11f4:	f7ff bc7e 	b.w	af4 <Reg_Write32>

000011f8 <GPIO_SetPinCtrl>:
    11f8:	b5f8      	push	{r3, r4, r5, r6, r7, lr}
    11fa:	f241 0210 	movw	r2, #4112	; 0x1010
    11fe:	2408      	movs	r4, #8
    1200:	f3c0 0ec1 	ubfx	lr, r0, #3, #2
    1204:	f3c0 1747 	ubfx	r7, r0, #5, #8
    1208:	230c      	movs	r3, #12
    120a:	460e      	mov	r6, r1
    120c:	443a      	add	r2, r7
    120e:	f000 0507 	and.w	r5, r0, #7
    1212:	fb13 430e 	smlabb	r3, r3, lr, r4
    1216:	eb03 4482 	add.w	r4, r3, r2, lsl #18
    121a:	4620      	mov	r0, r4
    121c:	f7ff fc68 	bl	af0 <Reg_Read32>
    1220:	b13e      	cbz	r6, 1232 <GPIO_SetPinCtrl+0x3a>
    1222:	fa06 f105 	lsl.w	r1, r6, r5
    1226:	4301      	orrs	r1, r0
    1228:	4620      	mov	r0, r4
    122a:	e8bd 40f8 	ldmia.w	sp!, {r3, r4, r5, r6, r7, lr}
    122e:	f7ff bc61 	b.w	af4 <Reg_Write32>
    1232:	2101      	movs	r1, #1
    1234:	40a9      	lsls	r1, r5
    1236:	ea20 0101 	bic.w	r1, r0, r1
    123a:	4620      	mov	r0, r4
    123c:	e8bd 40f8 	ldmia.w	sp!, {r3, r4, r5, r6, r7, lr}
    1240:	f7ff bc58 	b.w	af4 <Reg_Write32>

00001244 <GPIO_Intr_GetIntrGroupStatus>:
    1244:	3832      	subs	r0, #50	; 0x32
    1246:	2803      	cmp	r0, #3
    1248:	d80f      	bhi.n	126a <GPIO_Intr_GetIntrGroupStatus+0x26>
    124a:	e8df f000 	tbb	[pc, r0]
    124e:	080b0205 	stmdaeq	fp, {r0, r2, r9}
    1252:	4807      	ldr	r0, [pc, #28]	; (1270 <GPIO_Intr_GetIntrGroupStatus+0x2c>)
    1254:	f7ff bc4c 	b.w	af0 <Reg_Read32>
    1258:	4806      	ldr	r0, [pc, #24]	; (1274 <GPIO_Intr_GetIntrGroupStatus+0x30>)
    125a:	f7ff bc49 	b.w	af0 <Reg_Read32>
    125e:	4806      	ldr	r0, [pc, #24]	; (1278 <GPIO_Intr_GetIntrGroupStatus+0x34>)
    1260:	f7ff bc46 	b.w	af0 <Reg_Read32>
    1264:	4805      	ldr	r0, [pc, #20]	; (127c <GPIO_Intr_GetIntrGroupStatus+0x38>)
    1266:	f7ff bc43 	b.w	af0 <Reg_Read32>
    126a:	2000      	movs	r0, #0
    126c:	4770      	bx	lr
    126e:	bf00      	nop
    1270:	40440040 	submi	r0, r4, r0, asr #32
    1274:	40400040 	submi	r0, r0, r0, asr #32
    1278:	404c0040 	submi	r0, ip, r0, asr #32
    127c:	40480040 	submi	r0, r8, r0, asr #32

00001280 <GPIO_Intr_ClearIntrGroup>:
    1280:	3832      	subs	r0, #50	; 0x32
    1282:	2803      	cmp	r0, #3
    1284:	d80f      	bhi.n	12a6 <GPIO_Intr_ClearIntrGroup+0x26>
    1286:	e8df f000 	tbb	[pc, r0]
    128a:	05080b02 	streq	r0, [r8, #-2818]	; 0xfffff4fe
    128e:	4806      	ldr	r0, [pc, #24]	; (12a8 <GPIO_Intr_ClearIntrGroup+0x28>)
    1290:	f7ff bc30 	b.w	af4 <Reg_Write32>
    1294:	4805      	ldr	r0, [pc, #20]	; (12ac <GPIO_Intr_ClearIntrGroup+0x2c>)
    1296:	f7ff bc2d 	b.w	af4 <Reg_Write32>
    129a:	4805      	ldr	r0, [pc, #20]	; (12b0 <GPIO_Intr_ClearIntrGroup+0x30>)
    129c:	f7ff bc2a 	b.w	af4 <Reg_Write32>
    12a0:	4804      	ldr	r0, [pc, #16]	; (12b4 <GPIO_Intr_ClearIntrGroup+0x34>)
    12a2:	f7ff bc27 	b.w	af4 <Reg_Write32>
    12a6:	4770      	bx	lr
    12a8:	4040004c 	submi	r0, r0, ip, asr #32
    12ac:	404c004c 	submi	r0, ip, ip, asr #32
    12b0:	4048004c 	submi	r0, r8, ip, asr #32
    12b4:	4044004c 	submi	r0, r4, ip, asr #32

000012b8 <MPU_SRAMRegionConfigEnable>:
    12b8:	b4f0      	push	{r4, r5, r6, r7}
    12ba:	4b13      	ldr	r3, [pc, #76]	; (1308 <MPU_SRAMRegionConfigEnable+0x50>)
    12bc:	2600      	movs	r6, #0
    12be:	4813      	ldr	r0, [pc, #76]	; (130c <MPU_SRAMRegionConfigEnable+0x54>)
    12c0:	2501      	movs	r5, #1
    12c2:	4a13      	ldr	r2, [pc, #76]	; (1310 <MPU_SRAMRegionConfigEnable+0x58>)
    12c4:	2702      	movs	r7, #2
    12c6:	609e      	str	r6, [r3, #8]
    12c8:	2103      	movs	r1, #3
    12ca:	60d8      	str	r0, [r3, #12]
    12cc:	2604      	movs	r6, #4
    12ce:	611a      	str	r2, [r3, #16]
    12d0:	3a02      	subs	r2, #2
    12d2:	4c10      	ldr	r4, [pc, #64]	; (1314 <MPU_SRAMRegionConfigEnable+0x5c>)
    12d4:	2005      	movs	r0, #5
    12d6:	609d      	str	r5, [r3, #8]
    12d8:	60dc      	str	r4, [r3, #12]
    12da:	4d0f      	ldr	r5, [pc, #60]	; (1318 <MPU_SRAMRegionConfigEnable+0x60>)
    12dc:	611a      	str	r2, [r3, #16]
    12de:	4c0f      	ldr	r4, [pc, #60]	; (131c <MPU_SRAMRegionConfigEnable+0x64>)
    12e0:	4a0f      	ldr	r2, [pc, #60]	; (1320 <MPU_SRAMRegionConfigEnable+0x68>)
    12e2:	609f      	str	r7, [r3, #8]
    12e4:	60dd      	str	r5, [r3, #12]
    12e6:	4f0f      	ldr	r7, [pc, #60]	; (1324 <MPU_SRAMRegionConfigEnable+0x6c>)
    12e8:	611c      	str	r4, [r3, #16]
    12ea:	4d0f      	ldr	r5, [pc, #60]	; (1328 <MPU_SRAMRegionConfigEnable+0x70>)
    12ec:	6099      	str	r1, [r3, #8]
    12ee:	4c0f      	ldr	r4, [pc, #60]	; (132c <MPU_SRAMRegionConfigEnable+0x74>)
    12f0:	60da      	str	r2, [r3, #12]
    12f2:	490f      	ldr	r1, [pc, #60]	; (1330 <MPU_SRAMRegionConfigEnable+0x78>)
    12f4:	4a0f      	ldr	r2, [pc, #60]	; (1334 <MPU_SRAMRegionConfigEnable+0x7c>)
    12f6:	611f      	str	r7, [r3, #16]
    12f8:	609e      	str	r6, [r3, #8]
    12fa:	60dd      	str	r5, [r3, #12]
    12fc:	611c      	str	r4, [r3, #16]
    12fe:	6098      	str	r0, [r3, #8]
    1300:	60d9      	str	r1, [r3, #12]
    1302:	611a      	str	r2, [r3, #16]
    1304:	bcf0      	pop	{r4, r5, r6, r7}
    1306:	4770      	bx	lr
    1308:	e000ed90 	mul	r0, r0, sp
    130c:	21000010 	tstcs	r0, r0, lsl r0
    1310:	0308001d 	movweq	r0, #32797	; 0x801d
    1314:	21008711 	tstcs	r0, r1, lsl r7
    1318:	2100e012 	tstcs	r0, r2, lsl r0
    131c:	03080019 	movweq	r0, #32793	; 0x8019
    1320:	40600013 	rsbmi	r0, r0, r3, lsl r0
    1324:	00080027 	andeq	r0, r8, r7, lsr #32
    1328:	a0200014 	eorge	r0, r0, r4, lsl r0
    132c:	0008001f 	andeq	r0, r8, pc, lsl r0
    1330:	10000015 	andne	r0, r0, r5, lsl r0
    1334:	0308002f 	movweq	r0, #32815	; 0x802f

00001338 <MPU_QuadspiProtectEnable>:
    1338:	b538      	push	{r3, r4, r5, lr}
    133a:	4c0d      	ldr	r4, [pc, #52]	; (1370 <MPU_QuadspiProtectEnable+0x38>)
    133c:	6823      	ldr	r3, [r4, #0]
    133e:	b90b      	cbnz	r3, 1344 <MPU_QuadspiProtectEnable+0xc>
    1340:	2001      	movs	r0, #1
    1342:	bd38      	pop	{r3, r4, r5, pc}
    1344:	f3bf 8f5f 	dmb	sy
    1348:	2500      	movs	r5, #0
    134a:	6065      	str	r5, [r4, #4]
    134c:	f7ff ffb4 	bl	12b8 <MPU_SRAMRegionConfigEnable>
    1350:	2307      	movs	r3, #7
    1352:	2006      	movs	r0, #6
    1354:	4907      	ldr	r1, [pc, #28]	; (1374 <MPU_QuadspiProtectEnable+0x3c>)
    1356:	4a08      	ldr	r2, [pc, #32]	; (1378 <MPU_QuadspiProtectEnable+0x40>)
    1358:	60a0      	str	r0, [r4, #8]
    135a:	60e1      	str	r1, [r4, #12]
    135c:	6122      	str	r2, [r4, #16]
    135e:	60a3      	str	r3, [r4, #8]
    1360:	60e5      	str	r5, [r4, #12]
    1362:	6125      	str	r5, [r4, #16]
    1364:	6063      	str	r3, [r4, #4]
    1366:	f3bf 8f4f 	dsb	sy
    136a:	f3bf 8f6f 	isb	sy
    136e:	bd38      	pop	{r3, r4, r5, pc}
    1370:	e000ed90 	mul	r0, r0, sp
    1374:	40c00016 	sbcmi	r0, r0, r6, lsl r0
    1378:	06080011 			; <UNDEFINED> instruction: 0x06080011

0000137c <MPU_SetUp>:
    137c:	f7ff bfdc 	b.w	1338 <MPU_QuadspiProtectEnable>

00001380 <FPU_AccessEnable>:
    1380:	f44f 0270 	mov.w	r2, #15728640	; 0xf00000
    1384:	4801      	ldr	r0, [pc, #4]	; (138c <FPU_AccessEnable+0xc>)
    1386:	4611      	mov	r1, r2
    1388:	f7ff bbb6 	b.w	af8 <Reg_Write32_Mask>
    138c:	e000ed88 	and	lr, r0, r8, lsl #27

00001390 <FPU_AccessDisable>:
    1390:	f44f 0270 	mov.w	r2, #15728640	; 0xf00000
    1394:	2100      	movs	r1, #0
    1396:	4801      	ldr	r0, [pc, #4]	; (139c <FPU_AccessDisable+0xc>)
    1398:	f7ff bbae 	b.w	af8 <Reg_Write32_Mask>
    139c:	e000ed88 	and	lr, r0, r8, lsl #27

000013a0 <CPUINFO_GetLocalCpuId>:
    13a0:	f44f 73c6 	mov.w	r3, #396	; 0x18c
    13a4:	7818      	ldrb	r0, [r3, #0]
    13a6:	4770      	bx	lr

000013a8 <CPUINFO_ICacheEnable>:
    13a8:	b998      	cbnz	r0, 13d2 <CPUINFO_ICacheEnable+0x2a>
    13aa:	4b14      	ldr	r3, [pc, #80]	; (13fc <CPUINFO_ICacheEnable+0x54>)
    13ac:	781a      	ldrb	r2, [r3, #0]
    13ae:	b17a      	cbz	r2, 13d0 <CPUINFO_ICacheEnable+0x28>
    13b0:	f3bf 8f4f 	dsb	sy
    13b4:	f3bf 8f6f 	isb	sy
    13b8:	4a11      	ldr	r2, [pc, #68]	; (1400 <CPUINFO_ICacheEnable+0x58>)
    13ba:	6951      	ldr	r1, [r2, #20]
    13bc:	f421 3100 	bic.w	r1, r1, #131072	; 0x20000
    13c0:	6151      	str	r1, [r2, #20]
    13c2:	f8c2 0250 	str.w	r0, [r2, #592]	; 0x250
    13c6:	f3bf 8f4f 	dsb	sy
    13ca:	f3bf 8f6f 	isb	sy
    13ce:	7018      	strb	r0, [r3, #0]
    13d0:	4770      	bx	lr
    13d2:	f3bf 8f4f 	dsb	sy
    13d6:	f3bf 8f6f 	isb	sy
    13da:	4b09      	ldr	r3, [pc, #36]	; (1400 <CPUINFO_ICacheEnable+0x58>)
    13dc:	2200      	movs	r2, #0
    13de:	f8c3 2250 	str.w	r2, [r3, #592]	; 0x250
    13e2:	695a      	ldr	r2, [r3, #20]
    13e4:	f442 3200 	orr.w	r2, r2, #131072	; 0x20000
    13e8:	615a      	str	r2, [r3, #20]
    13ea:	f3bf 8f4f 	dsb	sy
    13ee:	f3bf 8f6f 	isb	sy
    13f2:	4b02      	ldr	r3, [pc, #8]	; (13fc <CPUINFO_ICacheEnable+0x54>)
    13f4:	2201      	movs	r2, #1
    13f6:	701a      	strb	r2, [r3, #0]
    13f8:	4770      	bx	lr
    13fa:	bf00      	nop
    13fc:	200006d9 	ldrdcs	r0, [r0], -r9
    1400:	e000ed00 	and	lr, r0, r0, lsl #26

00001404 <CPUINFO_DCacheEnable>:
    1404:	b5f0      	push	{r4, r5, r6, r7, lr}
    1406:	bb90      	cbnz	r0, 146e <CPUINFO_DCacheEnable+0x6a>
    1408:	f8df e0c8 	ldr.w	lr, [pc, #200]	; 14d4 <CPUINFO_DCacheEnable+0xd0>
    140c:	f89e 3001 	ldrb.w	r3, [lr, #1]
    1410:	b903      	cbnz	r3, 1414 <CPUINFO_DCacheEnable+0x10>
    1412:	bdf0      	pop	{r4, r5, r6, r7, pc}
    1414:	4b2e      	ldr	r3, [pc, #184]	; (14d0 <CPUINFO_DCacheEnable+0xcc>)
    1416:	f8c3 0084 	str.w	r0, [r3, #132]	; 0x84
    141a:	f8d3 5080 	ldr.w	r5, [r3, #128]	; 0x80
    141e:	f3c5 07c9 	ubfx	r7, r5, #3, #10
    1422:	f005 0607 	and.w	r6, r5, #7
    1426:	f3c5 354e 	ubfx	r5, r5, #13, #15
    142a:	fab7 f087 	clz	r0, r7
    142e:	3604      	adds	r6, #4
    1430:	f000 001f 	and.w	r0, r0, #31
    1434:	f3bf 8f4f 	dsb	sy
    1438:	695a      	ldr	r2, [r3, #20]
    143a:	461c      	mov	r4, r3
    143c:	f422 3280 	bic.w	r2, r2, #65536	; 0x10000
    1440:	615a      	str	r2, [r3, #20]
    1442:	fa05 f106 	lsl.w	r1, r5, r6
    1446:	463b      	mov	r3, r7
    1448:	fa03 f200 	lsl.w	r2, r3, r0
    144c:	3b01      	subs	r3, #1
    144e:	430a      	orrs	r2, r1
    1450:	f8c4 2274 	str.w	r2, [r4, #628]	; 0x274
    1454:	1c5a      	adds	r2, r3, #1
    1456:	d1f7      	bne.n	1448 <CPUINFO_DCacheEnable+0x44>
    1458:	f115 35ff 	adds.w	r5, r5, #4294967295
    145c:	d2f1      	bcs.n	1442 <CPUINFO_DCacheEnable+0x3e>
    145e:	f3bf 8f4f 	dsb	sy
    1462:	f3bf 8f6f 	isb	sy
    1466:	2300      	movs	r3, #0
    1468:	f88e 3001 	strb.w	r3, [lr, #1]
    146c:	bdf0      	pop	{r4, r5, r6, r7, pc}
    146e:	4818      	ldr	r0, [pc, #96]	; (14d0 <CPUINFO_DCacheEnable+0xcc>)
    1470:	2300      	movs	r3, #0
    1472:	f8c0 3084 	str.w	r3, [r0, #132]	; 0x84
    1476:	f8d0 6080 	ldr.w	r6, [r0, #128]	; 0x80
    147a:	f3c6 0ec9 	ubfx	lr, r6, #3, #10
    147e:	f006 0707 	and.w	r7, r6, #7
    1482:	f3c6 364e 	ubfx	r6, r6, #13, #15
    1486:	fabe f48e 	clz	r4, lr
    148a:	3704      	adds	r7, #4
    148c:	f004 041f 	and.w	r4, r4, #31
    1490:	f3bf 8f4f 	dsb	sy
    1494:	fa06 f107 	lsl.w	r1, r6, r7
    1498:	4673      	mov	r3, lr
    149a:	fa03 f204 	lsl.w	r2, r3, r4
    149e:	3b01      	subs	r3, #1
    14a0:	4d0b      	ldr	r5, [pc, #44]	; (14d0 <CPUINFO_DCacheEnable+0xcc>)
    14a2:	430a      	orrs	r2, r1
    14a4:	f8c0 2260 	str.w	r2, [r0, #608]	; 0x260
    14a8:	1c5a      	adds	r2, r3, #1
    14aa:	d1f6      	bne.n	149a <CPUINFO_DCacheEnable+0x96>
    14ac:	f116 36ff 	adds.w	r6, r6, #4294967295
    14b0:	d2f0      	bcs.n	1494 <CPUINFO_DCacheEnable+0x90>
    14b2:	f3bf 8f4f 	dsb	sy
    14b6:	696b      	ldr	r3, [r5, #20]
    14b8:	f443 3380 	orr.w	r3, r3, #65536	; 0x10000
    14bc:	616b      	str	r3, [r5, #20]
    14be:	f3bf 8f4f 	dsb	sy
    14c2:	f3bf 8f6f 	isb	sy
    14c6:	4b03      	ldr	r3, [pc, #12]	; (14d4 <CPUINFO_DCacheEnable+0xd0>)
    14c8:	2201      	movs	r2, #1
    14ca:	705a      	strb	r2, [r3, #1]
    14cc:	bdf0      	pop	{r4, r5, r6, r7, pc}
    14ce:	bf00      	nop
    14d0:	e000ed00 	and	lr, r0, r0, lsl #26
    14d4:	200006d9 	ldrdcs	r0, [r0], -r9

000014d8 <InterCore_CopyConfigureFormFlashToSRAM>:
    14d8:	b510      	push	{r4, lr}
    14da:	f7ff ff61 	bl	13a0 <CPUINFO_GetLocalCpuId>
    14de:	4604      	mov	r4, r0
    14e0:	f006 fdb4 	bl	804c <dlog_get_output_level>
    14e4:	2802      	cmp	r0, #2
    14e6:	d800      	bhi.n	14ea <InterCore_CopyConfigureFormFlashToSRAM+0x12>
    14e8:	bd10      	pop	{r4, pc}
    14ea:	f44f 71c6 	mov.w	r1, #396	; 0x18c
    14ee:	4623      	mov	r3, r4
    14f0:	4a03      	ldr	r2, [pc, #12]	; (1500 <InterCore_CopyConfigureFormFlashToSRAM+0x28>)
    14f2:	6809      	ldr	r1, [r1, #0]
    14f4:	4803      	ldr	r0, [pc, #12]	; (1504 <InterCore_CopyConfigureFormFlashToSRAM+0x2c>)
    14f6:	e8bd 4010 	ldmia.w	sp!, {r4, lr}
    14fa:	f007 bd6f 	b.w	8fdc <printf>
    14fe:	bf00      	nop
    1500:	0000bad0 	ldrdeq	fp, [r0], -r0
    1504:	0000baf8 	strdeq	fp, [r0], -r8

00001508 <reg_IrqHandle>:
    1508:	2862      	cmp	r0, #98	; 0x62
    150a:	dc0b      	bgt.n	1524 <reg_IrqHandle+0x1c>
    150c:	4b06      	ldr	r3, [pc, #24]	; (1528 <reg_IrqHandle+0x20>)
    150e:	b410      	push	{r4}
    1510:	eb03 0480 	add.w	r4, r3, r0, lsl #2
    1514:	f843 1020 	str.w	r1, [r3, r0, lsl #2]
    1518:	2001      	movs	r0, #1
    151a:	f8c4 218c 	str.w	r2, [r4, #396]	; 0x18c
    151e:	f85d 4b04 	ldr.w	r4, [sp], #4
    1522:	4770      	bx	lr
    1524:	2001      	movs	r0, #1
    1526:	4770      	bx	lr
    1528:	200006dc 	ldrdcs	r0, [r0], -ip

0000152c <osSystickHandler>:
    152c:	4770      	bx	lr
    152e:	bf00      	nop

00001530 <SYSTICK_IRQHandler>:
    1530:	b508      	push	{r3, lr}
    1532:	f7ff fc2d 	bl	d90 <SysTicks_IncTickCount>
    1536:	f7ff fff9 	bl	152c <osSystickHandler>
    153a:	bd08      	pop	{r3, pc}

0000153c <default_isr>:
    153c:	4770      	bx	lr
    153e:	bf00      	nop

00001540 <hard_fault_monitor>:
    1540:	e92d 4ff8 	stmdb	sp!, {r3, r4, r5, r6, r7, r8, r9, sl, fp, lr}
    1544:	f8d0 a000 	ldr.w	sl, [r0]
    1548:	f8d0 9004 	ldr.w	r9, [r0, #4]
    154c:	f8d0 8008 	ldr.w	r8, [r0, #8]
    1550:	68c7      	ldr	r7, [r0, #12]
    1552:	6906      	ldr	r6, [r0, #16]
    1554:	6945      	ldr	r5, [r0, #20]
    1556:	6984      	ldr	r4, [r0, #24]
    1558:	f8d0 b01c 	ldr.w	fp, [r0, #28]
    155c:	f006 fd76 	bl	804c <dlog_get_output_level>
    1560:	2801      	cmp	r0, #1
    1562:	d906      	bls.n	1572 <hard_fault_monitor+0x32>
    1564:	f44f 73c6 	mov.w	r3, #396	; 0x18c
    1568:	4a34      	ldr	r2, [pc, #208]	; (163c <hard_fault_monitor+0xfc>)
    156a:	4835      	ldr	r0, [pc, #212]	; (1640 <hard_fault_monitor+0x100>)
    156c:	6819      	ldr	r1, [r3, #0]
    156e:	f007 fd35 	bl	8fdc <printf>
    1572:	f006 fd6b 	bl	804c <dlog_get_output_level>
    1576:	2801      	cmp	r0, #1
    1578:	d907      	bls.n	158a <hard_fault_monitor+0x4a>
    157a:	f44f 71c6 	mov.w	r1, #396	; 0x18c
    157e:	4653      	mov	r3, sl
    1580:	4a2e      	ldr	r2, [pc, #184]	; (163c <hard_fault_monitor+0xfc>)
    1582:	6809      	ldr	r1, [r1, #0]
    1584:	482f      	ldr	r0, [pc, #188]	; (1644 <hard_fault_monitor+0x104>)
    1586:	f007 fd29 	bl	8fdc <printf>
    158a:	f006 fd5f 	bl	804c <dlog_get_output_level>
    158e:	2801      	cmp	r0, #1
    1590:	d907      	bls.n	15a2 <hard_fault_monitor+0x62>
    1592:	f44f 71c6 	mov.w	r1, #396	; 0x18c
    1596:	464b      	mov	r3, r9
    1598:	4a28      	ldr	r2, [pc, #160]	; (163c <hard_fault_monitor+0xfc>)
    159a:	6809      	ldr	r1, [r1, #0]
    159c:	482a      	ldr	r0, [pc, #168]	; (1648 <hard_fault_monitor+0x108>)
    159e:	f007 fd1d 	bl	8fdc <printf>
    15a2:	f006 fd53 	bl	804c <dlog_get_output_level>
    15a6:	2801      	cmp	r0, #1
    15a8:	d907      	bls.n	15ba <hard_fault_monitor+0x7a>
    15aa:	f44f 71c6 	mov.w	r1, #396	; 0x18c
    15ae:	4643      	mov	r3, r8
    15b0:	4a22      	ldr	r2, [pc, #136]	; (163c <hard_fault_monitor+0xfc>)
    15b2:	6809      	ldr	r1, [r1, #0]
    15b4:	4825      	ldr	r0, [pc, #148]	; (164c <hard_fault_monitor+0x10c>)
    15b6:	f007 fd11 	bl	8fdc <printf>
    15ba:	f006 fd47 	bl	804c <dlog_get_output_level>
    15be:	2801      	cmp	r0, #1
    15c0:	d907      	bls.n	15d2 <hard_fault_monitor+0x92>
    15c2:	f44f 71c6 	mov.w	r1, #396	; 0x18c
    15c6:	463b      	mov	r3, r7
    15c8:	4a1c      	ldr	r2, [pc, #112]	; (163c <hard_fault_monitor+0xfc>)
    15ca:	6809      	ldr	r1, [r1, #0]
    15cc:	4820      	ldr	r0, [pc, #128]	; (1650 <hard_fault_monitor+0x110>)
    15ce:	f007 fd05 	bl	8fdc <printf>
    15d2:	f006 fd3b 	bl	804c <dlog_get_output_level>
    15d6:	2801      	cmp	r0, #1
    15d8:	d907      	bls.n	15ea <hard_fault_monitor+0xaa>
    15da:	f44f 71c6 	mov.w	r1, #396	; 0x18c
    15de:	4633      	mov	r3, r6
    15e0:	4a16      	ldr	r2, [pc, #88]	; (163c <hard_fault_monitor+0xfc>)
    15e2:	6809      	ldr	r1, [r1, #0]
    15e4:	481b      	ldr	r0, [pc, #108]	; (1654 <hard_fault_monitor+0x114>)
    15e6:	f007 fcf9 	bl	8fdc <printf>
    15ea:	f006 fd2f 	bl	804c <dlog_get_output_level>
    15ee:	2801      	cmp	r0, #1
    15f0:	d907      	bls.n	1602 <hard_fault_monitor+0xc2>
    15f2:	f44f 71c6 	mov.w	r1, #396	; 0x18c
    15f6:	462b      	mov	r3, r5
    15f8:	4a10      	ldr	r2, [pc, #64]	; (163c <hard_fault_monitor+0xfc>)
    15fa:	6809      	ldr	r1, [r1, #0]
    15fc:	4816      	ldr	r0, [pc, #88]	; (1658 <hard_fault_monitor+0x118>)
    15fe:	f007 fced 	bl	8fdc <printf>
    1602:	f006 fd23 	bl	804c <dlog_get_output_level>
    1606:	2801      	cmp	r0, #1
    1608:	d907      	bls.n	161a <hard_fault_monitor+0xda>
    160a:	f44f 71c6 	mov.w	r1, #396	; 0x18c
    160e:	4623      	mov	r3, r4
    1610:	4a0a      	ldr	r2, [pc, #40]	; (163c <hard_fault_monitor+0xfc>)
    1612:	6809      	ldr	r1, [r1, #0]
    1614:	4811      	ldr	r0, [pc, #68]	; (165c <hard_fault_monitor+0x11c>)
    1616:	f007 fce1 	bl	8fdc <printf>
    161a:	f006 fd17 	bl	804c <dlog_get_output_level>
    161e:	2801      	cmp	r0, #1
    1620:	d907      	bls.n	1632 <hard_fault_monitor+0xf2>
    1622:	f44f 71c6 	mov.w	r1, #396	; 0x18c
    1626:	465b      	mov	r3, fp
    1628:	4a04      	ldr	r2, [pc, #16]	; (163c <hard_fault_monitor+0xfc>)
    162a:	6809      	ldr	r1, [r1, #0]
    162c:	480c      	ldr	r0, [pc, #48]	; (1660 <hard_fault_monitor+0x120>)
    162e:	f007 fcd5 	bl	8fdc <printf>
    1632:	f640 30b8 	movw	r0, #3000	; 0xbb8
    1636:	f006 fbc5 	bl	7dc4 <DLOG_Output>
    163a:	e7fe      	b.n	163a <hard_fault_monitor+0xfa>
    163c:	0000bb0c 	andeq	fp, r0, ip, lsl #22
    1640:	0000bb20 	andeq	fp, r0, r0, lsr #22
    1644:	0000bb40 	andeq	fp, r0, r0, asr #22
    1648:	0000bb54 	andeq	fp, r0, r4, asr fp
    164c:	0000bb68 	andeq	fp, r0, r8, ror #22
    1650:	0000bb7c 	andeq	fp, r0, ip, ror fp
    1654:	0000bb90 	muleq	r0, r0, fp
    1658:	0000bba8 	andeq	fp, r0, r8, lsr #23
    165c:	0000bbe4 	andeq	fp, r0, r4, ror #23
    1660:	0000bc10 	andeq	fp, r0, r0, lsl ip

00001664 <hardfault_isr>:
    1664:	f01e 0f04 	tst.w	lr, #4
    1668:	bf0c      	ite	eq
    166a:	f3ef 8008 	mrseq	r0, MSP
    166e:	f3ef 8009 	mrsne	r0, PSP
    1672:	f7ff bf65 	b.w	1540 <hard_fault_monitor>
    1676:	4770      	bx	lr

00001678 <IRQHandler_16>:
    1678:	b510      	push	{r4, lr}
    167a:	4c06      	ldr	r4, [pc, #24]	; (1694 <IRQHandler_16+0x1c>)
    167c:	6823      	ldr	r3, [r4, #0]
    167e:	b10b      	cbz	r3, 1684 <IRQHandler_16+0xc>
    1680:	2000      	movs	r0, #0
    1682:	4798      	blx	r3
    1684:	f8d4 318c 	ldr.w	r3, [r4, #396]	; 0x18c
    1688:	b11b      	cbz	r3, 1692 <IRQHandler_16+0x1a>
    168a:	2000      	movs	r0, #0
    168c:	e8bd 4010 	ldmia.w	sp!, {r4, lr}
    1690:	4718      	bx	r3
    1692:	bd10      	pop	{r4, pc}
    1694:	200006dc 	ldrdcs	r0, [r0], -ip

00001698 <IRQHandler_17>:
    1698:	b510      	push	{r4, lr}
    169a:	4c06      	ldr	r4, [pc, #24]	; (16b4 <IRQHandler_17+0x1c>)
    169c:	6863      	ldr	r3, [r4, #4]
    169e:	b10b      	cbz	r3, 16a4 <IRQHandler_17+0xc>
    16a0:	2001      	movs	r0, #1
    16a2:	4798      	blx	r3
    16a4:	f8d4 3190 	ldr.w	r3, [r4, #400]	; 0x190
    16a8:	b11b      	cbz	r3, 16b2 <IRQHandler_17+0x1a>
    16aa:	2001      	movs	r0, #1
    16ac:	e8bd 4010 	ldmia.w	sp!, {r4, lr}
    16b0:	4718      	bx	r3
    16b2:	bd10      	pop	{r4, pc}
    16b4:	200006dc 	ldrdcs	r0, [r0], -ip

000016b8 <IRQHandler_18>:
    16b8:	b510      	push	{r4, lr}
    16ba:	4c06      	ldr	r4, [pc, #24]	; (16d4 <IRQHandler_18+0x1c>)
    16bc:	68a3      	ldr	r3, [r4, #8]
    16be:	b10b      	cbz	r3, 16c4 <IRQHandler_18+0xc>
    16c0:	2002      	movs	r0, #2
    16c2:	4798      	blx	r3
    16c4:	f8d4 3194 	ldr.w	r3, [r4, #404]	; 0x194
    16c8:	b11b      	cbz	r3, 16d2 <IRQHandler_18+0x1a>
    16ca:	2002      	movs	r0, #2
    16cc:	e8bd 4010 	ldmia.w	sp!, {r4, lr}
    16d0:	4718      	bx	r3
    16d2:	bd10      	pop	{r4, pc}
    16d4:	200006dc 	ldrdcs	r0, [r0], -ip

000016d8 <IRQHandler_19>:
    16d8:	b510      	push	{r4, lr}
    16da:	4c06      	ldr	r4, [pc, #24]	; (16f4 <IRQHandler_19+0x1c>)
    16dc:	68e3      	ldr	r3, [r4, #12]
    16de:	b10b      	cbz	r3, 16e4 <IRQHandler_19+0xc>
    16e0:	2003      	movs	r0, #3
    16e2:	4798      	blx	r3
    16e4:	f8d4 3198 	ldr.w	r3, [r4, #408]	; 0x198
    16e8:	b11b      	cbz	r3, 16f2 <IRQHandler_19+0x1a>
    16ea:	2003      	movs	r0, #3
    16ec:	e8bd 4010 	ldmia.w	sp!, {r4, lr}
    16f0:	4718      	bx	r3
    16f2:	bd10      	pop	{r4, pc}
    16f4:	200006dc 	ldrdcs	r0, [r0], -ip

000016f8 <IRQHandler_20>:
    16f8:	b510      	push	{r4, lr}
    16fa:	4c06      	ldr	r4, [pc, #24]	; (1714 <IRQHandler_20+0x1c>)
    16fc:	6923      	ldr	r3, [r4, #16]
    16fe:	b10b      	cbz	r3, 1704 <IRQHandler_20+0xc>
    1700:	2004      	movs	r0, #4
    1702:	4798      	blx	r3
    1704:	f8d4 319c 	ldr.w	r3, [r4, #412]	; 0x19c
    1708:	b11b      	cbz	r3, 1712 <IRQHandler_20+0x1a>
    170a:	2004      	movs	r0, #4
    170c:	e8bd 4010 	ldmia.w	sp!, {r4, lr}
    1710:	4718      	bx	r3
    1712:	bd10      	pop	{r4, pc}
    1714:	200006dc 	ldrdcs	r0, [r0], -ip

00001718 <IRQHandler_21>:
    1718:	b510      	push	{r4, lr}
    171a:	4c06      	ldr	r4, [pc, #24]	; (1734 <IRQHandler_21+0x1c>)
    171c:	6963      	ldr	r3, [r4, #20]
    171e:	b10b      	cbz	r3, 1724 <IRQHandler_21+0xc>
    1720:	2005      	movs	r0, #5
    1722:	4798      	blx	r3
    1724:	f8d4 31a0 	ldr.w	r3, [r4, #416]	; 0x1a0
    1728:	b11b      	cbz	r3, 1732 <IRQHandler_21+0x1a>
    172a:	2005      	movs	r0, #5
    172c:	e8bd 4010 	ldmia.w	sp!, {r4, lr}
    1730:	4718      	bx	r3
    1732:	bd10      	pop	{r4, pc}
    1734:	200006dc 	ldrdcs	r0, [r0], -ip

00001738 <IRQHandler_22>:
    1738:	b510      	push	{r4, lr}
    173a:	4c06      	ldr	r4, [pc, #24]	; (1754 <IRQHandler_22+0x1c>)
    173c:	69a3      	ldr	r3, [r4, #24]
    173e:	b10b      	cbz	r3, 1744 <IRQHandler_22+0xc>
    1740:	2006      	movs	r0, #6
    1742:	4798      	blx	r3
    1744:	f8d4 31a4 	ldr.w	r3, [r4, #420]	; 0x1a4
    1748:	b11b      	cbz	r3, 1752 <IRQHandler_22+0x1a>
    174a:	2006      	movs	r0, #6
    174c:	e8bd 4010 	ldmia.w	sp!, {r4, lr}
    1750:	4718      	bx	r3
    1752:	bd10      	pop	{r4, pc}
    1754:	200006dc 	ldrdcs	r0, [r0], -ip

00001758 <IRQHandler_23>:
    1758:	b510      	push	{r4, lr}
    175a:	4c06      	ldr	r4, [pc, #24]	; (1774 <IRQHandler_23+0x1c>)
    175c:	69e3      	ldr	r3, [r4, #28]
    175e:	b10b      	cbz	r3, 1764 <IRQHandler_23+0xc>
    1760:	2007      	movs	r0, #7
    1762:	4798      	blx	r3
    1764:	f8d4 31a8 	ldr.w	r3, [r4, #424]	; 0x1a8
    1768:	b11b      	cbz	r3, 1772 <IRQHandler_23+0x1a>
    176a:	2007      	movs	r0, #7
    176c:	e8bd 4010 	ldmia.w	sp!, {r4, lr}
    1770:	4718      	bx	r3
    1772:	bd10      	pop	{r4, pc}
    1774:	200006dc 	ldrdcs	r0, [r0], -ip

00001778 <IRQHandler_24>:
    1778:	b510      	push	{r4, lr}
    177a:	4c06      	ldr	r4, [pc, #24]	; (1794 <IRQHandler_24+0x1c>)
    177c:	6a23      	ldr	r3, [r4, #32]
    177e:	b10b      	cbz	r3, 1784 <IRQHandler_24+0xc>
    1780:	2008      	movs	r0, #8
    1782:	4798      	blx	r3
    1784:	f8d4 31ac 	ldr.w	r3, [r4, #428]	; 0x1ac
    1788:	b11b      	cbz	r3, 1792 <IRQHandler_24+0x1a>
    178a:	2008      	movs	r0, #8
    178c:	e8bd 4010 	ldmia.w	sp!, {r4, lr}
    1790:	4718      	bx	r3
    1792:	bd10      	pop	{r4, pc}
    1794:	200006dc 	ldrdcs	r0, [r0], -ip

00001798 <IRQHandler_25>:
    1798:	b510      	push	{r4, lr}
    179a:	4c06      	ldr	r4, [pc, #24]	; (17b4 <IRQHandler_25+0x1c>)
    179c:	6a63      	ldr	r3, [r4, #36]	; 0x24
    179e:	b10b      	cbz	r3, 17a4 <IRQHandler_25+0xc>
    17a0:	2009      	movs	r0, #9
    17a2:	4798      	blx	r3
    17a4:	f8d4 31b0 	ldr.w	r3, [r4, #432]	; 0x1b0
    17a8:	b11b      	cbz	r3, 17b2 <IRQHandler_25+0x1a>
    17aa:	2009      	movs	r0, #9
    17ac:	e8bd 4010 	ldmia.w	sp!, {r4, lr}
    17b0:	4718      	bx	r3
    17b2:	bd10      	pop	{r4, pc}
    17b4:	200006dc 	ldrdcs	r0, [r0], -ip

000017b8 <IRQHandler_26>:
    17b8:	b510      	push	{r4, lr}
    17ba:	4c06      	ldr	r4, [pc, #24]	; (17d4 <IRQHandler_26+0x1c>)
    17bc:	6aa3      	ldr	r3, [r4, #40]	; 0x28
    17be:	b10b      	cbz	r3, 17c4 <IRQHandler_26+0xc>
    17c0:	200a      	movs	r0, #10
    17c2:	4798      	blx	r3
    17c4:	f8d4 31b4 	ldr.w	r3, [r4, #436]	; 0x1b4
    17c8:	b11b      	cbz	r3, 17d2 <IRQHandler_26+0x1a>
    17ca:	200a      	movs	r0, #10
    17cc:	e8bd 4010 	ldmia.w	sp!, {r4, lr}
    17d0:	4718      	bx	r3
    17d2:	bd10      	pop	{r4, pc}
    17d4:	200006dc 	ldrdcs	r0, [r0], -ip

000017d8 <IRQHandler_27>:
    17d8:	b510      	push	{r4, lr}
    17da:	4c06      	ldr	r4, [pc, #24]	; (17f4 <IRQHandler_27+0x1c>)
    17dc:	6ae3      	ldr	r3, [r4, #44]	; 0x2c
    17de:	b10b      	cbz	r3, 17e4 <IRQHandler_27+0xc>
    17e0:	200b      	movs	r0, #11
    17e2:	4798      	blx	r3
    17e4:	f8d4 31b8 	ldr.w	r3, [r4, #440]	; 0x1b8
    17e8:	b11b      	cbz	r3, 17f2 <IRQHandler_27+0x1a>
    17ea:	200b      	movs	r0, #11
    17ec:	e8bd 4010 	ldmia.w	sp!, {r4, lr}
    17f0:	4718      	bx	r3
    17f2:	bd10      	pop	{r4, pc}
    17f4:	200006dc 	ldrdcs	r0, [r0], -ip

000017f8 <IRQHandler_28>:
    17f8:	b510      	push	{r4, lr}
    17fa:	4c06      	ldr	r4, [pc, #24]	; (1814 <IRQHandler_28+0x1c>)
    17fc:	6b23      	ldr	r3, [r4, #48]	; 0x30
    17fe:	b10b      	cbz	r3, 1804 <IRQHandler_28+0xc>
    1800:	200c      	movs	r0, #12
    1802:	4798      	blx	r3
    1804:	f8d4 31bc 	ldr.w	r3, [r4, #444]	; 0x1bc
    1808:	b11b      	cbz	r3, 1812 <IRQHandler_28+0x1a>
    180a:	200c      	movs	r0, #12
    180c:	e8bd 4010 	ldmia.w	sp!, {r4, lr}
    1810:	4718      	bx	r3
    1812:	bd10      	pop	{r4, pc}
    1814:	200006dc 	ldrdcs	r0, [r0], -ip

00001818 <IRQHandler_29>:
    1818:	b510      	push	{r4, lr}
    181a:	4c06      	ldr	r4, [pc, #24]	; (1834 <IRQHandler_29+0x1c>)
    181c:	6b63      	ldr	r3, [r4, #52]	; 0x34
    181e:	b10b      	cbz	r3, 1824 <IRQHandler_29+0xc>
    1820:	200d      	movs	r0, #13
    1822:	4798      	blx	r3
    1824:	f8d4 31c0 	ldr.w	r3, [r4, #448]	; 0x1c0
    1828:	b11b      	cbz	r3, 1832 <IRQHandler_29+0x1a>
    182a:	200d      	movs	r0, #13
    182c:	e8bd 4010 	ldmia.w	sp!, {r4, lr}
    1830:	4718      	bx	r3
    1832:	bd10      	pop	{r4, pc}
    1834:	200006dc 	ldrdcs	r0, [r0], -ip

00001838 <IRQHandler_30>:
    1838:	b510      	push	{r4, lr}
    183a:	4c06      	ldr	r4, [pc, #24]	; (1854 <IRQHandler_30+0x1c>)
    183c:	6ba3      	ldr	r3, [r4, #56]	; 0x38
    183e:	b10b      	cbz	r3, 1844 <IRQHandler_30+0xc>
    1840:	200e      	movs	r0, #14
    1842:	4798      	blx	r3
    1844:	f8d4 31c4 	ldr.w	r3, [r4, #452]	; 0x1c4
    1848:	b11b      	cbz	r3, 1852 <IRQHandler_30+0x1a>
    184a:	200e      	movs	r0, #14
    184c:	e8bd 4010 	ldmia.w	sp!, {r4, lr}
    1850:	4718      	bx	r3
    1852:	bd10      	pop	{r4, pc}
    1854:	200006dc 	ldrdcs	r0, [r0], -ip

00001858 <IRQHandler_31>:
    1858:	b510      	push	{r4, lr}
    185a:	4c06      	ldr	r4, [pc, #24]	; (1874 <IRQHandler_31+0x1c>)
    185c:	6be3      	ldr	r3, [r4, #60]	; 0x3c
    185e:	b10b      	cbz	r3, 1864 <IRQHandler_31+0xc>
    1860:	200f      	movs	r0, #15
    1862:	4798      	blx	r3
    1864:	f8d4 31c8 	ldr.w	r3, [r4, #456]	; 0x1c8
    1868:	b11b      	cbz	r3, 1872 <IRQHandler_31+0x1a>
    186a:	200f      	movs	r0, #15
    186c:	e8bd 4010 	ldmia.w	sp!, {r4, lr}
    1870:	4718      	bx	r3
    1872:	bd10      	pop	{r4, pc}
    1874:	200006dc 	ldrdcs	r0, [r0], -ip

00001878 <IRQHandler_32>:
    1878:	b510      	push	{r4, lr}
    187a:	4c06      	ldr	r4, [pc, #24]	; (1894 <IRQHandler_32+0x1c>)
    187c:	6c23      	ldr	r3, [r4, #64]	; 0x40
    187e:	b10b      	cbz	r3, 1884 <IRQHandler_32+0xc>
    1880:	2010      	movs	r0, #16
    1882:	4798      	blx	r3
    1884:	f8d4 31cc 	ldr.w	r3, [r4, #460]	; 0x1cc
    1888:	b11b      	cbz	r3, 1892 <IRQHandler_32+0x1a>
    188a:	2010      	movs	r0, #16
    188c:	e8bd 4010 	ldmia.w	sp!, {r4, lr}
    1890:	4718      	bx	r3
    1892:	bd10      	pop	{r4, pc}
    1894:	200006dc 	ldrdcs	r0, [r0], -ip

00001898 <IRQHandler_33>:
    1898:	b510      	push	{r4, lr}
    189a:	4c06      	ldr	r4, [pc, #24]	; (18b4 <IRQHandler_33+0x1c>)
    189c:	6c63      	ldr	r3, [r4, #68]	; 0x44
    189e:	b10b      	cbz	r3, 18a4 <IRQHandler_33+0xc>
    18a0:	2011      	movs	r0, #17
    18a2:	4798      	blx	r3
    18a4:	f8d4 31d0 	ldr.w	r3, [r4, #464]	; 0x1d0
    18a8:	b11b      	cbz	r3, 18b2 <IRQHandler_33+0x1a>
    18aa:	2011      	movs	r0, #17
    18ac:	e8bd 4010 	ldmia.w	sp!, {r4, lr}
    18b0:	4718      	bx	r3
    18b2:	bd10      	pop	{r4, pc}
    18b4:	200006dc 	ldrdcs	r0, [r0], -ip

000018b8 <IRQHandler_34>:
    18b8:	b510      	push	{r4, lr}
    18ba:	4c06      	ldr	r4, [pc, #24]	; (18d4 <IRQHandler_34+0x1c>)
    18bc:	6ca3      	ldr	r3, [r4, #72]	; 0x48
    18be:	b10b      	cbz	r3, 18c4 <IRQHandler_34+0xc>
    18c0:	2012      	movs	r0, #18
    18c2:	4798      	blx	r3
    18c4:	f8d4 31d4 	ldr.w	r3, [r4, #468]	; 0x1d4
    18c8:	b11b      	cbz	r3, 18d2 <IRQHandler_34+0x1a>
    18ca:	2012      	movs	r0, #18
    18cc:	e8bd 4010 	ldmia.w	sp!, {r4, lr}
    18d0:	4718      	bx	r3
    18d2:	bd10      	pop	{r4, pc}
    18d4:	200006dc 	ldrdcs	r0, [r0], -ip

000018d8 <IRQHandler_35>:
    18d8:	b510      	push	{r4, lr}
    18da:	4c06      	ldr	r4, [pc, #24]	; (18f4 <IRQHandler_35+0x1c>)
    18dc:	6ce3      	ldr	r3, [r4, #76]	; 0x4c
    18de:	b10b      	cbz	r3, 18e4 <IRQHandler_35+0xc>
    18e0:	2013      	movs	r0, #19
    18e2:	4798      	blx	r3
    18e4:	f8d4 31d8 	ldr.w	r3, [r4, #472]	; 0x1d8
    18e8:	b11b      	cbz	r3, 18f2 <IRQHandler_35+0x1a>
    18ea:	2013      	movs	r0, #19
    18ec:	e8bd 4010 	ldmia.w	sp!, {r4, lr}
    18f0:	4718      	bx	r3
    18f2:	bd10      	pop	{r4, pc}
    18f4:	200006dc 	ldrdcs	r0, [r0], -ip

000018f8 <IRQHandler_36>:
    18f8:	b510      	push	{r4, lr}
    18fa:	4c06      	ldr	r4, [pc, #24]	; (1914 <IRQHandler_36+0x1c>)
    18fc:	6d23      	ldr	r3, [r4, #80]	; 0x50
    18fe:	b10b      	cbz	r3, 1904 <IRQHandler_36+0xc>
    1900:	2014      	movs	r0, #20
    1902:	4798      	blx	r3
    1904:	f8d4 31dc 	ldr.w	r3, [r4, #476]	; 0x1dc
    1908:	b11b      	cbz	r3, 1912 <IRQHandler_36+0x1a>
    190a:	2014      	movs	r0, #20
    190c:	e8bd 4010 	ldmia.w	sp!, {r4, lr}
    1910:	4718      	bx	r3
    1912:	bd10      	pop	{r4, pc}
    1914:	200006dc 	ldrdcs	r0, [r0], -ip

00001918 <IRQHandler_37>:
    1918:	b510      	push	{r4, lr}
    191a:	4c06      	ldr	r4, [pc, #24]	; (1934 <IRQHandler_37+0x1c>)
    191c:	6d63      	ldr	r3, [r4, #84]	; 0x54
    191e:	b10b      	cbz	r3, 1924 <IRQHandler_37+0xc>
    1920:	2015      	movs	r0, #21
    1922:	4798      	blx	r3
    1924:	f8d4 31e0 	ldr.w	r3, [r4, #480]	; 0x1e0
    1928:	b11b      	cbz	r3, 1932 <IRQHandler_37+0x1a>
    192a:	2015      	movs	r0, #21
    192c:	e8bd 4010 	ldmia.w	sp!, {r4, lr}
    1930:	4718      	bx	r3
    1932:	bd10      	pop	{r4, pc}
    1934:	200006dc 	ldrdcs	r0, [r0], -ip

00001938 <IRQHandler_38>:
    1938:	b510      	push	{r4, lr}
    193a:	4c06      	ldr	r4, [pc, #24]	; (1954 <IRQHandler_38+0x1c>)
    193c:	6da3      	ldr	r3, [r4, #88]	; 0x58
    193e:	b10b      	cbz	r3, 1944 <IRQHandler_38+0xc>
    1940:	2016      	movs	r0, #22
    1942:	4798      	blx	r3
    1944:	f8d4 31e4 	ldr.w	r3, [r4, #484]	; 0x1e4
    1948:	b11b      	cbz	r3, 1952 <IRQHandler_38+0x1a>
    194a:	2016      	movs	r0, #22
    194c:	e8bd 4010 	ldmia.w	sp!, {r4, lr}
    1950:	4718      	bx	r3
    1952:	bd10      	pop	{r4, pc}
    1954:	200006dc 	ldrdcs	r0, [r0], -ip

00001958 <IRQHandler_39>:
    1958:	b510      	push	{r4, lr}
    195a:	4c06      	ldr	r4, [pc, #24]	; (1974 <IRQHandler_39+0x1c>)
    195c:	6de3      	ldr	r3, [r4, #92]	; 0x5c
    195e:	b10b      	cbz	r3, 1964 <IRQHandler_39+0xc>
    1960:	2017      	movs	r0, #23
    1962:	4798      	blx	r3
    1964:	f8d4 31e8 	ldr.w	r3, [r4, #488]	; 0x1e8
    1968:	b11b      	cbz	r3, 1972 <IRQHandler_39+0x1a>
    196a:	2017      	movs	r0, #23
    196c:	e8bd 4010 	ldmia.w	sp!, {r4, lr}
    1970:	4718      	bx	r3
    1972:	bd10      	pop	{r4, pc}
    1974:	200006dc 	ldrdcs	r0, [r0], -ip

00001978 <IRQHandler_40>:
    1978:	b510      	push	{r4, lr}
    197a:	4c06      	ldr	r4, [pc, #24]	; (1994 <IRQHandler_40+0x1c>)
    197c:	6e23      	ldr	r3, [r4, #96]	; 0x60
    197e:	b10b      	cbz	r3, 1984 <IRQHandler_40+0xc>
    1980:	2018      	movs	r0, #24
    1982:	4798      	blx	r3
    1984:	f8d4 31ec 	ldr.w	r3, [r4, #492]	; 0x1ec
    1988:	b11b      	cbz	r3, 1992 <IRQHandler_40+0x1a>
    198a:	2018      	movs	r0, #24
    198c:	e8bd 4010 	ldmia.w	sp!, {r4, lr}
    1990:	4718      	bx	r3
    1992:	bd10      	pop	{r4, pc}
    1994:	200006dc 	ldrdcs	r0, [r0], -ip

00001998 <IRQHandler_41>:
    1998:	b510      	push	{r4, lr}
    199a:	4c06      	ldr	r4, [pc, #24]	; (19b4 <IRQHandler_41+0x1c>)
    199c:	6e63      	ldr	r3, [r4, #100]	; 0x64
    199e:	b10b      	cbz	r3, 19a4 <IRQHandler_41+0xc>
    19a0:	2019      	movs	r0, #25
    19a2:	4798      	blx	r3
    19a4:	f8d4 31f0 	ldr.w	r3, [r4, #496]	; 0x1f0
    19a8:	b11b      	cbz	r3, 19b2 <IRQHandler_41+0x1a>
    19aa:	2019      	movs	r0, #25
    19ac:	e8bd 4010 	ldmia.w	sp!, {r4, lr}
    19b0:	4718      	bx	r3
    19b2:	bd10      	pop	{r4, pc}
    19b4:	200006dc 	ldrdcs	r0, [r0], -ip

000019b8 <IRQHandler_42>:
    19b8:	b510      	push	{r4, lr}
    19ba:	4c06      	ldr	r4, [pc, #24]	; (19d4 <IRQHandler_42+0x1c>)
    19bc:	6ea3      	ldr	r3, [r4, #104]	; 0x68
    19be:	b10b      	cbz	r3, 19c4 <IRQHandler_42+0xc>
    19c0:	201a      	movs	r0, #26
    19c2:	4798      	blx	r3
    19c4:	f8d4 31f4 	ldr.w	r3, [r4, #500]	; 0x1f4
    19c8:	b11b      	cbz	r3, 19d2 <IRQHandler_42+0x1a>
    19ca:	201a      	movs	r0, #26
    19cc:	e8bd 4010 	ldmia.w	sp!, {r4, lr}
    19d0:	4718      	bx	r3
    19d2:	bd10      	pop	{r4, pc}
    19d4:	200006dc 	ldrdcs	r0, [r0], -ip

000019d8 <IRQHandler_43>:
    19d8:	b510      	push	{r4, lr}
    19da:	4c06      	ldr	r4, [pc, #24]	; (19f4 <IRQHandler_43+0x1c>)
    19dc:	6ee3      	ldr	r3, [r4, #108]	; 0x6c
    19de:	b10b      	cbz	r3, 19e4 <IRQHandler_43+0xc>
    19e0:	201b      	movs	r0, #27
    19e2:	4798      	blx	r3
    19e4:	f8d4 31f8 	ldr.w	r3, [r4, #504]	; 0x1f8
    19e8:	b11b      	cbz	r3, 19f2 <IRQHandler_43+0x1a>
    19ea:	201b      	movs	r0, #27
    19ec:	e8bd 4010 	ldmia.w	sp!, {r4, lr}
    19f0:	4718      	bx	r3
    19f2:	bd10      	pop	{r4, pc}
    19f4:	200006dc 	ldrdcs	r0, [r0], -ip

000019f8 <IRQHandler_44>:
    19f8:	b510      	push	{r4, lr}
    19fa:	4c06      	ldr	r4, [pc, #24]	; (1a14 <IRQHandler_44+0x1c>)
    19fc:	6f23      	ldr	r3, [r4, #112]	; 0x70
    19fe:	b10b      	cbz	r3, 1a04 <IRQHandler_44+0xc>
    1a00:	201c      	movs	r0, #28
    1a02:	4798      	blx	r3
    1a04:	f8d4 31fc 	ldr.w	r3, [r4, #508]	; 0x1fc
    1a08:	b11b      	cbz	r3, 1a12 <IRQHandler_44+0x1a>
    1a0a:	201c      	movs	r0, #28
    1a0c:	e8bd 4010 	ldmia.w	sp!, {r4, lr}
    1a10:	4718      	bx	r3
    1a12:	bd10      	pop	{r4, pc}
    1a14:	200006dc 	ldrdcs	r0, [r0], -ip

00001a18 <IRQHandler_45>:
    1a18:	b510      	push	{r4, lr}
    1a1a:	4c06      	ldr	r4, [pc, #24]	; (1a34 <IRQHandler_45+0x1c>)
    1a1c:	6f63      	ldr	r3, [r4, #116]	; 0x74
    1a1e:	b10b      	cbz	r3, 1a24 <IRQHandler_45+0xc>
    1a20:	201d      	movs	r0, #29
    1a22:	4798      	blx	r3
    1a24:	f8d4 3200 	ldr.w	r3, [r4, #512]	; 0x200
    1a28:	b11b      	cbz	r3, 1a32 <IRQHandler_45+0x1a>
    1a2a:	201d      	movs	r0, #29
    1a2c:	e8bd 4010 	ldmia.w	sp!, {r4, lr}
    1a30:	4718      	bx	r3
    1a32:	bd10      	pop	{r4, pc}
    1a34:	200006dc 	ldrdcs	r0, [r0], -ip

00001a38 <IRQHandler_46>:
    1a38:	b510      	push	{r4, lr}
    1a3a:	4c06      	ldr	r4, [pc, #24]	; (1a54 <IRQHandler_46+0x1c>)
    1a3c:	6fa3      	ldr	r3, [r4, #120]	; 0x78
    1a3e:	b10b      	cbz	r3, 1a44 <IRQHandler_46+0xc>
    1a40:	201e      	movs	r0, #30
    1a42:	4798      	blx	r3
    1a44:	f8d4 3204 	ldr.w	r3, [r4, #516]	; 0x204
    1a48:	b11b      	cbz	r3, 1a52 <IRQHandler_46+0x1a>
    1a4a:	201e      	movs	r0, #30
    1a4c:	e8bd 4010 	ldmia.w	sp!, {r4, lr}
    1a50:	4718      	bx	r3
    1a52:	bd10      	pop	{r4, pc}
    1a54:	200006dc 	ldrdcs	r0, [r0], -ip

00001a58 <IRQHandler_47>:
    1a58:	b510      	push	{r4, lr}
    1a5a:	4c06      	ldr	r4, [pc, #24]	; (1a74 <IRQHandler_47+0x1c>)
    1a5c:	6fe3      	ldr	r3, [r4, #124]	; 0x7c
    1a5e:	b10b      	cbz	r3, 1a64 <IRQHandler_47+0xc>
    1a60:	201f      	movs	r0, #31
    1a62:	4798      	blx	r3
    1a64:	f8d4 3208 	ldr.w	r3, [r4, #520]	; 0x208
    1a68:	b11b      	cbz	r3, 1a72 <IRQHandler_47+0x1a>
    1a6a:	201f      	movs	r0, #31
    1a6c:	e8bd 4010 	ldmia.w	sp!, {r4, lr}
    1a70:	4718      	bx	r3
    1a72:	bd10      	pop	{r4, pc}
    1a74:	200006dc 	ldrdcs	r0, [r0], -ip

00001a78 <IRQHandler_48>:
    1a78:	b510      	push	{r4, lr}
    1a7a:	4c07      	ldr	r4, [pc, #28]	; (1a98 <IRQHandler_48+0x20>)
    1a7c:	f8d4 3080 	ldr.w	r3, [r4, #128]	; 0x80
    1a80:	b10b      	cbz	r3, 1a86 <IRQHandler_48+0xe>
    1a82:	2020      	movs	r0, #32
    1a84:	4798      	blx	r3
    1a86:	f8d4 320c 	ldr.w	r3, [r4, #524]	; 0x20c
    1a8a:	b11b      	cbz	r3, 1a94 <IRQHandler_48+0x1c>
    1a8c:	2020      	movs	r0, #32
    1a8e:	e8bd 4010 	ldmia.w	sp!, {r4, lr}
    1a92:	4718      	bx	r3
    1a94:	bd10      	pop	{r4, pc}
    1a96:	bf00      	nop
    1a98:	200006dc 	ldrdcs	r0, [r0], -ip

00001a9c <IRQHandler_49>:
    1a9c:	b510      	push	{r4, lr}
    1a9e:	4c07      	ldr	r4, [pc, #28]	; (1abc <IRQHandler_49+0x20>)
    1aa0:	f8d4 3084 	ldr.w	r3, [r4, #132]	; 0x84
    1aa4:	b10b      	cbz	r3, 1aaa <IRQHandler_49+0xe>
    1aa6:	2021      	movs	r0, #33	; 0x21
    1aa8:	4798      	blx	r3
    1aaa:	f8d4 3210 	ldr.w	r3, [r4, #528]	; 0x210
    1aae:	b11b      	cbz	r3, 1ab8 <IRQHandler_49+0x1c>
    1ab0:	2021      	movs	r0, #33	; 0x21
    1ab2:	e8bd 4010 	ldmia.w	sp!, {r4, lr}
    1ab6:	4718      	bx	r3
    1ab8:	bd10      	pop	{r4, pc}
    1aba:	bf00      	nop
    1abc:	200006dc 	ldrdcs	r0, [r0], -ip

00001ac0 <IRQHandler_50>:
    1ac0:	b510      	push	{r4, lr}
    1ac2:	4c07      	ldr	r4, [pc, #28]	; (1ae0 <IRQHandler_50+0x20>)
    1ac4:	f8d4 3088 	ldr.w	r3, [r4, #136]	; 0x88
    1ac8:	b10b      	cbz	r3, 1ace <IRQHandler_50+0xe>
    1aca:	2022      	movs	r0, #34	; 0x22
    1acc:	4798      	blx	r3
    1ace:	f8d4 3214 	ldr.w	r3, [r4, #532]	; 0x214
    1ad2:	b11b      	cbz	r3, 1adc <IRQHandler_50+0x1c>
    1ad4:	2022      	movs	r0, #34	; 0x22
    1ad6:	e8bd 4010 	ldmia.w	sp!, {r4, lr}
    1ada:	4718      	bx	r3
    1adc:	bd10      	pop	{r4, pc}
    1ade:	bf00      	nop
    1ae0:	200006dc 	ldrdcs	r0, [r0], -ip

00001ae4 <IRQHandler_51>:
    1ae4:	b510      	push	{r4, lr}
    1ae6:	4c07      	ldr	r4, [pc, #28]	; (1b04 <IRQHandler_51+0x20>)
    1ae8:	f8d4 308c 	ldr.w	r3, [r4, #140]	; 0x8c
    1aec:	b10b      	cbz	r3, 1af2 <IRQHandler_51+0xe>
    1aee:	2023      	movs	r0, #35	; 0x23
    1af0:	4798      	blx	r3
    1af2:	f8d4 3218 	ldr.w	r3, [r4, #536]	; 0x218
    1af6:	b11b      	cbz	r3, 1b00 <IRQHandler_51+0x1c>
    1af8:	2023      	movs	r0, #35	; 0x23
    1afa:	e8bd 4010 	ldmia.w	sp!, {r4, lr}
    1afe:	4718      	bx	r3
    1b00:	bd10      	pop	{r4, pc}
    1b02:	bf00      	nop
    1b04:	200006dc 	ldrdcs	r0, [r0], -ip

00001b08 <IRQHandler_52>:
    1b08:	b510      	push	{r4, lr}
    1b0a:	4c07      	ldr	r4, [pc, #28]	; (1b28 <IRQHandler_52+0x20>)
    1b0c:	f8d4 3090 	ldr.w	r3, [r4, #144]	; 0x90
    1b10:	b10b      	cbz	r3, 1b16 <IRQHandler_52+0xe>
    1b12:	2024      	movs	r0, #36	; 0x24
    1b14:	4798      	blx	r3
    1b16:	f8d4 321c 	ldr.w	r3, [r4, #540]	; 0x21c
    1b1a:	b11b      	cbz	r3, 1b24 <IRQHandler_52+0x1c>
    1b1c:	2024      	movs	r0, #36	; 0x24
    1b1e:	e8bd 4010 	ldmia.w	sp!, {r4, lr}
    1b22:	4718      	bx	r3
    1b24:	bd10      	pop	{r4, pc}
    1b26:	bf00      	nop
    1b28:	200006dc 	ldrdcs	r0, [r0], -ip

00001b2c <IRQHandler_53>:
    1b2c:	b510      	push	{r4, lr}
    1b2e:	4c07      	ldr	r4, [pc, #28]	; (1b4c <IRQHandler_53+0x20>)
    1b30:	f8d4 3094 	ldr.w	r3, [r4, #148]	; 0x94
    1b34:	b10b      	cbz	r3, 1b3a <IRQHandler_53+0xe>
    1b36:	2025      	movs	r0, #37	; 0x25
    1b38:	4798      	blx	r3
    1b3a:	f8d4 3220 	ldr.w	r3, [r4, #544]	; 0x220
    1b3e:	b11b      	cbz	r3, 1b48 <IRQHandler_53+0x1c>
    1b40:	2025      	movs	r0, #37	; 0x25
    1b42:	e8bd 4010 	ldmia.w	sp!, {r4, lr}
    1b46:	4718      	bx	r3
    1b48:	bd10      	pop	{r4, pc}
    1b4a:	bf00      	nop
    1b4c:	200006dc 	ldrdcs	r0, [r0], -ip

00001b50 <IRQHandler_54>:
    1b50:	b510      	push	{r4, lr}
    1b52:	4c07      	ldr	r4, [pc, #28]	; (1b70 <IRQHandler_54+0x20>)
    1b54:	f8d4 3098 	ldr.w	r3, [r4, #152]	; 0x98
    1b58:	b10b      	cbz	r3, 1b5e <IRQHandler_54+0xe>
    1b5a:	2026      	movs	r0, #38	; 0x26
    1b5c:	4798      	blx	r3
    1b5e:	f8d4 3224 	ldr.w	r3, [r4, #548]	; 0x224
    1b62:	b11b      	cbz	r3, 1b6c <IRQHandler_54+0x1c>
    1b64:	2026      	movs	r0, #38	; 0x26
    1b66:	e8bd 4010 	ldmia.w	sp!, {r4, lr}
    1b6a:	4718      	bx	r3
    1b6c:	bd10      	pop	{r4, pc}
    1b6e:	bf00      	nop
    1b70:	200006dc 	ldrdcs	r0, [r0], -ip

00001b74 <IRQHandler_55>:
    1b74:	b510      	push	{r4, lr}
    1b76:	4c07      	ldr	r4, [pc, #28]	; (1b94 <IRQHandler_55+0x20>)
    1b78:	f8d4 309c 	ldr.w	r3, [r4, #156]	; 0x9c
    1b7c:	b10b      	cbz	r3, 1b82 <IRQHandler_55+0xe>
    1b7e:	2027      	movs	r0, #39	; 0x27
    1b80:	4798      	blx	r3
    1b82:	f8d4 3228 	ldr.w	r3, [r4, #552]	; 0x228
    1b86:	b11b      	cbz	r3, 1b90 <IRQHandler_55+0x1c>
    1b88:	2027      	movs	r0, #39	; 0x27
    1b8a:	e8bd 4010 	ldmia.w	sp!, {r4, lr}
    1b8e:	4718      	bx	r3
    1b90:	bd10      	pop	{r4, pc}
    1b92:	bf00      	nop
    1b94:	200006dc 	ldrdcs	r0, [r0], -ip

00001b98 <IRQHandler_56>:
    1b98:	b510      	push	{r4, lr}
    1b9a:	4c07      	ldr	r4, [pc, #28]	; (1bb8 <IRQHandler_56+0x20>)
    1b9c:	f8d4 30a0 	ldr.w	r3, [r4, #160]	; 0xa0
    1ba0:	b10b      	cbz	r3, 1ba6 <IRQHandler_56+0xe>
    1ba2:	2028      	movs	r0, #40	; 0x28
    1ba4:	4798      	blx	r3
    1ba6:	f8d4 322c 	ldr.w	r3, [r4, #556]	; 0x22c
    1baa:	b11b      	cbz	r3, 1bb4 <IRQHandler_56+0x1c>
    1bac:	2028      	movs	r0, #40	; 0x28
    1bae:	e8bd 4010 	ldmia.w	sp!, {r4, lr}
    1bb2:	4718      	bx	r3
    1bb4:	bd10      	pop	{r4, pc}
    1bb6:	bf00      	nop
    1bb8:	200006dc 	ldrdcs	r0, [r0], -ip

00001bbc <IRQHandler_57>:
    1bbc:	b510      	push	{r4, lr}
    1bbe:	4c07      	ldr	r4, [pc, #28]	; (1bdc <IRQHandler_57+0x20>)
    1bc0:	f8d4 30a4 	ldr.w	r3, [r4, #164]	; 0xa4
    1bc4:	b10b      	cbz	r3, 1bca <IRQHandler_57+0xe>
    1bc6:	2029      	movs	r0, #41	; 0x29
    1bc8:	4798      	blx	r3
    1bca:	f8d4 3230 	ldr.w	r3, [r4, #560]	; 0x230
    1bce:	b11b      	cbz	r3, 1bd8 <IRQHandler_57+0x1c>
    1bd0:	2029      	movs	r0, #41	; 0x29
    1bd2:	e8bd 4010 	ldmia.w	sp!, {r4, lr}
    1bd6:	4718      	bx	r3
    1bd8:	bd10      	pop	{r4, pc}
    1bda:	bf00      	nop
    1bdc:	200006dc 	ldrdcs	r0, [r0], -ip

00001be0 <IRQHandler_58>:
    1be0:	b510      	push	{r4, lr}
    1be2:	4c07      	ldr	r4, [pc, #28]	; (1c00 <IRQHandler_58+0x20>)
    1be4:	f8d4 30a8 	ldr.w	r3, [r4, #168]	; 0xa8
    1be8:	b10b      	cbz	r3, 1bee <IRQHandler_58+0xe>
    1bea:	202a      	movs	r0, #42	; 0x2a
    1bec:	4798      	blx	r3
    1bee:	f8d4 3234 	ldr.w	r3, [r4, #564]	; 0x234
    1bf2:	b11b      	cbz	r3, 1bfc <IRQHandler_58+0x1c>
    1bf4:	202a      	movs	r0, #42	; 0x2a
    1bf6:	e8bd 4010 	ldmia.w	sp!, {r4, lr}
    1bfa:	4718      	bx	r3
    1bfc:	bd10      	pop	{r4, pc}
    1bfe:	bf00      	nop
    1c00:	200006dc 	ldrdcs	r0, [r0], -ip

00001c04 <IRQHandler_59>:
    1c04:	b510      	push	{r4, lr}
    1c06:	4c07      	ldr	r4, [pc, #28]	; (1c24 <IRQHandler_59+0x20>)
    1c08:	f8d4 30ac 	ldr.w	r3, [r4, #172]	; 0xac
    1c0c:	b10b      	cbz	r3, 1c12 <IRQHandler_59+0xe>
    1c0e:	202b      	movs	r0, #43	; 0x2b
    1c10:	4798      	blx	r3
    1c12:	f8d4 3238 	ldr.w	r3, [r4, #568]	; 0x238
    1c16:	b11b      	cbz	r3, 1c20 <IRQHandler_59+0x1c>
    1c18:	202b      	movs	r0, #43	; 0x2b
    1c1a:	e8bd 4010 	ldmia.w	sp!, {r4, lr}
    1c1e:	4718      	bx	r3
    1c20:	bd10      	pop	{r4, pc}
    1c22:	bf00      	nop
    1c24:	200006dc 	ldrdcs	r0, [r0], -ip

00001c28 <IRQHandler_60>:
    1c28:	b510      	push	{r4, lr}
    1c2a:	4c07      	ldr	r4, [pc, #28]	; (1c48 <IRQHandler_60+0x20>)
    1c2c:	f8d4 30b0 	ldr.w	r3, [r4, #176]	; 0xb0
    1c30:	b10b      	cbz	r3, 1c36 <IRQHandler_60+0xe>
    1c32:	202c      	movs	r0, #44	; 0x2c
    1c34:	4798      	blx	r3
    1c36:	f8d4 323c 	ldr.w	r3, [r4, #572]	; 0x23c
    1c3a:	b11b      	cbz	r3, 1c44 <IRQHandler_60+0x1c>
    1c3c:	202c      	movs	r0, #44	; 0x2c
    1c3e:	e8bd 4010 	ldmia.w	sp!, {r4, lr}
    1c42:	4718      	bx	r3
    1c44:	bd10      	pop	{r4, pc}
    1c46:	bf00      	nop
    1c48:	200006dc 	ldrdcs	r0, [r0], -ip

00001c4c <IRQHandler_61>:
    1c4c:	b510      	push	{r4, lr}
    1c4e:	4c07      	ldr	r4, [pc, #28]	; (1c6c <IRQHandler_61+0x20>)
    1c50:	f8d4 30b4 	ldr.w	r3, [r4, #180]	; 0xb4
    1c54:	b10b      	cbz	r3, 1c5a <IRQHandler_61+0xe>
    1c56:	202d      	movs	r0, #45	; 0x2d
    1c58:	4798      	blx	r3
    1c5a:	f8d4 3240 	ldr.w	r3, [r4, #576]	; 0x240
    1c5e:	b11b      	cbz	r3, 1c68 <IRQHandler_61+0x1c>
    1c60:	202d      	movs	r0, #45	; 0x2d
    1c62:	e8bd 4010 	ldmia.w	sp!, {r4, lr}
    1c66:	4718      	bx	r3
    1c68:	bd10      	pop	{r4, pc}
    1c6a:	bf00      	nop
    1c6c:	200006dc 	ldrdcs	r0, [r0], -ip

00001c70 <IRQHandler_62>:
    1c70:	b510      	push	{r4, lr}
    1c72:	4c07      	ldr	r4, [pc, #28]	; (1c90 <IRQHandler_62+0x20>)
    1c74:	f8d4 30b8 	ldr.w	r3, [r4, #184]	; 0xb8
    1c78:	b10b      	cbz	r3, 1c7e <IRQHandler_62+0xe>
    1c7a:	202e      	movs	r0, #46	; 0x2e
    1c7c:	4798      	blx	r3
    1c7e:	f8d4 3244 	ldr.w	r3, [r4, #580]	; 0x244
    1c82:	b11b      	cbz	r3, 1c8c <IRQHandler_62+0x1c>
    1c84:	202e      	movs	r0, #46	; 0x2e
    1c86:	e8bd 4010 	ldmia.w	sp!, {r4, lr}
    1c8a:	4718      	bx	r3
    1c8c:	bd10      	pop	{r4, pc}
    1c8e:	bf00      	nop
    1c90:	200006dc 	ldrdcs	r0, [r0], -ip

00001c94 <IRQHandler_63>:
    1c94:	b510      	push	{r4, lr}
    1c96:	4c07      	ldr	r4, [pc, #28]	; (1cb4 <IRQHandler_63+0x20>)
    1c98:	f8d4 30bc 	ldr.w	r3, [r4, #188]	; 0xbc
    1c9c:	b10b      	cbz	r3, 1ca2 <IRQHandler_63+0xe>
    1c9e:	202f      	movs	r0, #47	; 0x2f
    1ca0:	4798      	blx	r3
    1ca2:	f8d4 3248 	ldr.w	r3, [r4, #584]	; 0x248
    1ca6:	b11b      	cbz	r3, 1cb0 <IRQHandler_63+0x1c>
    1ca8:	202f      	movs	r0, #47	; 0x2f
    1caa:	e8bd 4010 	ldmia.w	sp!, {r4, lr}
    1cae:	4718      	bx	r3
    1cb0:	bd10      	pop	{r4, pc}
    1cb2:	bf00      	nop
    1cb4:	200006dc 	ldrdcs	r0, [r0], -ip

00001cb8 <IRQHandler_64>:
    1cb8:	b510      	push	{r4, lr}
    1cba:	4c07      	ldr	r4, [pc, #28]	; (1cd8 <IRQHandler_64+0x20>)
    1cbc:	f8d4 30c0 	ldr.w	r3, [r4, #192]	; 0xc0
    1cc0:	b10b      	cbz	r3, 1cc6 <IRQHandler_64+0xe>
    1cc2:	2030      	movs	r0, #48	; 0x30
    1cc4:	4798      	blx	r3
    1cc6:	f8d4 324c 	ldr.w	r3, [r4, #588]	; 0x24c
    1cca:	b11b      	cbz	r3, 1cd4 <IRQHandler_64+0x1c>
    1ccc:	2030      	movs	r0, #48	; 0x30
    1cce:	e8bd 4010 	ldmia.w	sp!, {r4, lr}
    1cd2:	4718      	bx	r3
    1cd4:	bd10      	pop	{r4, pc}
    1cd6:	bf00      	nop
    1cd8:	200006dc 	ldrdcs	r0, [r0], -ip

00001cdc <IRQHandler_65>:
    1cdc:	b510      	push	{r4, lr}
    1cde:	4c07      	ldr	r4, [pc, #28]	; (1cfc <IRQHandler_65+0x20>)
    1ce0:	f8d4 30c4 	ldr.w	r3, [r4, #196]	; 0xc4
    1ce4:	b10b      	cbz	r3, 1cea <IRQHandler_65+0xe>
    1ce6:	2031      	movs	r0, #49	; 0x31
    1ce8:	4798      	blx	r3
    1cea:	f8d4 3250 	ldr.w	r3, [r4, #592]	; 0x250
    1cee:	b11b      	cbz	r3, 1cf8 <IRQHandler_65+0x1c>
    1cf0:	2031      	movs	r0, #49	; 0x31
    1cf2:	e8bd 4010 	ldmia.w	sp!, {r4, lr}
    1cf6:	4718      	bx	r3
    1cf8:	bd10      	pop	{r4, pc}
    1cfa:	bf00      	nop
    1cfc:	200006dc 	ldrdcs	r0, [r0], -ip

00001d00 <IRQHandler_66>:
    1d00:	b510      	push	{r4, lr}
    1d02:	4c07      	ldr	r4, [pc, #28]	; (1d20 <IRQHandler_66+0x20>)
    1d04:	f8d4 30c8 	ldr.w	r3, [r4, #200]	; 0xc8
    1d08:	b10b      	cbz	r3, 1d0e <IRQHandler_66+0xe>
    1d0a:	2032      	movs	r0, #50	; 0x32
    1d0c:	4798      	blx	r3
    1d0e:	f8d4 3254 	ldr.w	r3, [r4, #596]	; 0x254
    1d12:	b11b      	cbz	r3, 1d1c <IRQHandler_66+0x1c>
    1d14:	2032      	movs	r0, #50	; 0x32
    1d16:	e8bd 4010 	ldmia.w	sp!, {r4, lr}
    1d1a:	4718      	bx	r3
    1d1c:	bd10      	pop	{r4, pc}
    1d1e:	bf00      	nop
    1d20:	200006dc 	ldrdcs	r0, [r0], -ip

00001d24 <IRQHandler_67>:
    1d24:	b510      	push	{r4, lr}
    1d26:	4c07      	ldr	r4, [pc, #28]	; (1d44 <IRQHandler_67+0x20>)
    1d28:	f8d4 30cc 	ldr.w	r3, [r4, #204]	; 0xcc
    1d2c:	b10b      	cbz	r3, 1d32 <IRQHandler_67+0xe>
    1d2e:	2033      	movs	r0, #51	; 0x33
    1d30:	4798      	blx	r3
    1d32:	f8d4 3258 	ldr.w	r3, [r4, #600]	; 0x258
    1d36:	b11b      	cbz	r3, 1d40 <IRQHandler_67+0x1c>
    1d38:	2033      	movs	r0, #51	; 0x33
    1d3a:	e8bd 4010 	ldmia.w	sp!, {r4, lr}
    1d3e:	4718      	bx	r3
    1d40:	bd10      	pop	{r4, pc}
    1d42:	bf00      	nop
    1d44:	200006dc 	ldrdcs	r0, [r0], -ip

00001d48 <IRQHandler_68>:
    1d48:	b510      	push	{r4, lr}
    1d4a:	4c07      	ldr	r4, [pc, #28]	; (1d68 <IRQHandler_68+0x20>)
    1d4c:	f8d4 30d0 	ldr.w	r3, [r4, #208]	; 0xd0
    1d50:	b10b      	cbz	r3, 1d56 <IRQHandler_68+0xe>
    1d52:	2034      	movs	r0, #52	; 0x34
    1d54:	4798      	blx	r3
    1d56:	f8d4 325c 	ldr.w	r3, [r4, #604]	; 0x25c
    1d5a:	b11b      	cbz	r3, 1d64 <IRQHandler_68+0x1c>
    1d5c:	2034      	movs	r0, #52	; 0x34
    1d5e:	e8bd 4010 	ldmia.w	sp!, {r4, lr}
    1d62:	4718      	bx	r3
    1d64:	bd10      	pop	{r4, pc}
    1d66:	bf00      	nop
    1d68:	200006dc 	ldrdcs	r0, [r0], -ip

00001d6c <IRQHandler_69>:
    1d6c:	b510      	push	{r4, lr}
    1d6e:	4c07      	ldr	r4, [pc, #28]	; (1d8c <IRQHandler_69+0x20>)
    1d70:	f8d4 30d4 	ldr.w	r3, [r4, #212]	; 0xd4
    1d74:	b10b      	cbz	r3, 1d7a <IRQHandler_69+0xe>
    1d76:	2035      	movs	r0, #53	; 0x35
    1d78:	4798      	blx	r3
    1d7a:	f8d4 3260 	ldr.w	r3, [r4, #608]	; 0x260
    1d7e:	b11b      	cbz	r3, 1d88 <IRQHandler_69+0x1c>
    1d80:	2035      	movs	r0, #53	; 0x35
    1d82:	e8bd 4010 	ldmia.w	sp!, {r4, lr}
    1d86:	4718      	bx	r3
    1d88:	bd10      	pop	{r4, pc}
    1d8a:	bf00      	nop
    1d8c:	200006dc 	ldrdcs	r0, [r0], -ip

00001d90 <IRQHandler_70>:
    1d90:	b510      	push	{r4, lr}
    1d92:	4c07      	ldr	r4, [pc, #28]	; (1db0 <IRQHandler_70+0x20>)
    1d94:	f8d4 30d8 	ldr.w	r3, [r4, #216]	; 0xd8
    1d98:	b10b      	cbz	r3, 1d9e <IRQHandler_70+0xe>
    1d9a:	2036      	movs	r0, #54	; 0x36
    1d9c:	4798      	blx	r3
    1d9e:	f8d4 3264 	ldr.w	r3, [r4, #612]	; 0x264
    1da2:	b11b      	cbz	r3, 1dac <IRQHandler_70+0x1c>
    1da4:	2036      	movs	r0, #54	; 0x36
    1da6:	e8bd 4010 	ldmia.w	sp!, {r4, lr}
    1daa:	4718      	bx	r3
    1dac:	bd10      	pop	{r4, pc}
    1dae:	bf00      	nop
    1db0:	200006dc 	ldrdcs	r0, [r0], -ip

00001db4 <IRQHandler_71>:
    1db4:	b510      	push	{r4, lr}
    1db6:	4c07      	ldr	r4, [pc, #28]	; (1dd4 <IRQHandler_71+0x20>)
    1db8:	f8d4 30dc 	ldr.w	r3, [r4, #220]	; 0xdc
    1dbc:	b10b      	cbz	r3, 1dc2 <IRQHandler_71+0xe>
    1dbe:	2037      	movs	r0, #55	; 0x37
    1dc0:	4798      	blx	r3
    1dc2:	f8d4 3268 	ldr.w	r3, [r4, #616]	; 0x268
    1dc6:	b11b      	cbz	r3, 1dd0 <IRQHandler_71+0x1c>
    1dc8:	2037      	movs	r0, #55	; 0x37
    1dca:	e8bd 4010 	ldmia.w	sp!, {r4, lr}
    1dce:	4718      	bx	r3
    1dd0:	bd10      	pop	{r4, pc}
    1dd2:	bf00      	nop
    1dd4:	200006dc 	ldrdcs	r0, [r0], -ip

00001dd8 <IRQHandler_72>:
    1dd8:	b510      	push	{r4, lr}
    1dda:	4c07      	ldr	r4, [pc, #28]	; (1df8 <IRQHandler_72+0x20>)
    1ddc:	f8d4 30e0 	ldr.w	r3, [r4, #224]	; 0xe0
    1de0:	b10b      	cbz	r3, 1de6 <IRQHandler_72+0xe>
    1de2:	2038      	movs	r0, #56	; 0x38
    1de4:	4798      	blx	r3
    1de6:	f8d4 326c 	ldr.w	r3, [r4, #620]	; 0x26c
    1dea:	b11b      	cbz	r3, 1df4 <IRQHandler_72+0x1c>
    1dec:	2038      	movs	r0, #56	; 0x38
    1dee:	e8bd 4010 	ldmia.w	sp!, {r4, lr}
    1df2:	4718      	bx	r3
    1df4:	bd10      	pop	{r4, pc}
    1df6:	bf00      	nop
    1df8:	200006dc 	ldrdcs	r0, [r0], -ip

00001dfc <IRQHandler_73>:
    1dfc:	b510      	push	{r4, lr}
    1dfe:	4c07      	ldr	r4, [pc, #28]	; (1e1c <IRQHandler_73+0x20>)
    1e00:	f8d4 30e4 	ldr.w	r3, [r4, #228]	; 0xe4
    1e04:	b10b      	cbz	r3, 1e0a <IRQHandler_73+0xe>
    1e06:	2039      	movs	r0, #57	; 0x39
    1e08:	4798      	blx	r3
    1e0a:	f8d4 3270 	ldr.w	r3, [r4, #624]	; 0x270
    1e0e:	b11b      	cbz	r3, 1e18 <IRQHandler_73+0x1c>
    1e10:	2039      	movs	r0, #57	; 0x39
    1e12:	e8bd 4010 	ldmia.w	sp!, {r4, lr}
    1e16:	4718      	bx	r3
    1e18:	bd10      	pop	{r4, pc}
    1e1a:	bf00      	nop
    1e1c:	200006dc 	ldrdcs	r0, [r0], -ip

00001e20 <IRQHandler_74>:
    1e20:	b510      	push	{r4, lr}
    1e22:	4c07      	ldr	r4, [pc, #28]	; (1e40 <IRQHandler_74+0x20>)
    1e24:	f8d4 30e8 	ldr.w	r3, [r4, #232]	; 0xe8
    1e28:	b10b      	cbz	r3, 1e2e <IRQHandler_74+0xe>
    1e2a:	203a      	movs	r0, #58	; 0x3a
    1e2c:	4798      	blx	r3
    1e2e:	f8d4 3274 	ldr.w	r3, [r4, #628]	; 0x274
    1e32:	b11b      	cbz	r3, 1e3c <IRQHandler_74+0x1c>
    1e34:	203a      	movs	r0, #58	; 0x3a
    1e36:	e8bd 4010 	ldmia.w	sp!, {r4, lr}
    1e3a:	4718      	bx	r3
    1e3c:	bd10      	pop	{r4, pc}
    1e3e:	bf00      	nop
    1e40:	200006dc 	ldrdcs	r0, [r0], -ip

00001e44 <IRQHandler_75>:
    1e44:	b510      	push	{r4, lr}
    1e46:	4c07      	ldr	r4, [pc, #28]	; (1e64 <IRQHandler_75+0x20>)
    1e48:	f8d4 30ec 	ldr.w	r3, [r4, #236]	; 0xec
    1e4c:	b10b      	cbz	r3, 1e52 <IRQHandler_75+0xe>
    1e4e:	203b      	movs	r0, #59	; 0x3b
    1e50:	4798      	blx	r3
    1e52:	f8d4 3278 	ldr.w	r3, [r4, #632]	; 0x278
    1e56:	b11b      	cbz	r3, 1e60 <IRQHandler_75+0x1c>
    1e58:	203b      	movs	r0, #59	; 0x3b
    1e5a:	e8bd 4010 	ldmia.w	sp!, {r4, lr}
    1e5e:	4718      	bx	r3
    1e60:	bd10      	pop	{r4, pc}
    1e62:	bf00      	nop
    1e64:	200006dc 	ldrdcs	r0, [r0], -ip

00001e68 <IRQHandler_76>:
    1e68:	b510      	push	{r4, lr}
    1e6a:	4c07      	ldr	r4, [pc, #28]	; (1e88 <IRQHandler_76+0x20>)
    1e6c:	f8d4 30f0 	ldr.w	r3, [r4, #240]	; 0xf0
    1e70:	b10b      	cbz	r3, 1e76 <IRQHandler_76+0xe>
    1e72:	203c      	movs	r0, #60	; 0x3c
    1e74:	4798      	blx	r3
    1e76:	f8d4 327c 	ldr.w	r3, [r4, #636]	; 0x27c
    1e7a:	b11b      	cbz	r3, 1e84 <IRQHandler_76+0x1c>
    1e7c:	203c      	movs	r0, #60	; 0x3c
    1e7e:	e8bd 4010 	ldmia.w	sp!, {r4, lr}
    1e82:	4718      	bx	r3
    1e84:	bd10      	pop	{r4, pc}
    1e86:	bf00      	nop
    1e88:	200006dc 	ldrdcs	r0, [r0], -ip

00001e8c <IRQHandler_77>:
    1e8c:	b510      	push	{r4, lr}
    1e8e:	4c07      	ldr	r4, [pc, #28]	; (1eac <IRQHandler_77+0x20>)
    1e90:	f8d4 30f4 	ldr.w	r3, [r4, #244]	; 0xf4
    1e94:	b10b      	cbz	r3, 1e9a <IRQHandler_77+0xe>
    1e96:	203d      	movs	r0, #61	; 0x3d
    1e98:	4798      	blx	r3
    1e9a:	f8d4 3280 	ldr.w	r3, [r4, #640]	; 0x280
    1e9e:	b11b      	cbz	r3, 1ea8 <IRQHandler_77+0x1c>
    1ea0:	203d      	movs	r0, #61	; 0x3d
    1ea2:	e8bd 4010 	ldmia.w	sp!, {r4, lr}
    1ea6:	4718      	bx	r3
    1ea8:	bd10      	pop	{r4, pc}
    1eaa:	bf00      	nop
    1eac:	200006dc 	ldrdcs	r0, [r0], -ip

00001eb0 <IRQHandler_78>:
    1eb0:	b510      	push	{r4, lr}
    1eb2:	4c07      	ldr	r4, [pc, #28]	; (1ed0 <IRQHandler_78+0x20>)
    1eb4:	f8d4 30f8 	ldr.w	r3, [r4, #248]	; 0xf8
    1eb8:	b10b      	cbz	r3, 1ebe <IRQHandler_78+0xe>
    1eba:	203e      	movs	r0, #62	; 0x3e
    1ebc:	4798      	blx	r3
    1ebe:	f8d4 3284 	ldr.w	r3, [r4, #644]	; 0x284
    1ec2:	b11b      	cbz	r3, 1ecc <IRQHandler_78+0x1c>
    1ec4:	203e      	movs	r0, #62	; 0x3e
    1ec6:	e8bd 4010 	ldmia.w	sp!, {r4, lr}
    1eca:	4718      	bx	r3
    1ecc:	bd10      	pop	{r4, pc}
    1ece:	bf00      	nop
    1ed0:	200006dc 	ldrdcs	r0, [r0], -ip

00001ed4 <IRQHandler_79>:
    1ed4:	b510      	push	{r4, lr}
    1ed6:	4c07      	ldr	r4, [pc, #28]	; (1ef4 <IRQHandler_79+0x20>)
    1ed8:	f8d4 30fc 	ldr.w	r3, [r4, #252]	; 0xfc
    1edc:	b10b      	cbz	r3, 1ee2 <IRQHandler_79+0xe>
    1ede:	203f      	movs	r0, #63	; 0x3f
    1ee0:	4798      	blx	r3
    1ee2:	f8d4 3288 	ldr.w	r3, [r4, #648]	; 0x288
    1ee6:	b11b      	cbz	r3, 1ef0 <IRQHandler_79+0x1c>
    1ee8:	203f      	movs	r0, #63	; 0x3f
    1eea:	e8bd 4010 	ldmia.w	sp!, {r4, lr}
    1eee:	4718      	bx	r3
    1ef0:	bd10      	pop	{r4, pc}
    1ef2:	bf00      	nop
    1ef4:	200006dc 	ldrdcs	r0, [r0], -ip

00001ef8 <IRQHandler_80>:
    1ef8:	b510      	push	{r4, lr}
    1efa:	4c07      	ldr	r4, [pc, #28]	; (1f18 <IRQHandler_80+0x20>)
    1efc:	f8d4 3100 	ldr.w	r3, [r4, #256]	; 0x100
    1f00:	b10b      	cbz	r3, 1f06 <IRQHandler_80+0xe>
    1f02:	2040      	movs	r0, #64	; 0x40
    1f04:	4798      	blx	r3
    1f06:	f8d4 328c 	ldr.w	r3, [r4, #652]	; 0x28c
    1f0a:	b11b      	cbz	r3, 1f14 <IRQHandler_80+0x1c>
    1f0c:	2040      	movs	r0, #64	; 0x40
    1f0e:	e8bd 4010 	ldmia.w	sp!, {r4, lr}
    1f12:	4718      	bx	r3
    1f14:	bd10      	pop	{r4, pc}
    1f16:	bf00      	nop
    1f18:	200006dc 	ldrdcs	r0, [r0], -ip

00001f1c <IRQHandler_81>:
    1f1c:	b510      	push	{r4, lr}
    1f1e:	4c07      	ldr	r4, [pc, #28]	; (1f3c <IRQHandler_81+0x20>)
    1f20:	f8d4 3104 	ldr.w	r3, [r4, #260]	; 0x104
    1f24:	b10b      	cbz	r3, 1f2a <IRQHandler_81+0xe>
    1f26:	2041      	movs	r0, #65	; 0x41
    1f28:	4798      	blx	r3
    1f2a:	f8d4 3290 	ldr.w	r3, [r4, #656]	; 0x290
    1f2e:	b11b      	cbz	r3, 1f38 <IRQHandler_81+0x1c>
    1f30:	2041      	movs	r0, #65	; 0x41
    1f32:	e8bd 4010 	ldmia.w	sp!, {r4, lr}
    1f36:	4718      	bx	r3
    1f38:	bd10      	pop	{r4, pc}
    1f3a:	bf00      	nop
    1f3c:	200006dc 	ldrdcs	r0, [r0], -ip

00001f40 <IRQHandler_82>:
    1f40:	b510      	push	{r4, lr}
    1f42:	4c07      	ldr	r4, [pc, #28]	; (1f60 <IRQHandler_82+0x20>)
    1f44:	f8d4 3108 	ldr.w	r3, [r4, #264]	; 0x108
    1f48:	b10b      	cbz	r3, 1f4e <IRQHandler_82+0xe>
    1f4a:	2042      	movs	r0, #66	; 0x42
    1f4c:	4798      	blx	r3
    1f4e:	f8d4 3294 	ldr.w	r3, [r4, #660]	; 0x294
    1f52:	b11b      	cbz	r3, 1f5c <IRQHandler_82+0x1c>
    1f54:	2042      	movs	r0, #66	; 0x42
    1f56:	e8bd 4010 	ldmia.w	sp!, {r4, lr}
    1f5a:	4718      	bx	r3
    1f5c:	bd10      	pop	{r4, pc}
    1f5e:	bf00      	nop
    1f60:	200006dc 	ldrdcs	r0, [r0], -ip

00001f64 <IRQHandler_83>:
    1f64:	b510      	push	{r4, lr}
    1f66:	4c07      	ldr	r4, [pc, #28]	; (1f84 <IRQHandler_83+0x20>)
    1f68:	f8d4 310c 	ldr.w	r3, [r4, #268]	; 0x10c
    1f6c:	b10b      	cbz	r3, 1f72 <IRQHandler_83+0xe>
    1f6e:	2043      	movs	r0, #67	; 0x43
    1f70:	4798      	blx	r3
    1f72:	f8d4 3298 	ldr.w	r3, [r4, #664]	; 0x298
    1f76:	b11b      	cbz	r3, 1f80 <IRQHandler_83+0x1c>
    1f78:	2043      	movs	r0, #67	; 0x43
    1f7a:	e8bd 4010 	ldmia.w	sp!, {r4, lr}
    1f7e:	4718      	bx	r3
    1f80:	bd10      	pop	{r4, pc}
    1f82:	bf00      	nop
    1f84:	200006dc 	ldrdcs	r0, [r0], -ip

00001f88 <IRQHandler_84>:
    1f88:	b510      	push	{r4, lr}
    1f8a:	4c07      	ldr	r4, [pc, #28]	; (1fa8 <IRQHandler_84+0x20>)
    1f8c:	f8d4 3110 	ldr.w	r3, [r4, #272]	; 0x110
    1f90:	b10b      	cbz	r3, 1f96 <IRQHandler_84+0xe>
    1f92:	2044      	movs	r0, #68	; 0x44
    1f94:	4798      	blx	r3
    1f96:	f8d4 329c 	ldr.w	r3, [r4, #668]	; 0x29c
    1f9a:	b11b      	cbz	r3, 1fa4 <IRQHandler_84+0x1c>
    1f9c:	2044      	movs	r0, #68	; 0x44
    1f9e:	e8bd 4010 	ldmia.w	sp!, {r4, lr}
    1fa2:	4718      	bx	r3
    1fa4:	bd10      	pop	{r4, pc}
    1fa6:	bf00      	nop
    1fa8:	200006dc 	ldrdcs	r0, [r0], -ip

00001fac <IRQHandler_85>:
    1fac:	b510      	push	{r4, lr}
    1fae:	4c07      	ldr	r4, [pc, #28]	; (1fcc <IRQHandler_85+0x20>)
    1fb0:	f8d4 3114 	ldr.w	r3, [r4, #276]	; 0x114
    1fb4:	b10b      	cbz	r3, 1fba <IRQHandler_85+0xe>
    1fb6:	2045      	movs	r0, #69	; 0x45
    1fb8:	4798      	blx	r3
    1fba:	f8d4 32a0 	ldr.w	r3, [r4, #672]	; 0x2a0
    1fbe:	b11b      	cbz	r3, 1fc8 <IRQHandler_85+0x1c>
    1fc0:	2045      	movs	r0, #69	; 0x45
    1fc2:	e8bd 4010 	ldmia.w	sp!, {r4, lr}
    1fc6:	4718      	bx	r3
    1fc8:	bd10      	pop	{r4, pc}
    1fca:	bf00      	nop
    1fcc:	200006dc 	ldrdcs	r0, [r0], -ip

00001fd0 <IRQHandler_86>:
    1fd0:	b510      	push	{r4, lr}
    1fd2:	4c07      	ldr	r4, [pc, #28]	; (1ff0 <IRQHandler_86+0x20>)
    1fd4:	f8d4 3118 	ldr.w	r3, [r4, #280]	; 0x118
    1fd8:	b10b      	cbz	r3, 1fde <IRQHandler_86+0xe>
    1fda:	2046      	movs	r0, #70	; 0x46
    1fdc:	4798      	blx	r3
    1fde:	f8d4 32a4 	ldr.w	r3, [r4, #676]	; 0x2a4
    1fe2:	b11b      	cbz	r3, 1fec <IRQHandler_86+0x1c>
    1fe4:	2046      	movs	r0, #70	; 0x46
    1fe6:	e8bd 4010 	ldmia.w	sp!, {r4, lr}
    1fea:	4718      	bx	r3
    1fec:	bd10      	pop	{r4, pc}
    1fee:	bf00      	nop
    1ff0:	200006dc 	ldrdcs	r0, [r0], -ip

00001ff4 <IRQHandler_87>:
    1ff4:	b510      	push	{r4, lr}
    1ff6:	4c07      	ldr	r4, [pc, #28]	; (2014 <IRQHandler_87+0x20>)
    1ff8:	f8d4 311c 	ldr.w	r3, [r4, #284]	; 0x11c
    1ffc:	b10b      	cbz	r3, 2002 <IRQHandler_87+0xe>
    1ffe:	2047      	movs	r0, #71	; 0x47
    2000:	4798      	blx	r3
    2002:	f8d4 32a8 	ldr.w	r3, [r4, #680]	; 0x2a8
    2006:	b11b      	cbz	r3, 2010 <IRQHandler_87+0x1c>
    2008:	2047      	movs	r0, #71	; 0x47
    200a:	e8bd 4010 	ldmia.w	sp!, {r4, lr}
    200e:	4718      	bx	r3
    2010:	bd10      	pop	{r4, pc}
    2012:	bf00      	nop
    2014:	200006dc 	ldrdcs	r0, [r0], -ip

00002018 <IRQHandler_88>:
    2018:	b510      	push	{r4, lr}
    201a:	4c07      	ldr	r4, [pc, #28]	; (2038 <IRQHandler_88+0x20>)
    201c:	f8d4 3120 	ldr.w	r3, [r4, #288]	; 0x120
    2020:	b10b      	cbz	r3, 2026 <IRQHandler_88+0xe>
    2022:	2048      	movs	r0, #72	; 0x48
    2024:	4798      	blx	r3
    2026:	f8d4 32ac 	ldr.w	r3, [r4, #684]	; 0x2ac
    202a:	b11b      	cbz	r3, 2034 <IRQHandler_88+0x1c>
    202c:	2048      	movs	r0, #72	; 0x48
    202e:	e8bd 4010 	ldmia.w	sp!, {r4, lr}
    2032:	4718      	bx	r3
    2034:	bd10      	pop	{r4, pc}
    2036:	bf00      	nop
    2038:	200006dc 	ldrdcs	r0, [r0], -ip

0000203c <IRQHandler_89>:
    203c:	b510      	push	{r4, lr}
    203e:	4c07      	ldr	r4, [pc, #28]	; (205c <IRQHandler_89+0x20>)
    2040:	f8d4 3124 	ldr.w	r3, [r4, #292]	; 0x124
    2044:	b10b      	cbz	r3, 204a <IRQHandler_89+0xe>
    2046:	2049      	movs	r0, #73	; 0x49
    2048:	4798      	blx	r3
    204a:	f8d4 32b0 	ldr.w	r3, [r4, #688]	; 0x2b0
    204e:	b11b      	cbz	r3, 2058 <IRQHandler_89+0x1c>
    2050:	2049      	movs	r0, #73	; 0x49
    2052:	e8bd 4010 	ldmia.w	sp!, {r4, lr}
    2056:	4718      	bx	r3
    2058:	bd10      	pop	{r4, pc}
    205a:	bf00      	nop
    205c:	200006dc 	ldrdcs	r0, [r0], -ip

00002060 <IRQHandler_90>:
    2060:	b510      	push	{r4, lr}
    2062:	4c07      	ldr	r4, [pc, #28]	; (2080 <IRQHandler_90+0x20>)
    2064:	f8d4 3128 	ldr.w	r3, [r4, #296]	; 0x128
    2068:	b10b      	cbz	r3, 206e <IRQHandler_90+0xe>
    206a:	204a      	movs	r0, #74	; 0x4a
    206c:	4798      	blx	r3
    206e:	f8d4 32b4 	ldr.w	r3, [r4, #692]	; 0x2b4
    2072:	b11b      	cbz	r3, 207c <IRQHandler_90+0x1c>
    2074:	204a      	movs	r0, #74	; 0x4a
    2076:	e8bd 4010 	ldmia.w	sp!, {r4, lr}
    207a:	4718      	bx	r3
    207c:	bd10      	pop	{r4, pc}
    207e:	bf00      	nop
    2080:	200006dc 	ldrdcs	r0, [r0], -ip

00002084 <IRQHandler_91>:
    2084:	b510      	push	{r4, lr}
    2086:	4c07      	ldr	r4, [pc, #28]	; (20a4 <IRQHandler_91+0x20>)
    2088:	f8d4 312c 	ldr.w	r3, [r4, #300]	; 0x12c
    208c:	b10b      	cbz	r3, 2092 <IRQHandler_91+0xe>
    208e:	204b      	movs	r0, #75	; 0x4b
    2090:	4798      	blx	r3
    2092:	f8d4 32b8 	ldr.w	r3, [r4, #696]	; 0x2b8
    2096:	b11b      	cbz	r3, 20a0 <IRQHandler_91+0x1c>
    2098:	204b      	movs	r0, #75	; 0x4b
    209a:	e8bd 4010 	ldmia.w	sp!, {r4, lr}
    209e:	4718      	bx	r3
    20a0:	bd10      	pop	{r4, pc}
    20a2:	bf00      	nop
    20a4:	200006dc 	ldrdcs	r0, [r0], -ip

000020a8 <IRQHandler_92>:
    20a8:	b510      	push	{r4, lr}
    20aa:	4c07      	ldr	r4, [pc, #28]	; (20c8 <IRQHandler_92+0x20>)
    20ac:	f8d4 3130 	ldr.w	r3, [r4, #304]	; 0x130
    20b0:	b10b      	cbz	r3, 20b6 <IRQHandler_92+0xe>
    20b2:	204c      	movs	r0, #76	; 0x4c
    20b4:	4798      	blx	r3
    20b6:	f8d4 32bc 	ldr.w	r3, [r4, #700]	; 0x2bc
    20ba:	b11b      	cbz	r3, 20c4 <IRQHandler_92+0x1c>
    20bc:	204c      	movs	r0, #76	; 0x4c
    20be:	e8bd 4010 	ldmia.w	sp!, {r4, lr}
    20c2:	4718      	bx	r3
    20c4:	bd10      	pop	{r4, pc}
    20c6:	bf00      	nop
    20c8:	200006dc 	ldrdcs	r0, [r0], -ip

000020cc <IRQHandler_93>:
    20cc:	b510      	push	{r4, lr}
    20ce:	4c07      	ldr	r4, [pc, #28]	; (20ec <IRQHandler_93+0x20>)
    20d0:	f8d4 3134 	ldr.w	r3, [r4, #308]	; 0x134
    20d4:	b10b      	cbz	r3, 20da <IRQHandler_93+0xe>
    20d6:	204d      	movs	r0, #77	; 0x4d
    20d8:	4798      	blx	r3
    20da:	f8d4 32c0 	ldr.w	r3, [r4, #704]	; 0x2c0
    20de:	b11b      	cbz	r3, 20e8 <IRQHandler_93+0x1c>
    20e0:	204d      	movs	r0, #77	; 0x4d
    20e2:	e8bd 4010 	ldmia.w	sp!, {r4, lr}
    20e6:	4718      	bx	r3
    20e8:	bd10      	pop	{r4, pc}
    20ea:	bf00      	nop
    20ec:	200006dc 	ldrdcs	r0, [r0], -ip

000020f0 <IRQHandler_94>:
    20f0:	b510      	push	{r4, lr}
    20f2:	4c07      	ldr	r4, [pc, #28]	; (2110 <IRQHandler_94+0x20>)
    20f4:	f8d4 3138 	ldr.w	r3, [r4, #312]	; 0x138
    20f8:	b10b      	cbz	r3, 20fe <IRQHandler_94+0xe>
    20fa:	204e      	movs	r0, #78	; 0x4e
    20fc:	4798      	blx	r3
    20fe:	f8d4 32c4 	ldr.w	r3, [r4, #708]	; 0x2c4
    2102:	b11b      	cbz	r3, 210c <IRQHandler_94+0x1c>
    2104:	204e      	movs	r0, #78	; 0x4e
    2106:	e8bd 4010 	ldmia.w	sp!, {r4, lr}
    210a:	4718      	bx	r3
    210c:	bd10      	pop	{r4, pc}
    210e:	bf00      	nop
    2110:	200006dc 	ldrdcs	r0, [r0], -ip

00002114 <IRQHandler_95>:
    2114:	b510      	push	{r4, lr}
    2116:	4c07      	ldr	r4, [pc, #28]	; (2134 <IRQHandler_95+0x20>)
    2118:	f8d4 313c 	ldr.w	r3, [r4, #316]	; 0x13c
    211c:	b10b      	cbz	r3, 2122 <IRQHandler_95+0xe>
    211e:	204f      	movs	r0, #79	; 0x4f
    2120:	4798      	blx	r3
    2122:	f8d4 32c8 	ldr.w	r3, [r4, #712]	; 0x2c8
    2126:	b11b      	cbz	r3, 2130 <IRQHandler_95+0x1c>
    2128:	204f      	movs	r0, #79	; 0x4f
    212a:	e8bd 4010 	ldmia.w	sp!, {r4, lr}
    212e:	4718      	bx	r3
    2130:	bd10      	pop	{r4, pc}
    2132:	bf00      	nop
    2134:	200006dc 	ldrdcs	r0, [r0], -ip

00002138 <IRQHandler_96>:
    2138:	b510      	push	{r4, lr}
    213a:	4c07      	ldr	r4, [pc, #28]	; (2158 <IRQHandler_96+0x20>)
    213c:	f8d4 3140 	ldr.w	r3, [r4, #320]	; 0x140
    2140:	b10b      	cbz	r3, 2146 <IRQHandler_96+0xe>
    2142:	2050      	movs	r0, #80	; 0x50
    2144:	4798      	blx	r3
    2146:	f8d4 32cc 	ldr.w	r3, [r4, #716]	; 0x2cc
    214a:	b11b      	cbz	r3, 2154 <IRQHandler_96+0x1c>
    214c:	2050      	movs	r0, #80	; 0x50
    214e:	e8bd 4010 	ldmia.w	sp!, {r4, lr}
    2152:	4718      	bx	r3
    2154:	bd10      	pop	{r4, pc}
    2156:	bf00      	nop
    2158:	200006dc 	ldrdcs	r0, [r0], -ip

0000215c <IRQHandler_97>:
    215c:	b510      	push	{r4, lr}
    215e:	4c07      	ldr	r4, [pc, #28]	; (217c <IRQHandler_97+0x20>)
    2160:	f8d4 3144 	ldr.w	r3, [r4, #324]	; 0x144
    2164:	b10b      	cbz	r3, 216a <IRQHandler_97+0xe>
    2166:	2051      	movs	r0, #81	; 0x51
    2168:	4798      	blx	r3
    216a:	f8d4 32d0 	ldr.w	r3, [r4, #720]	; 0x2d0
    216e:	b11b      	cbz	r3, 2178 <IRQHandler_97+0x1c>
    2170:	2051      	movs	r0, #81	; 0x51
    2172:	e8bd 4010 	ldmia.w	sp!, {r4, lr}
    2176:	4718      	bx	r3
    2178:	bd10      	pop	{r4, pc}
    217a:	bf00      	nop
    217c:	200006dc 	ldrdcs	r0, [r0], -ip

00002180 <IRQHandler_98>:
    2180:	b510      	push	{r4, lr}
    2182:	4c07      	ldr	r4, [pc, #28]	; (21a0 <IRQHandler_98+0x20>)
    2184:	f8d4 3148 	ldr.w	r3, [r4, #328]	; 0x148
    2188:	b10b      	cbz	r3, 218e <IRQHandler_98+0xe>
    218a:	2052      	movs	r0, #82	; 0x52
    218c:	4798      	blx	r3
    218e:	f8d4 32d4 	ldr.w	r3, [r4, #724]	; 0x2d4
    2192:	b11b      	cbz	r3, 219c <IRQHandler_98+0x1c>
    2194:	2052      	movs	r0, #82	; 0x52
    2196:	e8bd 4010 	ldmia.w	sp!, {r4, lr}
    219a:	4718      	bx	r3
    219c:	bd10      	pop	{r4, pc}
    219e:	bf00      	nop
    21a0:	200006dc 	ldrdcs	r0, [r0], -ip

000021a4 <get_uart_clock_by_index>:
    21a4:	b500      	push	{lr}
    21a6:	2340      	movs	r3, #64	; 0x40
    21a8:	b083      	sub	sp, #12
    21aa:	f8ad 3006 	strh.w	r3, [sp, #6]
    21ae:	280a      	cmp	r0, #10
    21b0:	d81c      	bhi.n	21ec <get_uart_clock_by_index+0x48>
    21b2:	e8df f000 	tbb	[pc, r0]
    21b6:	10101010 	andsne	r1, r0, r0, lsl r0
    21ba:	10101010 	andsne	r1, r0, r0, lsl r0
    21be:	00060610 	andeq	r0, r6, r0, lsl r6
    21c2:	f10d 0006 	add.w	r0, sp, #6
    21c6:	2102      	movs	r1, #2
    21c8:	f7fe fec0 	bl	f4c <PLLCTRL_GetCoreClk>
    21cc:	f8bd 0006 	ldrh.w	r0, [sp, #6]
    21d0:	b003      	add	sp, #12
    21d2:	f85d fb04 	ldr.w	pc, [sp], #4
    21d6:	f10d 0006 	add.w	r0, sp, #6
    21da:	2100      	movs	r1, #0
    21dc:	f7fe feb6 	bl	f4c <PLLCTRL_GetCoreClk>
    21e0:	f8bd 0006 	ldrh.w	r0, [sp, #6]
    21e4:	0840      	lsrs	r0, r0, #1
    21e6:	b003      	add	sp, #12
    21e8:	f85d fb04 	ldr.w	pc, [sp], #4
    21ec:	2040      	movs	r0, #64	; 0x40
    21ee:	e7ef      	b.n	21d0 <get_uart_clock_by_index+0x2c>

000021f0 <uart_init>:
    21f0:	280a      	cmp	r0, #10
    21f2:	d832      	bhi.n	225a <uart_init+0x6a>
    21f4:	b5f8      	push	{r3, r4, r5, r6, r7, lr}
    21f6:	4b20      	ldr	r3, [pc, #128]	; (2278 <uart_init+0x88>)
    21f8:	f853 6020 	ldr.w	r6, [r3, r0, lsl #2]
    21fc:	2e00      	cmp	r6, #0
    21fe:	d037      	beq.n	2270 <uart_init+0x80>
    2200:	2800      	cmp	r0, #0
    2202:	d036      	beq.n	2272 <uart_init+0x82>
    2204:	23c7      	movs	r3, #199	; 0xc7
    2206:	60b3      	str	r3, [r6, #8]
    2208:	2303      	movs	r3, #3
    220a:	2700      	movs	r7, #0
    220c:	460c      	mov	r4, r1
    220e:	4605      	mov	r5, r0
    2210:	6077      	str	r7, [r6, #4]
    2212:	60f3      	str	r3, [r6, #12]
    2214:	f7ff ffc6 	bl	21a4 <get_uart_clock_by_index>
    2218:	4a18      	ldr	r2, [pc, #96]	; (227c <uart_init+0x8c>)
    221a:	0123      	lsls	r3, r4, #4
    221c:	68f1      	ldr	r1, [r6, #12]
    221e:	fb02 f000 	mul.w	r0, r2, r0
    2222:	2d0a      	cmp	r5, #10
    2224:	f041 0180 	orr.w	r1, r1, #128	; 0x80
    2228:	fbb0 f3f3 	udiv	r3, r0, r3
    222c:	f3c3 2207 	ubfx	r2, r3, #8, #8
    2230:	b2db      	uxtb	r3, r3
    2232:	60f1      	str	r1, [r6, #12]
    2234:	6072      	str	r2, [r6, #4]
    2236:	6033      	str	r3, [r6, #0]
    2238:	68f3      	ldr	r3, [r6, #12]
    223a:	f023 0380 	bic.w	r3, r3, #128	; 0x80
    223e:	60f3      	str	r3, [r6, #12]
    2240:	6873      	ldr	r3, [r6, #4]
    2242:	f043 0301 	orr.w	r3, r3, #1
    2246:	6073      	str	r3, [r6, #4]
    2248:	d008      	beq.n	225c <uart_init+0x6c>
    224a:	eb05 0045 	add.w	r0, r5, r5, lsl #1
    224e:	4b0c      	ldr	r3, [pc, #48]	; (2280 <uart_init+0x90>)
    2250:	0080      	lsls	r0, r0, #2
    2252:	181a      	adds	r2, r3, r0
    2254:	8057      	strh	r7, [r2, #2]
    2256:	521f      	strh	r7, [r3, r0]
    2258:	bdf8      	pop	{r3, r4, r5, r6, r7, pc}
    225a:	4770      	bx	lr
    225c:	4c09      	ldr	r4, [pc, #36]	; (2284 <uart_init+0x94>)
    225e:	4639      	mov	r1, r7
    2260:	f44f 6280 	mov.w	r2, #1024	; 0x400
    2264:	4620      	mov	r0, r4
    2266:	f006 ff63 	bl	9130 <memset>
    226a:	f104 0308 	add.w	r3, r4, #8
    226e:	6023      	str	r3, [r4, #0]
    2270:	bdf8      	pop	{r3, r4, r5, r6, r7, pc}
    2272:	2307      	movs	r3, #7
    2274:	60b3      	str	r3, [r6, #8]
    2276:	e7c7      	b.n	2208 <uart_init+0x18>
    2278:	0000bc28 	andeq	fp, r0, r8, lsr #24
    227c:	000f4240 	andeq	r4, pc, r0, asr #4
    2280:	200009f4 	strdcs	r0, [r0], -r4
    2284:	20004bdc 	ldrdcs	r4, [r0], -ip

00002288 <uart_checkoutFifoStatus>:
    2288:	280a      	cmp	r0, #10
    228a:	d00d      	beq.n	22a8 <uart_checkoutFifoStatus+0x20>
    228c:	eb00 0040 	add.w	r0, r0, r0, lsl #1
    2290:	4a0a      	ldr	r2, [pc, #40]	; (22bc <uart_checkoutFifoStatus+0x34>)
    2292:	0080      	lsls	r0, r0, #2
    2294:	5a13      	ldrh	r3, [r2, r0]
    2296:	b29b      	uxth	r3, r3
    2298:	b94b      	cbnz	r3, 22ae <uart_checkoutFifoStatus+0x26>
    229a:	4410      	add	r0, r2
    229c:	8840      	ldrh	r0, [r0, #2]
    229e:	b280      	uxth	r0, r0
    22a0:	3000      	adds	r0, #0
    22a2:	bf18      	it	ne
    22a4:	2001      	movne	r0, #1
    22a6:	4770      	bx	lr
    22a8:	4b05      	ldr	r3, [pc, #20]	; (22c0 <uart_checkoutFifoStatus+0x38>)
    22aa:	889a      	ldrh	r2, [r3, #4]
    22ac:	b10a      	cbz	r2, 22b2 <uart_checkoutFifoStatus+0x2a>
    22ae:	2001      	movs	r0, #1
    22b0:	4770      	bx	lr
    22b2:	88d8      	ldrh	r0, [r3, #6]
    22b4:	3000      	adds	r0, #0
    22b6:	bf18      	it	ne
    22b8:	2001      	movne	r0, #1
    22ba:	4770      	bx	lr
    22bc:	200009f4 	strdcs	r0, [r0], -r4
    22c0:	20004bdc 	ldrdcs	r4, [r0], -ip

000022c4 <Uart_WaitTillIdle>:
    22c4:	b909      	cbnz	r1, 22ca <Uart_WaitTillIdle+0x6>
    22c6:	2000      	movs	r0, #0
    22c8:	4770      	bx	lr
    22ca:	e92d 41f0 	stmdb	sp!, {r4, r5, r6, r7, r8, lr}
    22ce:	4605      	mov	r5, r0
    22d0:	460c      	mov	r4, r1
    22d2:	f7fe fd65 	bl	da0 <SysTicks_GetTickCount>
    22d6:	4b14      	ldr	r3, [pc, #80]	; (2328 <Uart_WaitTillIdle+0x64>)
    22d8:	eb05 0645 	add.w	r6, r5, r5, lsl #1
    22dc:	4607      	mov	r7, r0
    22de:	f8df 804c 	ldr.w	r8, [pc, #76]	; 232c <Uart_WaitTillIdle+0x68>
    22e2:	eb03 0686 	add.w	r6, r3, r6, lsl #2
    22e6:	e00d      	b.n	2304 <Uart_WaitTillIdle+0x40>
    22e8:	8833      	ldrh	r3, [r6, #0]
    22ea:	b29b      	uxth	r3, r3
    22ec:	b913      	cbnz	r3, 22f4 <Uart_WaitTillIdle+0x30>
    22ee:	8873      	ldrh	r3, [r6, #2]
    22f0:	b29b      	uxth	r3, r3
    22f2:	b18b      	cbz	r3, 2318 <Uart_WaitTillIdle+0x54>
    22f4:	f7fe fd54 	bl	da0 <SysTicks_GetTickCount>
    22f8:	4601      	mov	r1, r0
    22fa:	4638      	mov	r0, r7
    22fc:	f7fe fdca 	bl	e94 <SysTicks_GetDiff>
    2300:	4284      	cmp	r4, r0
    2302:	d90c      	bls.n	231e <Uart_WaitTillIdle+0x5a>
    2304:	2d0a      	cmp	r5, #10
    2306:	d1ef      	bne.n	22e8 <Uart_WaitTillIdle+0x24>
    2308:	f8b8 3004 	ldrh.w	r3, [r8, #4]
    230c:	2b00      	cmp	r3, #0
    230e:	d1f1      	bne.n	22f4 <Uart_WaitTillIdle+0x30>
    2310:	f8b8 3006 	ldrh.w	r3, [r8, #6]
    2314:	2b00      	cmp	r3, #0
    2316:	d1ed      	bne.n	22f4 <Uart_WaitTillIdle+0x30>
    2318:	2000      	movs	r0, #0
    231a:	e8bd 81f0 	ldmia.w	sp!, {r4, r5, r6, r7, r8, pc}
    231e:	f04f 30ff 	mov.w	r0, #4294967295
    2322:	e8bd 81f0 	ldmia.w	sp!, {r4, r5, r6, r7, r8, pc}
    2326:	bf00      	nop
    2328:	200009f4 	strdcs	r0, [r0], -r4
    232c:	20004bdc 	ldrdcs	r4, [r0], -ip

00002330 <uart_putFifo>:
    2330:	280a      	cmp	r0, #10
    2332:	e92d 41f0 	stmdb	sp!, {r4, r5, r6, r7, r8, lr}
    2336:	d910      	bls.n	235a <uart_putFifo+0x2a>
    2338:	4604      	mov	r4, r0
    233a:	f005 fe87 	bl	804c <dlog_get_output_level>
    233e:	2801      	cmp	r0, #1
    2340:	d909      	bls.n	2356 <uart_putFifo+0x26>
    2342:	f44f 71c6 	mov.w	r1, #396	; 0x18c
    2346:	4623      	mov	r3, r4
    2348:	4a58      	ldr	r2, [pc, #352]	; (24ac <uart_putFifo+0x17c>)
    234a:	6809      	ldr	r1, [r1, #0]
    234c:	4858      	ldr	r0, [pc, #352]	; (24b0 <uart_putFifo+0x180>)
    234e:	e8bd 41f0 	ldmia.w	sp!, {r4, r5, r6, r7, r8, lr}
    2352:	f006 be43 	b.w	8fdc <printf>
    2356:	e8bd 81f0 	ldmia.w	sp!, {r4, r5, r6, r7, r8, pc}
    235a:	4b56      	ldr	r3, [pc, #344]	; (24b4 <uart_putFifo+0x184>)
    235c:	f853 5020 	ldr.w	r5, [r3, r0, lsl #2]
    2360:	2d00      	cmp	r5, #0
    2362:	d0e9      	beq.n	2338 <uart_putFifo+0x8>
    2364:	280a      	cmp	r0, #10
    2366:	d050      	beq.n	240a <uart_putFifo+0xda>
    2368:	0046      	lsls	r6, r0, #1
    236a:	4953      	ldr	r1, [pc, #332]	; (24b8 <uart_putFifo+0x188>)
    236c:	1834      	adds	r4, r6, r0
    236e:	00a2      	lsls	r2, r4, #2
    2370:	5a8b      	ldrh	r3, [r1, r2]
    2372:	b29b      	uxth	r3, r3
    2374:	2b10      	cmp	r3, #16
    2376:	d918      	bls.n	23aa <uart_putFifo+0x7a>
    2378:	4627      	mov	r7, r4
    237a:	4411      	add	r1, r2
    237c:	2300      	movs	r3, #0
    237e:	6848      	ldr	r0, [r1, #4]
    2380:	884a      	ldrh	r2, [r1, #2]
    2382:	4c4d      	ldr	r4, [pc, #308]	; (24b8 <uart_putFifo+0x188>)
    2384:	fa10 f282 	uxtah	r2, r0, r2
    2388:	5cd2      	ldrb	r2, [r2, r3]
    238a:	3301      	adds	r3, #1
    238c:	2b10      	cmp	r3, #16
    238e:	602a      	str	r2, [r5, #0]
    2390:	d1f5      	bne.n	237e <uart_putFifo+0x4e>
    2392:	880b      	ldrh	r3, [r1, #0]
    2394:	eb04 0487 	add.w	r4, r4, r7, lsl #2
    2398:	3b10      	subs	r3, #16
    239a:	b29b      	uxth	r3, r3
    239c:	800b      	strh	r3, [r1, #0]
    239e:	884b      	ldrh	r3, [r1, #2]
    23a0:	3310      	adds	r3, #16
    23a2:	b29b      	uxth	r3, r3
    23a4:	8063      	strh	r3, [r4, #2]
    23a6:	e8bd 81f0 	ldmia.w	sp!, {r4, r5, r6, r7, r8, pc}
    23aa:	5a8b      	ldrh	r3, [r1, r2]
    23ac:	b29b      	uxth	r3, r3
    23ae:	2b10      	cmp	r3, #16
    23b0:	d820      	bhi.n	23f4 <uart_putFifo+0xc4>
    23b2:	5a8b      	ldrh	r3, [r1, r2]
    23b4:	b29b      	uxth	r3, r3
    23b6:	b1eb      	cbz	r3, 23f4 <uart_putFifo+0xc4>
    23b8:	5a8b      	ldrh	r3, [r1, r2]
    23ba:	b29b      	uxth	r3, r3
    23bc:	b173      	cbz	r3, 23dc <uart_putFifo+0xac>
    23be:	440a      	add	r2, r1
    23c0:	2300      	movs	r3, #0
    23c2:	f8d2 e004 	ldr.w	lr, [r2, #4]
    23c6:	1c5f      	adds	r7, r3, #1
    23c8:	8854      	ldrh	r4, [r2, #2]
    23ca:	fa1e f484 	uxtah	r4, lr, r4
    23ce:	5ce4      	ldrb	r4, [r4, r3]
    23d0:	b2fb      	uxtb	r3, r7
    23d2:	602c      	str	r4, [r5, #0]
    23d4:	8814      	ldrh	r4, [r2, #0]
    23d6:	b2a4      	uxth	r4, r4
    23d8:	42a3      	cmp	r3, r4
    23da:	d3f2      	bcc.n	23c2 <uart_putFifo+0x92>
    23dc:	4430      	add	r0, r6
    23de:	2400      	movs	r4, #0
    23e0:	0080      	lsls	r0, r0, #2
    23e2:	180a      	adds	r2, r1, r0
    23e4:	5a0b      	ldrh	r3, [r1, r0]
    23e6:	8855      	ldrh	r5, [r2, #2]
    23e8:	442b      	add	r3, r5
    23ea:	b29b      	uxth	r3, r3
    23ec:	8053      	strh	r3, [r2, #2]
    23ee:	520c      	strh	r4, [r1, r0]
    23f0:	e8bd 81f0 	ldmia.w	sp!, {r4, r5, r6, r7, r8, pc}
    23f4:	4430      	add	r0, r6
    23f6:	2300      	movs	r3, #0
    23f8:	eb01 0180 	add.w	r1, r1, r0, lsl #2
    23fc:	804b      	strh	r3, [r1, #2]
    23fe:	686b      	ldr	r3, [r5, #4]
    2400:	f023 0302 	bic.w	r3, r3, #2
    2404:	606b      	str	r3, [r5, #4]
    2406:	e8bd 81f0 	ldmia.w	sp!, {r4, r5, r6, r7, r8, pc}
    240a:	4a2c      	ldr	r2, [pc, #176]	; (24bc <uart_putFifo+0x18c>)
    240c:	8893      	ldrh	r3, [r2, #4]
    240e:	2b10      	cmp	r3, #16
    2410:	d91a      	bls.n	2448 <uart_putFifo+0x118>
    2412:	f502 6480 	add.w	r4, r2, #1024	; 0x400
    2416:	2310      	movs	r3, #16
    2418:	4617      	mov	r7, r2
    241a:	f102 0608 	add.w	r6, r2, #8
    241e:	6811      	ldr	r1, [r2, #0]
    2420:	3b01      	subs	r3, #1
    2422:	1c48      	adds	r0, r1, #1
    2424:	6010      	str	r0, [r2, #0]
    2426:	7809      	ldrb	r1, [r1, #0]
    2428:	6029      	str	r1, [r5, #0]
    242a:	6811      	ldr	r1, [r2, #0]
    242c:	42a1      	cmp	r1, r4
    242e:	d300      	bcc.n	2432 <uart_putFifo+0x102>
    2430:	603e      	str	r6, [r7, #0]
    2432:	f013 03ff 	ands.w	r3, r3, #255	; 0xff
    2436:	d1f2      	bne.n	241e <uart_putFifo+0xee>
    2438:	8893      	ldrh	r3, [r2, #4]
    243a:	3b10      	subs	r3, #16
    243c:	8093      	strh	r3, [r2, #4]
    243e:	88d3      	ldrh	r3, [r2, #6]
    2440:	3310      	adds	r3, #16
    2442:	80d3      	strh	r3, [r2, #6]
    2444:	e8bd 81f0 	ldmia.w	sp!, {r4, r5, r6, r7, r8, pc}
    2448:	8893      	ldrh	r3, [r2, #4]
    244a:	2b10      	cmp	r3, #16
    244c:	d822      	bhi.n	2494 <uart_putFifo+0x164>
    244e:	8893      	ldrh	r3, [r2, #4]
    2450:	b303      	cbz	r3, 2494 <uart_putFifo+0x164>
    2452:	8893      	ldrh	r3, [r2, #4]
    2454:	b19b      	cbz	r3, 247e <uart_putFifo+0x14e>
    2456:	f502 6480 	add.w	r4, r2, #1024	; 0x400
    245a:	2300      	movs	r3, #0
    245c:	4617      	mov	r7, r2
    245e:	f102 0608 	add.w	r6, r2, #8
    2462:	6811      	ldr	r1, [r2, #0]
    2464:	3301      	adds	r3, #1
    2466:	1c48      	adds	r0, r1, #1
    2468:	b2db      	uxtb	r3, r3
    246a:	6010      	str	r0, [r2, #0]
    246c:	7809      	ldrb	r1, [r1, #0]
    246e:	6029      	str	r1, [r5, #0]
    2470:	6811      	ldr	r1, [r2, #0]
    2472:	42a1      	cmp	r1, r4
    2474:	d300      	bcc.n	2478 <uart_putFifo+0x148>
    2476:	603e      	str	r6, [r7, #0]
    2478:	8891      	ldrh	r1, [r2, #4]
    247a:	428b      	cmp	r3, r1
    247c:	d3f1      	bcc.n	2462 <uart_putFifo+0x132>
    247e:	8890      	ldrh	r0, [r2, #4]
    2480:	2100      	movs	r1, #0
    2482:	88d3      	ldrh	r3, [r2, #6]
    2484:	4403      	add	r3, r0
    2486:	80d3      	strh	r3, [r2, #6]
    2488:	7913      	ldrb	r3, [r2, #4]
    248a:	7111      	strb	r1, [r2, #4]
    248c:	7953      	ldrb	r3, [r2, #5]
    248e:	7151      	strb	r1, [r2, #5]
    2490:	e8bd 81f0 	ldmia.w	sp!, {r4, r5, r6, r7, r8, pc}
    2494:	2300      	movs	r3, #0
    2496:	7991      	ldrb	r1, [r2, #6]
    2498:	7193      	strb	r3, [r2, #6]
    249a:	79d1      	ldrb	r1, [r2, #7]
    249c:	71d3      	strb	r3, [r2, #7]
    249e:	686b      	ldr	r3, [r5, #4]
    24a0:	f023 0302 	bic.w	r3, r3, #2
    24a4:	606b      	str	r3, [r5, #4]
    24a6:	e8bd 81f0 	ldmia.w	sp!, {r4, r5, r6, r7, r8, pc}
    24aa:	bf00      	nop
    24ac:	0000bc54 	andeq	fp, r0, r4, asr ip
    24b0:	0000bc8c 	andeq	fp, r0, ip, lsl #25
    24b4:	0000bc28 	andeq	fp, r0, r8, lsr #24
    24b8:	200009f4 	strdcs	r0, [r0], -r4
    24bc:	20004bdc 	ldrdcs	r4, [r0], -ip

000024c0 <uart_putc>:
    24c0:	280a      	cmp	r0, #10
    24c2:	b570      	push	{r4, r5, r6, lr}
    24c4:	d816      	bhi.n	24f4 <uart_putc+0x34>
    24c6:	4a15      	ldr	r2, [pc, #84]	; (251c <uart_putc+0x5c>)
    24c8:	4b15      	ldr	r3, [pc, #84]	; (2520 <uart_putc+0x60>)
    24ca:	f852 2020 	ldr.w	r2, [r2, r0, lsl #2]
    24ce:	f883 1084 	strb.w	r1, [r3, #132]	; 0x84
    24d2:	b192      	cbz	r2, 24fa <uart_putc+0x3a>
    24d4:	eb00 0040 	add.w	r0, r0, r0, lsl #1
    24d8:	f103 0484 	add.w	r4, r3, #132	; 0x84
    24dc:	2601      	movs	r6, #1
    24de:	2500      	movs	r5, #0
    24e0:	0080      	lsls	r0, r0, #2
    24e2:	1819      	adds	r1, r3, r0
    24e4:	521e      	strh	r6, [r3, r0]
    24e6:	804d      	strh	r5, [r1, #2]
    24e8:	604c      	str	r4, [r1, #4]
    24ea:	6853      	ldr	r3, [r2, #4]
    24ec:	f043 0302 	orr.w	r3, r3, #2
    24f0:	6053      	str	r3, [r2, #4]
    24f2:	bd70      	pop	{r4, r5, r6, pc}
    24f4:	4b0a      	ldr	r3, [pc, #40]	; (2520 <uart_putc+0x60>)
    24f6:	f883 1084 	strb.w	r1, [r3, #132]	; 0x84
    24fa:	4604      	mov	r4, r0
    24fc:	f005 fda6 	bl	804c <dlog_get_output_level>
    2500:	2801      	cmp	r0, #1
    2502:	d909      	bls.n	2518 <uart_putc+0x58>
    2504:	f44f 71c6 	mov.w	r1, #396	; 0x18c
    2508:	4623      	mov	r3, r4
    250a:	4a06      	ldr	r2, [pc, #24]	; (2524 <uart_putc+0x64>)
    250c:	6809      	ldr	r1, [r1, #0]
    250e:	4806      	ldr	r0, [pc, #24]	; (2528 <uart_putc+0x68>)
    2510:	e8bd 4070 	ldmia.w	sp!, {r4, r5, r6, lr}
    2514:	f006 bd62 	b.w	8fdc <printf>
    2518:	bd70      	pop	{r4, r5, r6, pc}
    251a:	bf00      	nop
    251c:	0000bc28 	andeq	fp, r0, r8, lsr #24
    2520:	200009f4 	strdcs	r0, [r0], -r4
    2524:	0000bc64 	andeq	fp, r0, r4, ror #24
    2528:	0000bc8c 	andeq	fp, r0, ip, lsl #25

0000252c <uart_puts>:
    252c:	280a      	cmp	r0, #10
    252e:	b570      	push	{r4, r5, r6, lr}
    2530:	4604      	mov	r4, r0
    2532:	b082      	sub	sp, #8
    2534:	460d      	mov	r5, r1
    2536:	d818      	bhi.n	256a <uart_puts+0x3e>
    2538:	4b19      	ldr	r3, [pc, #100]	; (25a0 <uart_puts+0x74>)
    253a:	f853 6020 	ldr.w	r6, [r3, r0, lsl #2]
    253e:	b10e      	cbz	r6, 2544 <uart_puts+0x18>
    2540:	780b      	ldrb	r3, [r1, #0]
    2542:	b9cb      	cbnz	r3, 2578 <uart_puts+0x4c>
    2544:	f005 fd82 	bl	804c <dlog_get_output_level>
    2548:	2801      	cmp	r0, #1
    254a:	d90c      	bls.n	2566 <uart_puts+0x3a>
    254c:	4628      	mov	r0, r5
    254e:	f006 fdb7 	bl	90c0 <strlen>
    2552:	f44f 71c6 	mov.w	r1, #396	; 0x18c
    2556:	4633      	mov	r3, r6
    2558:	4a12      	ldr	r2, [pc, #72]	; (25a4 <uart_puts+0x78>)
    255a:	6809      	ldr	r1, [r1, #0]
    255c:	9001      	str	r0, [sp, #4]
    255e:	9400      	str	r4, [sp, #0]
    2560:	4811      	ldr	r0, [pc, #68]	; (25a8 <uart_puts+0x7c>)
    2562:	f006 fd3b 	bl	8fdc <printf>
    2566:	b002      	add	sp, #8
    2568:	bd70      	pop	{r4, r5, r6, pc}
    256a:	f005 fd6f 	bl	804c <dlog_get_output_level>
    256e:	2801      	cmp	r0, #1
    2570:	f04f 0600 	mov.w	r6, #0
    2574:	d8ea      	bhi.n	254c <uart_puts+0x20>
    2576:	e7f6      	b.n	2566 <uart_puts+0x3a>
    2578:	eb04 0444 	add.w	r4, r4, r4, lsl #1
    257c:	4608      	mov	r0, r1
    257e:	f006 fd9f 	bl	90c0 <strlen>
    2582:	4a0a      	ldr	r2, [pc, #40]	; (25ac <uart_puts+0x80>)
    2584:	00a4      	lsls	r4, r4, #2
    2586:	2100      	movs	r1, #0
    2588:	b280      	uxth	r0, r0
    258a:	1913      	adds	r3, r2, r4
    258c:	5310      	strh	r0, [r2, r4]
    258e:	8059      	strh	r1, [r3, #2]
    2590:	605d      	str	r5, [r3, #4]
    2592:	6873      	ldr	r3, [r6, #4]
    2594:	f043 0302 	orr.w	r3, r3, #2
    2598:	6073      	str	r3, [r6, #4]
    259a:	b002      	add	sp, #8
    259c:	bd70      	pop	{r4, r5, r6, pc}
    259e:	bf00      	nop
    25a0:	0000bc28 	andeq	fp, r0, r8, lsr #24
    25a4:	0000bc70 	andeq	fp, r0, r0, ror ip
    25a8:	0000bcbc 			; <UNDEFINED> instruction: 0x0000bcbc
    25ac:	200009f4 	strdcs	r0, [r0], -r4

000025b0 <uart_putdata>:
    25b0:	280a      	cmp	r0, #10
    25b2:	e92d 47f0 	stmdb	sp!, {r4, r5, r6, r7, r8, r9, sl, lr}
    25b6:	4604      	mov	r4, r0
    25b8:	d90d      	bls.n	25d6 <uart_putdata+0x26>
    25ba:	f005 fd47 	bl	804c <dlog_get_output_level>
    25be:	2801      	cmp	r0, #1
    25c0:	d92d      	bls.n	261e <uart_putdata+0x6e>
    25c2:	f44f 71c6 	mov.w	r1, #396	; 0x18c
    25c6:	4623      	mov	r3, r4
    25c8:	4a33      	ldr	r2, [pc, #204]	; (2698 <uart_putdata+0xe8>)
    25ca:	6809      	ldr	r1, [r1, #0]
    25cc:	4833      	ldr	r0, [pc, #204]	; (269c <uart_putdata+0xec>)
    25ce:	e8bd 47f0 	ldmia.w	sp!, {r4, r5, r6, r7, r8, r9, sl, lr}
    25d2:	f006 bd03 	b.w	8fdc <printf>
    25d6:	f8df 80d4 	ldr.w	r8, [pc, #212]	; 26ac <uart_putdata+0xfc>
    25da:	f858 7020 	ldr.w	r7, [r8, r0, lsl #2]
    25de:	2f00      	cmp	r7, #0
    25e0:	d0eb      	beq.n	25ba <uart_putdata+0xa>
    25e2:	fab2 f682 	clz	r6, r2
    25e6:	4615      	mov	r5, r2
    25e8:	0976      	lsrs	r6, r6, #5
    25ea:	2e00      	cmp	r6, #0
    25ec:	d1e5      	bne.n	25ba <uart_putdata+0xa>
    25ee:	280a      	cmp	r0, #10
    25f0:	d017      	beq.n	2622 <uart_putdata+0x72>
    25f2:	eb00 0440 	add.w	r4, r0, r0, lsl #1
    25f6:	4a2a      	ldr	r2, [pc, #168]	; (26a0 <uart_putdata+0xf0>)
    25f8:	462b      	mov	r3, r5
    25fa:	00a4      	lsls	r4, r4, #2
    25fc:	eb02 0e04 	add.w	lr, r2, r4
    2600:	f104 0008 	add.w	r0, r4, #8
    2604:	5315      	strh	r5, [r2, r4]
    2606:	4402      	add	r2, r0
    2608:	f8ae 6002 	strh.w	r6, [lr, #2]
    260c:	f10e 0004 	add.w	r0, lr, #4
    2610:	f005 fd36 	bl	8080 <COMMON_getNewBuffer>
    2614:	bb90      	cbnz	r0, 267c <uart_putdata+0xcc>
    2616:	687b      	ldr	r3, [r7, #4]
    2618:	f043 0302 	orr.w	r3, r3, #2
    261c:	607b      	str	r3, [r7, #4]
    261e:	e8bd 87f0 	ldmia.w	sp!, {r4, r5, r6, r7, r8, r9, sl, pc}
    2622:	4c20      	ldr	r4, [pc, #128]	; (26a4 <uart_putdata+0xf4>)
    2624:	88a3      	ldrh	r3, [r4, #4]
    2626:	4413      	add	r3, r2
    2628:	f5b3 7f7e 	cmp.w	r3, #1016	; 0x3f8
    262c:	daf7      	bge.n	261e <uart_putdata+0x6e>
    262e:	6823      	ldr	r3, [r4, #0]
    2630:	f504 6080 	add.w	r0, r4, #1024	; 0x400
    2634:	88a6      	ldrh	r6, [r4, #4]
    2636:	4433      	add	r3, r6
    2638:	4413      	add	r3, r2
    263a:	4283      	cmp	r3, r0
    263c:	d208      	bcs.n	2650 <uart_putdata+0xa0>
    263e:	6823      	ldr	r3, [r4, #0]
    2640:	88a0      	ldrh	r0, [r4, #4]
    2642:	4418      	add	r0, r3
    2644:	f006 fce2 	bl	900c <memcpy>
    2648:	88a3      	ldrh	r3, [r4, #4]
    264a:	441d      	add	r5, r3
    264c:	80a5      	strh	r5, [r4, #4]
    264e:	e7e2      	b.n	2616 <uart_putdata+0x66>
    2650:	6826      	ldr	r6, [r4, #0]
    2652:	4689      	mov	r9, r1
    2654:	88a3      	ldrh	r3, [r4, #4]
    2656:	6822      	ldr	r2, [r4, #0]
    2658:	1ae3      	subs	r3, r4, r3
    265a:	88a0      	ldrh	r0, [r4, #4]
    265c:	f503 6380 	add.w	r3, r3, #1024	; 0x400
    2660:	4410      	add	r0, r2
    2662:	1b9e      	subs	r6, r3, r6
    2664:	b2b6      	uxth	r6, r6
    2666:	4632      	mov	r2, r6
    2668:	f006 fcd0 	bl	900c <memcpy>
    266c:	eb09 0106 	add.w	r1, r9, r6
    2670:	1baa      	subs	r2, r5, r6
    2672:	f104 0008 	add.w	r0, r4, #8
    2676:	f006 fcc9 	bl	900c <memcpy>
    267a:	e7e5      	b.n	2648 <uart_putdata+0x98>
    267c:	f005 fce6 	bl	804c <dlog_get_output_level>
    2680:	2801      	cmp	r0, #1
    2682:	d9c8      	bls.n	2616 <uart_putdata+0x66>
    2684:	f44f 73c6 	mov.w	r3, #396	; 0x18c
    2688:	f108 0254 	add.w	r2, r8, #84	; 0x54
    268c:	4806      	ldr	r0, [pc, #24]	; (26a8 <uart_putdata+0xf8>)
    268e:	6819      	ldr	r1, [r3, #0]
    2690:	f006 fca4 	bl	8fdc <printf>
    2694:	e7bf      	b.n	2616 <uart_putdata+0x66>
    2696:	bf00      	nop
    2698:	0000bc7c 	andeq	fp, r0, ip, ror ip
    269c:	0000bd00 	andeq	fp, r0, r0, lsl #26
    26a0:	200009f4 	strdcs	r0, [r0], -r4
    26a4:	20004bdc 	ldrdcs	r4, [r0], -ip
    26a8:	0000bd48 	andeq	fp, r0, r8, asr #26
    26ac:	0000bc28 	andeq	fp, r0, r8, lsr #24

000026b0 <UART_IntrSrvc>:
    26b0:	283c      	cmp	r0, #60	; 0x3c
    26b2:	b570      	push	{r4, r5, r6, lr}
    26b4:	b086      	sub	sp, #24
    26b6:	d007      	beq.n	26c8 <UART_IntrSrvc+0x18>
    26b8:	283e      	cmp	r0, #62	; 0x3e
    26ba:	d039      	beq.n	2730 <UART_IntrSrvc+0x80>
    26bc:	b2c6      	uxtb	r6, r0
    26be:	2e0a      	cmp	r6, #10
    26c0:	d939      	bls.n	2736 <UART_IntrSrvc+0x86>
    26c2:	2300      	movs	r3, #0
    26c4:	689b      	ldr	r3, [r3, #8]
    26c6:	deff      	udf	#255	; 0xff
    26c8:	f04f 4120 	mov.w	r1, #2684354560	; 0xa0000000
    26cc:	2609      	movs	r6, #9
    26ce:	688c      	ldr	r4, [r1, #8]
    26d0:	f004 040f 	and.w	r4, r4, #15
    26d4:	2c04      	cmp	r4, #4
    26d6:	d005      	beq.n	26e4 <UART_IntrSrvc+0x34>
    26d8:	2c0c      	cmp	r4, #12
    26da:	d01d      	beq.n	2718 <UART_IntrSrvc+0x68>
    26dc:	2c02      	cmp	r4, #2
    26de:	d016      	beq.n	270e <UART_IntrSrvc+0x5e>
    26e0:	b006      	add	sp, #24
    26e2:	bd70      	pop	{r4, r5, r6, pc}
    26e4:	f10d 0303 	add.w	r3, sp, #3
    26e8:	f10d 0511 	add.w	r5, sp, #17
    26ec:	680a      	ldr	r2, [r1, #0]
    26ee:	f803 2f01 	strb.w	r2, [r3, #1]!
    26f2:	429d      	cmp	r5, r3
    26f4:	d1fa      	bne.n	26ec <UART_IntrSrvc+0x3c>
    26f6:	4b12      	ldr	r3, [pc, #72]	; (2740 <UART_IntrSrvc+0x90>)
    26f8:	eb03 0386 	add.w	r3, r3, r6, lsl #2
    26fc:	f8d3 3088 	ldr.w	r3, [r3, #136]	; 0x88
    2700:	2b00      	cmp	r3, #0
    2702:	d0ed      	beq.n	26e0 <UART_IntrSrvc+0x30>
    2704:	210e      	movs	r1, #14
    2706:	a801      	add	r0, sp, #4
    2708:	4798      	blx	r3
    270a:	2c02      	cmp	r4, #2
    270c:	d1e8      	bne.n	26e0 <UART_IntrSrvc+0x30>
    270e:	4630      	mov	r0, r6
    2710:	f7ff fe0e 	bl	2330 <uart_putFifo>
    2714:	b006      	add	sp, #24
    2716:	bd70      	pop	{r4, r5, r6, pc}
    2718:	4b09      	ldr	r3, [pc, #36]	; (2740 <UART_IntrSrvc+0x90>)
    271a:	680a      	ldr	r2, [r1, #0]
    271c:	eb03 0386 	add.w	r3, r3, r6, lsl #2
    2720:	f88d 2004 	strb.w	r2, [sp, #4]
    2724:	f8d3 3088 	ldr.w	r3, [r3, #136]	; 0x88
    2728:	2b00      	cmp	r3, #0
    272a:	d0d9      	beq.n	26e0 <UART_IntrSrvc+0x30>
    272c:	2101      	movs	r1, #1
    272e:	e7ea      	b.n	2706 <UART_IntrSrvc+0x56>
    2730:	4904      	ldr	r1, [pc, #16]	; (2744 <UART_IntrSrvc+0x94>)
    2732:	260a      	movs	r6, #10
    2734:	e7cb      	b.n	26ce <UART_IntrSrvc+0x1e>
    2736:	4b04      	ldr	r3, [pc, #16]	; (2748 <UART_IntrSrvc+0x98>)
    2738:	f853 1026 	ldr.w	r1, [r3, r6, lsl #2]
    273c:	e7c7      	b.n	26ce <UART_IntrSrvc+0x1e>
    273e:	bf00      	nop
    2740:	200009f4 	strdcs	r0, [r0], -r4
    2744:	a0060000 	andge	r0, r6, r0
    2748:	0000bc28 	andeq	fp, r0, r8, lsr #24

0000274c <UART_RegisterUserRxHandler>:
    274c:	280a      	cmp	r0, #10
    274e:	d807      	bhi.n	2760 <UART_RegisterUserRxHandler+0x14>
    2750:	4b05      	ldr	r3, [pc, #20]	; (2768 <UART_RegisterUserRxHandler+0x1c>)
    2752:	2200      	movs	r2, #0
    2754:	eb03 0380 	add.w	r3, r3, r0, lsl #2
    2758:	f8c3 1088 	str.w	r1, [r3, #136]	; 0x88
    275c:	4610      	mov	r0, r2
    275e:	4770      	bx	lr
    2760:	f04f 32ff 	mov.w	r2, #4294967295
    2764:	e7fa      	b.n	275c <UART_RegisterUserRxHandler+0x10>
    2766:	bf00      	nop
    2768:	200009f4 	strdcs	r0, [r0], -r4

0000276c <BB_SPI_init>:
    276c:	b5f0      	push	{r4, r5, r6, r7, lr}
    276e:	b087      	sub	sp, #28
    2770:	2600      	movs	r6, #0
    2772:	2504      	movs	r5, #4
    2774:	2203      	movs	r2, #3
    2776:	2301      	movs	r3, #1
    2778:	f240 3747 	movw	r7, #839	; 0x347
    277c:	2409      	movs	r4, #9
    277e:	4669      	mov	r1, sp
    2780:	2007      	movs	r0, #7
    2782:	9204      	str	r2, [sp, #16]
    2784:	9402      	str	r4, [sp, #8]
    2786:	9305      	str	r3, [sp, #20]
    2788:	4c08      	ldr	r4, [pc, #32]	; (27ac <BB_SPI_init+0x40>)
    278a:	9601      	str	r6, [sp, #4]
    278c:	9700      	str	r7, [sp, #0]
    278e:	9503      	str	r5, [sp, #12]
    2790:	f004 fdfa 	bl	7388 <SPI_master_init>
    2794:	2328      	movs	r3, #40	; 0x28
    2796:	4632      	mov	r2, r6
    2798:	4905      	ldr	r1, [pc, #20]	; (27b0 <BB_SPI_init+0x44>)
    279a:	2042      	movs	r0, #66	; 0x42
    279c:	f884 3342 	strb.w	r3, [r4, #834]	; 0x342
    27a0:	f7fe feb2 	bl	1508 <reg_IrqHandle>
    27a4:	60a5      	str	r5, [r4, #8]
    27a6:	b007      	add	sp, #28
    27a8:	bdf0      	pop	{r4, r5, r6, r7, pc}
    27aa:	bf00      	nop
    27ac:	e000e100 	and	lr, r0, r0, lsl #2
    27b0:	00007495 	muleq	r0, r5, r4

000027b4 <BB_SPI_curPageWriteByte>:
    27b4:	b530      	push	{r4, r5, lr}
    27b6:	2400      	movs	r4, #0
    27b8:	b085      	sub	sp, #20
    27ba:	250e      	movs	r5, #14
    27bc:	2203      	movs	r2, #3
    27be:	f88d 000d 	strb.w	r0, [sp, #13]
    27c2:	4623      	mov	r3, r4
    27c4:	f88d 100e 	strb.w	r1, [sp, #14]
    27c8:	2007      	movs	r0, #7
    27ca:	a903      	add	r1, sp, #12
    27cc:	9400      	str	r4, [sp, #0]
    27ce:	f88d 500c 	strb.w	r5, [sp, #12]
    27d2:	f004 fc93 	bl	70fc <SPI_write_read>
    27d6:	f44f 61fa 	mov.w	r1, #2000	; 0x7d0
    27da:	2007      	movs	r0, #7
    27dc:	f004 ff4a 	bl	7674 <SPI_WaitIdle>
    27e0:	b005      	add	sp, #20
    27e2:	bd30      	pop	{r4, r5, pc}

000027e4 <BB_SPI_curPageReadByte>:
    27e4:	b510      	push	{r4, lr}
    27e6:	2201      	movs	r2, #1
    27e8:	b084      	sub	sp, #16
    27ea:	240f      	movs	r4, #15
    27ec:	f88d 000d 	strb.w	r0, [sp, #13]
    27f0:	f10d 030b 	add.w	r3, sp, #11
    27f4:	9200      	str	r2, [sp, #0]
    27f6:	a903      	add	r1, sp, #12
    27f8:	2202      	movs	r2, #2
    27fa:	2007      	movs	r0, #7
    27fc:	f88d 400c 	strb.w	r4, [sp, #12]
    2800:	f004 fc7c 	bl	70fc <SPI_write_read>
    2804:	f44f 61fa 	mov.w	r1, #2000	; 0x7d0
    2808:	2007      	movs	r0, #7
    280a:	f004 ff33 	bl	7674 <SPI_WaitIdle>
    280e:	f89d 000b 	ldrb.w	r0, [sp, #11]
    2812:	b004      	add	sp, #16
    2814:	bd10      	pop	{r4, pc}
    2816:	bf00      	nop

00002818 <BB_SPI_WriteByte>:
    2818:	b570      	push	{r4, r5, r6, lr}
    281a:	4606      	mov	r6, r0
    281c:	2000      	movs	r0, #0
    281e:	460c      	mov	r4, r1
    2820:	4615      	mov	r5, r2
    2822:	f7ff ffdf 	bl	27e4 <BB_SPI_curPageReadByte>
    2826:	f000 013f 	and.w	r1, r0, #63	; 0x3f
    282a:	2000      	movs	r0, #0
    282c:	4331      	orrs	r1, r6
    282e:	f7ff ffc1 	bl	27b4 <BB_SPI_curPageWriteByte>
    2832:	4629      	mov	r1, r5
    2834:	4620      	mov	r0, r4
    2836:	e8bd 4070 	ldmia.w	sp!, {r4, r5, r6, lr}
    283a:	f7ff bfbb 	b.w	27b4 <BB_SPI_curPageWriteByte>
    283e:	bf00      	nop

00002840 <BB_SPI_ReadByte>:
    2840:	b538      	push	{r3, r4, r5, lr}
    2842:	4605      	mov	r5, r0
    2844:	2000      	movs	r0, #0
    2846:	460c      	mov	r4, r1
    2848:	f7ff ffcc 	bl	27e4 <BB_SPI_curPageReadByte>
    284c:	f000 013f 	and.w	r1, r0, #63	; 0x3f
    2850:	2000      	movs	r0, #0
    2852:	4329      	orrs	r1, r5
    2854:	f7ff ffae 	bl	27b4 <BB_SPI_curPageWriteByte>
    2858:	4620      	mov	r0, r4
    285a:	e8bd 4038 	ldmia.w	sp!, {r3, r4, r5, lr}
    285e:	f7ff bfc1 	b.w	27e4 <BB_SPI_curPageReadByte>
    2862:	bf00      	nop

00002864 <BB_SPI_WriteByteMask>:
    2864:	b570      	push	{r4, r5, r6, lr}
    2866:	461d      	mov	r5, r3
    2868:	460e      	mov	r6, r1
    286a:	4614      	mov	r4, r2
    286c:	f7ff ffe8 	bl	2840 <BB_SPI_ReadByte>
    2870:	ea20 0105 	bic.w	r1, r0, r5
    2874:	4630      	mov	r0, r6
    2876:	4321      	orrs	r1, r4
    2878:	e8bd 4070 	ldmia.w	sp!, {r4, r5, r6, lr}
    287c:	b2c9      	uxtb	r1, r1
    287e:	f7ff bf99 	b.w	27b4 <BB_SPI_curPageWriteByte>
    2882:	bf00      	nop

00002884 <BB_SPI_DisableEnable>:
    2884:	b920      	cbnz	r0, 2890 <BB_SPI_DisableEnable+0xc>
    2886:	4b03      	ldr	r3, [pc, #12]	; (2894 <BB_SPI_DisableEnable+0x10>)
    2888:	2204      	movs	r2, #4
    288a:	f8c3 2088 	str.w	r2, [r3, #136]	; 0x88
    288e:	4770      	bx	lr
    2890:	f7ff bf6c 	b.w	276c <BB_SPI_init>
    2894:	e000e100 	and	lr, r0, r0, lsl #2

00002898 <grd_calc_dist_get_avg_value>:
    2898:	b4f0      	push	{r4, r5, r6, r7}
    289a:	4f13      	ldr	r7, [pc, #76]	; (28e8 <grd_calc_dist_get_avg_value+0x50>)
    289c:	2500      	movs	r5, #0
    289e:	4639      	mov	r1, r7
    28a0:	f507 7696 	add.w	r6, r7, #300	; 0x12c
    28a4:	788a      	ldrb	r2, [r1, #2]
    28a6:	784b      	ldrb	r3, [r1, #1]
    28a8:	0212      	lsls	r2, r2, #8
    28aa:	f811 4f03 	ldrb.w	r4, [r1, #3]!
    28ae:	ea42 4303 	orr.w	r3, r2, r3, lsl #16
    28b2:	428e      	cmp	r6, r1
    28b4:	ea43 0304 	orr.w	r3, r3, r4
    28b8:	441d      	add	r5, r3
    28ba:	d1f3      	bne.n	28a4 <grd_calc_dist_get_avg_value+0xc>
    28bc:	4b0b      	ldr	r3, [pc, #44]	; (28ec <grd_calc_dist_get_avg_value+0x54>)
    28be:	f8d7 2134 	ldr.w	r2, [r7, #308]	; 0x134
    28c2:	fba3 1305 	umull	r1, r3, r3, r5
    28c6:	095b      	lsrs	r3, r3, #5
    28c8:	4293      	cmp	r3, r2
    28ca:	d804      	bhi.n	28d6 <grd_calc_dist_get_avg_value+0x3e>
    28cc:	2200      	movs	r2, #0
    28ce:	bcf0      	pop	{r4, r5, r6, r7}
    28d0:	6002      	str	r2, [r0, #0]
    28d2:	4618      	mov	r0, r3
    28d4:	4770      	bx	lr
    28d6:	1a9a      	subs	r2, r3, r2
    28d8:	eb02 0242 	add.w	r2, r2, r2, lsl #1
    28dc:	0852      	lsrs	r2, r2, #1
    28de:	bcf0      	pop	{r4, r5, r6, r7}
    28e0:	6002      	str	r2, [r0, #0]
    28e2:	4618      	mov	r0, r3
    28e4:	4770      	bx	lr
    28e6:	bf00      	nop
    28e8:	20000aa8 	andcs	r0, r0, r8, lsr #21
    28ec:	51eb851f 	mvnpl	r8, pc, lsl r5

000028f0 <grd_lock_status>:
    28f0:	4b04      	ldr	r3, [pc, #16]	; (2904 <grd_lock_status+0x14>)
    28f2:	f893 0024 	ldrb.w	r0, [r3, #36]	; 0x24
    28f6:	f1a0 0003 	sub.w	r0, r0, #3
    28fa:	fab0 f080 	clz	r0, r0
    28fe:	0940      	lsrs	r0, r0, #5
    2900:	4770      	bx	lr
    2902:	bf00      	nop
    2904:	200051ac 	andcs	r5, r0, ip, lsr #3

00002908 <Grd_Timer2_3_Init>:
    2908:	b508      	push	{r3, lr}
    290a:	4b07      	ldr	r3, [pc, #28]	; (2928 <Grd_Timer2_3_Init+0x20>)
    290c:	4907      	ldr	r1, [pc, #28]	; (292c <Grd_Timer2_3_Init+0x24>)
    290e:	6818      	ldr	r0, [r3, #0]
    2910:	f7fe fbc2 	bl	1098 <TIM_RegisterTimer>
    2914:	2200      	movs	r2, #0
    2916:	4906      	ldr	r1, [pc, #24]	; (2930 <Grd_Timer2_3_Init+0x28>)
    2918:	201c      	movs	r0, #28
    291a:	f7fe fdf5 	bl	1508 <reg_IrqHandle>
    291e:	4b05      	ldr	r3, [pc, #20]	; (2934 <Grd_Timer2_3_Init+0x2c>)
    2920:	2230      	movs	r2, #48	; 0x30
    2922:	f883 231c 	strb.w	r2, [r3, #796]	; 0x31c
    2926:	bd08      	pop	{r3, pc}
    2928:	0000bd58 	andeq	fp, r0, r8, asr sp
    292c:	00030d40 	andeq	r0, r3, r0, asr #26
    2930:	00004c25 	andeq	r4, r0, r5, lsr #24
    2934:	e000e100 	and	lr, r0, r0, lsl #2

00002938 <wimax_vsoc_tx_isr>:
    2938:	b570      	push	{r4, r5, r6, lr}
    293a:	4b5c      	ldr	r3, [pc, #368]	; (2aac <wimax_vsoc_tx_isr+0x174>)
    293c:	f44f 7200 	mov.w	r2, #512	; 0x200
    2940:	4c5b      	ldr	r4, [pc, #364]	; (2ab0 <wimax_vsoc_tx_isr+0x178>)
    2942:	b082      	sub	sp, #8
    2944:	f8c3 2088 	str.w	r2, [r3, #136]	; 0x88
    2948:	f894 303f 	ldrb.w	r3, [r4, #63]	; 0x3f
    294c:	061b      	lsls	r3, r3, #24
    294e:	d435      	bmi.n	29bc <wimax_vsoc_tx_isr+0x84>
    2950:	f04f 4380 	mov.w	r3, #1073741824	; 0x40000000
    2954:	4d55      	ldr	r5, [pc, #340]	; (2aac <wimax_vsoc_tx_isr+0x174>)
    2956:	4e57      	ldr	r6, [pc, #348]	; (2ab4 <wimax_vsoc_tx_isr+0x17c>)
    2958:	602b      	str	r3, [r5, #0]
    295a:	f8d6 0140 	ldr.w	r0, [r6, #320]	; 0x140
    295e:	f7fe fb73 	bl	1048 <TIM_StartTimer>
    2962:	f8d6 0144 	ldr.w	r0, [r6, #324]	; 0x144
    2966:	f7fe fb6f 	bl	1048 <TIM_StartTimer>
    296a:	f04f 4200 	mov.w	r2, #2147483648	; 0x80000000
    296e:	4b52      	ldr	r3, [pc, #328]	; (2ab8 <wimax_vsoc_tx_isr+0x180>)
    2970:	602a      	str	r2, [r5, #0]
    2972:	781b      	ldrb	r3, [r3, #0]
    2974:	2b01      	cmp	r3, #1
    2976:	d046      	beq.n	2a06 <wimax_vsoc_tx_isr+0xce>
    2978:	8e23      	ldrh	r3, [r4, #48]	; 0x30
    297a:	4d4d      	ldr	r5, [pc, #308]	; (2ab0 <wimax_vsoc_tx_isr+0x178>)
    297c:	3301      	adds	r3, #1
    297e:	b29b      	uxth	r3, r3
    2980:	8623      	strh	r3, [r4, #48]	; 0x30
    2982:	f7fe fa0d 	bl	da0 <SysTicks_GetTickCount>
    2986:	f8c4 00cc 	str.w	r0, [r4, #204]	; 0xcc
    298a:	f894 30b6 	ldrb.w	r3, [r4, #182]	; 0xb6
    298e:	2b02      	cmp	r3, #2
    2990:	d001      	beq.n	2996 <wimax_vsoc_tx_isr+0x5e>
    2992:	b002      	add	sp, #8
    2994:	bd70      	pop	{r4, r5, r6, pc}
    2996:	f895 3024 	ldrb.w	r3, [r5, #36]	; 0x24
    299a:	f003 06ff 	and.w	r6, r3, #255	; 0xff
    299e:	2b00      	cmp	r3, #0
    29a0:	d150      	bne.n	2a44 <wimax_vsoc_tx_isr+0x10c>
    29a2:	f895 30d0 	ldrb.w	r3, [r5, #208]	; 0xd0
    29a6:	2b00      	cmp	r3, #0
    29a8:	d0f3      	beq.n	2992 <wimax_vsoc_tx_isr+0x5a>
    29aa:	f003 f987 	bl	5cbc <BB_open_lna>
    29ae:	f885 60d0 	strb.w	r6, [r5, #208]	; 0xd0
    29b2:	b002      	add	sp, #8
    29b4:	e8bd 4070 	ldmia.w	sp!, {r4, r5, r6, lr}
    29b8:	f003 ba80 	b.w	5ebc <BB_Lna_reset>
    29bc:	f894 303f 	ldrb.w	r3, [r4, #63]	; 0x3f
    29c0:	f003 0301 	and.w	r3, r3, #1
    29c4:	f884 303e 	strb.w	r3, [r4, #62]	; 0x3e
    29c8:	f894 303e 	ldrb.w	r3, [r4, #62]	; 0x3e
    29cc:	b133      	cbz	r3, 29dc <wimax_vsoc_tx_isr+0xa4>
    29ce:	4b3b      	ldr	r3, [pc, #236]	; (2abc <wimax_vsoc_tx_isr+0x184>)
    29d0:	2100      	movs	r1, #0
    29d2:	22ff      	movs	r2, #255	; 0xff
    29d4:	f883 116e 	strb.w	r1, [r3, #366]	; 0x16e
    29d8:	f883 216f 	strb.w	r2, [r3, #367]	; 0x16f
    29dc:	f894 303e 	ldrb.w	r3, [r4, #62]	; 0x3e
    29e0:	2b01      	cmp	r3, #1
    29e2:	bf0c      	ite	eq
    29e4:	2000      	moveq	r0, #0
    29e6:	2001      	movne	r0, #1
    29e8:	f7ff ff4c 	bl	2884 <BB_SPI_DisableEnable>
    29ec:	f894 503e 	ldrb.w	r5, [r4, #62]	; 0x3e
    29f0:	2300      	movs	r3, #0
    29f2:	f894 103e 	ldrb.w	r1, [r4, #62]	; 0x3e
    29f6:	4831      	ldr	r0, [pc, #196]	; (2abc <wimax_vsoc_tx_isr+0x184>)
    29f8:	4a31      	ldr	r2, [pc, #196]	; (2ac0 <wimax_vsoc_tx_isr+0x188>)
    29fa:	f880 5170 	strb.w	r5, [r0, #368]	; 0x170
    29fe:	7491      	strb	r1, [r2, #18]
    2a00:	f884 303f 	strb.w	r3, [r4, #63]	; 0x3f
    2a04:	e7a4      	b.n	2950 <wimax_vsoc_tx_isr+0x18>
    2a06:	4d2f      	ldr	r5, [pc, #188]	; (2ac4 <wimax_vsoc_tx_isr+0x18c>)
    2a08:	6828      	ldr	r0, [r5, #0]
    2a0a:	f7fe faf3 	bl	ff4 <TIM_StopTimer>
    2a0e:	492e      	ldr	r1, [pc, #184]	; (2ac8 <wimax_vsoc_tx_isr+0x190>)
    2a10:	6828      	ldr	r0, [r5, #0]
    2a12:	f7fe fb41 	bl	1098 <TIM_RegisterTimer>
    2a16:	6828      	ldr	r0, [r5, #0]
    2a18:	f7fe fb16 	bl	1048 <TIM_StartTimer>
    2a1c:	f894 30c8 	ldrb.w	r3, [r4, #200]	; 0xc8
    2a20:	4a23      	ldr	r2, [pc, #140]	; (2ab0 <wimax_vsoc_tx_isr+0x178>)
    2a22:	2b00      	cmp	r3, #0
    2a24:	d0a8      	beq.n	2978 <wimax_vsoc_tx_isr+0x40>
    2a26:	f892 303d 	ldrb.w	r3, [r2, #61]	; 0x3d
    2a2a:	2b03      	cmp	r3, #3
    2a2c:	d1a4      	bne.n	2978 <wimax_vsoc_tx_isr+0x40>
    2a2e:	6868      	ldr	r0, [r5, #4]
    2a30:	f7fe fae0 	bl	ff4 <TIM_StopTimer>
    2a34:	4924      	ldr	r1, [pc, #144]	; (2ac8 <wimax_vsoc_tx_isr+0x190>)
    2a36:	6868      	ldr	r0, [r5, #4]
    2a38:	f7fe fb2e 	bl	1098 <TIM_RegisterTimer>
    2a3c:	6868      	ldr	r0, [r5, #4]
    2a3e:	f7fe fb03 	bl	1048 <TIM_StartTimer>
    2a42:	e799      	b.n	2978 <wimax_vsoc_tx_isr+0x40>
    2a44:	4b21      	ldr	r3, [pc, #132]	; (2acc <wimax_vsoc_tx_isr+0x194>)
    2a46:	7898      	ldrb	r0, [r3, #2]
    2a48:	78d9      	ldrb	r1, [r3, #3]
    2a4a:	f003 f98b 	bl	5d64 <BB_Lna_AddAgc>
    2a4e:	7be8      	ldrb	r0, [r5, #15]
    2a50:	f003 fa50 	bl	5ef4 <BB_Lna_isNeedSwitch>
    2a54:	2802      	cmp	r0, #2
    2a56:	d00e      	beq.n	2a76 <wimax_vsoc_tx_isr+0x13e>
    2a58:	2801      	cmp	r0, #1
    2a5a:	d019      	beq.n	2a90 <wimax_vsoc_tx_isr+0x158>
    2a5c:	b958      	cbnz	r0, 2a76 <wimax_vsoc_tx_isr+0x13e>
    2a5e:	f895 30d0 	ldrb.w	r3, [r5, #208]	; 0xd0
    2a62:	2b01      	cmp	r3, #1
    2a64:	d107      	bne.n	2a76 <wimax_vsoc_tx_isr+0x13e>
    2a66:	9001      	str	r0, [sp, #4]
    2a68:	f003 f928 	bl	5cbc <BB_open_lna>
    2a6c:	9801      	ldr	r0, [sp, #4]
    2a6e:	f885 00d0 	strb.w	r0, [r5, #208]	; 0xd0
    2a72:	f003 fa23 	bl	5ebc <BB_Lna_reset>
    2a76:	f894 30d1 	ldrb.w	r3, [r4, #209]	; 0xd1
    2a7a:	4c0d      	ldr	r4, [pc, #52]	; (2ab0 <wimax_vsoc_tx_isr+0x178>)
    2a7c:	2b00      	cmp	r3, #0
    2a7e:	d088      	beq.n	2992 <wimax_vsoc_tx_isr+0x5a>
    2a80:	2500      	movs	r5, #0
    2a82:	f884 50d1 	strb.w	r5, [r4, #209]	; 0xd1
    2a86:	f003 f919 	bl	5cbc <BB_open_lna>
    2a8a:	f884 50d0 	strb.w	r5, [r4, #208]	; 0xd0
    2a8e:	e790      	b.n	29b2 <wimax_vsoc_tx_isr+0x7a>
    2a90:	f895 30d0 	ldrb.w	r3, [r5, #208]	; 0xd0
    2a94:	2b00      	cmp	r3, #0
    2a96:	d1ee      	bne.n	2a76 <wimax_vsoc_tx_isr+0x13e>
    2a98:	9001      	str	r0, [sp, #4]
    2a9a:	f003 f939 	bl	5d10 <BB_bypass_lna>
    2a9e:	9801      	ldr	r0, [sp, #4]
    2aa0:	f885 00d0 	strb.w	r0, [r5, #208]	; 0xd0
    2aa4:	f003 fa0a 	bl	5ebc <BB_Lna_reset>
    2aa8:	e7e5      	b.n	2a76 <wimax_vsoc_tx_isr+0x13e>
    2aaa:	bf00      	nop
    2aac:	e000e100 	and	lr, r0, r0, lsl #2
    2ab0:	200051ac 	andcs	r5, r0, ip, lsr #3
    2ab4:	20000aa8 	andcs	r0, r0, r8, lsr #21
    2ab8:	2000191c 	andcs	r1, r0, ip, lsl r9
    2abc:	21004300 	mrscs	r4, LR_irq
    2ac0:	210044cc 	smlabtcs	r0, ip, r4, r4
    2ac4:	0000bd58 	andeq	fp, r0, r8, asr sp
    2ac8:	00030d40 	andeq	r0, r3, r0, asr #26
    2acc:	20004fdc 	ldrdcs	r4, [r0], -ip

00002ad0 <grd_sub_band_excute>:
    2ad0:	b570      	push	{r4, r5, r6, lr}
    2ad2:	4c1c      	ldr	r4, [pc, #112]	; (2b44 <grd_sub_band_excute+0x74>)
    2ad4:	b082      	sub	sp, #8
    2ad6:	4605      	mov	r5, r0
    2ad8:	f894 3024 	ldrb.w	r3, [r4, #36]	; 0x24
    2adc:	b31b      	cbz	r3, 2b26 <grd_sub_band_excute+0x56>
    2ade:	7be0      	ldrb	r0, [r4, #15]
    2ae0:	462a      	mov	r2, r5
    2ae2:	f894 10ae 	ldrb.w	r1, [r4, #174]	; 0xae
    2ae6:	f008 f825 	bl	ab34 <BB_GetSubBandStartCH>
    2aea:	462a      	mov	r2, r5
    2aec:	f884 00be 	strb.w	r0, [r4, #190]	; 0xbe
    2af0:	7be0      	ldrb	r0, [r4, #15]
    2af2:	f894 10ae 	ldrb.w	r1, [r4, #174]	; 0xae
    2af6:	f008 f837 	bl	ab68 <BB_GetSubBandEndCH>
    2afa:	f884 00bf 	strb.w	r0, [r4, #191]	; 0xbf
    2afe:	f894 30be 	ldrb.w	r3, [r4, #190]	; 0xbe
    2b02:	4e11      	ldr	r6, [pc, #68]	; (2b48 <grd_sub_band_excute+0x78>)
    2b04:	b2db      	uxtb	r3, r3
    2b06:	7be0      	ldrb	r0, [r4, #15]
    2b08:	4619      	mov	r1, r3
    2b0a:	f886 3148 	strb.w	r3, [r6, #328]	; 0x148
    2b0e:	f007 fac1 	bl	a094 <BB_set_Rcfrq>
    2b12:	f896 2148 	ldrb.w	r2, [r6, #328]	; 0x148
    2b16:	233f      	movs	r3, #63	; 0x3f
    2b18:	2161      	movs	r1, #97	; 0x61
    2b1a:	2080      	movs	r0, #128	; 0x80
    2b1c:	b002      	add	sp, #8
    2b1e:	e8bd 4070 	ldmia.w	sp!, {r4, r5, r6, lr}
    2b22:	f008 bd19 	b.w	b558 <__BB_WriteRegMask_veneer>
    2b26:	f005 fa91 	bl	804c <dlog_get_output_level>
    2b2a:	2802      	cmp	r0, #2
    2b2c:	d9d7      	bls.n	2ade <grd_sub_band_excute+0xe>
    2b2e:	7826      	ldrb	r6, [r4, #0]
    2b30:	f44f 71c6 	mov.w	r1, #396	; 0x18c
    2b34:	462b      	mov	r3, r5
    2b36:	4a05      	ldr	r2, [pc, #20]	; (2b4c <grd_sub_band_excute+0x7c>)
    2b38:	6809      	ldr	r1, [r1, #0]
    2b3a:	4805      	ldr	r0, [pc, #20]	; (2b50 <grd_sub_band_excute+0x80>)
    2b3c:	9600      	str	r6, [sp, #0]
    2b3e:	f006 fa4d 	bl	8fdc <printf>
    2b42:	e7cc      	b.n	2ade <grd_sub_band_excute+0xe>
    2b44:	200051ac 	andcs	r5, r0, ip, lsr #3
    2b48:	20000aa8 	andcs	r0, r0, r8, lsr #21
    2b4c:	0000bd60 	andeq	fp, r0, r0, ror #26
    2b50:	0000bf48 	andeq	fp, r0, r8, asr #30

00002b54 <grd_handle_IT_mode_cmd>:
    2b54:	b510      	push	{r4, lr}
    2b56:	4c10      	ldr	r4, [pc, #64]	; (2b98 <grd_handle_IT_mode_cmd+0x44>)
    2b58:	b082      	sub	sp, #8
    2b5a:	7220      	strb	r0, [r4, #8]
    2b5c:	f88d 0007 	strb.w	r0, [sp, #7]
    2b60:	f005 fa74 	bl	804c <dlog_get_output_level>
    2b64:	2803      	cmp	r0, #3
    2b66:	d80d      	bhi.n	2b84 <grd_handle_IT_mode_cmd+0x30>
    2b68:	f89d 3007 	ldrb.w	r3, [sp, #7]
    2b6c:	b943      	cbnz	r3, 2b80 <grd_handle_IT_mode_cmd+0x2c>
    2b6e:	7be0      	ldrb	r0, [r4, #15]
    2b70:	7821      	ldrb	r1, [r4, #0]
    2b72:	f007 f9f3 	bl	9f5c <BB_set_ItFrqByCh>
    2b76:	f10d 0107 	add.w	r1, sp, #7
    2b7a:	2008      	movs	r0, #8
    2b7c:	f002 fdfc 	bl	5778 <BB_DtSendToBuf>
    2b80:	b002      	add	sp, #8
    2b82:	bd10      	pop	{r4, pc}
    2b84:	f44f 71c6 	mov.w	r1, #396	; 0x18c
    2b88:	7a23      	ldrb	r3, [r4, #8]
    2b8a:	4a04      	ldr	r2, [pc, #16]	; (2b9c <grd_handle_IT_mode_cmd+0x48>)
    2b8c:	6809      	ldr	r1, [r1, #0]
    2b8e:	4804      	ldr	r0, [pc, #16]	; (2ba0 <grd_handle_IT_mode_cmd+0x4c>)
    2b90:	f006 fa24 	bl	8fdc <printf>
    2b94:	e7e8      	b.n	2b68 <grd_handle_IT_mode_cmd+0x14>
    2b96:	bf00      	nop
    2b98:	200051ac 	andcs	r5, r0, ip, lsr #3
    2b9c:	0000bd74 	andeq	fp, r0, r4, ror sp
    2ba0:	0000bf64 	andeq	fp, r0, r4, ror #30

00002ba4 <grd_rc_hopfreq>:
    2ba4:	b538      	push	{r3, r4, r5, lr}
    2ba6:	4c34      	ldr	r4, [pc, #208]	; (2c78 <grd_rc_hopfreq+0xd4>)
    2ba8:	f894 30bc 	ldrb.w	r3, [r4, #188]	; 0xbc
    2bac:	2b01      	cmp	r3, #1
    2bae:	d046      	beq.n	2c3e <grd_rc_hopfreq+0x9a>
    2bb0:	4d32      	ldr	r5, [pc, #200]	; (2c7c <grd_rc_hopfreq+0xd8>)
    2bb2:	7be0      	ldrb	r0, [r4, #15]
    2bb4:	f007 faf6 	bl	a1a4 <BB_GetRcFrqNum>
    2bb8:	f895 3148 	ldrb.w	r3, [r5, #328]	; 0x148
    2bbc:	3301      	adds	r3, #1
    2bbe:	b2db      	uxtb	r3, r3
    2bc0:	fbb3 f2f0 	udiv	r2, r3, r0
    2bc4:	fb02 3010 	mls	r0, r2, r0, r3
    2bc8:	f885 0148 	strb.w	r0, [r5, #328]	; 0x148
    2bcc:	f894 3024 	ldrb.w	r3, [r4, #36]	; 0x24
    2bd0:	4a29      	ldr	r2, [pc, #164]	; (2c78 <grd_rc_hopfreq+0xd4>)
    2bd2:	f003 01ff 	and.w	r1, r3, #255	; 0xff
    2bd6:	b9e3      	cbnz	r3, 2c12 <grd_rc_hopfreq+0x6e>
    2bd8:	f8d5 314c 	ldr.w	r3, [r5, #332]	; 0x14c
    2bdc:	4827      	ldr	r0, [pc, #156]	; (2c7c <grd_rc_hopfreq+0xd8>)
    2bde:	3301      	adds	r3, #1
    2be0:	2b6b      	cmp	r3, #107	; 0x6b
    2be2:	d946      	bls.n	2c72 <grd_rc_hopfreq+0xce>
    2be4:	f892 30a8 	ldrb.w	r3, [r2, #168]	; 0xa8
    2be8:	f8c0 114c 	str.w	r1, [r0, #332]	; 0x14c
    2bec:	2b81      	cmp	r3, #129	; 0x81
    2bee:	d002      	beq.n	2bf6 <grd_rc_hopfreq+0x52>
    2bf0:	7bd3      	ldrb	r3, [r2, #15]
    2bf2:	2b02      	cmp	r3, #2
    2bf4:	d110      	bne.n	2c18 <grd_rc_hopfreq+0x74>
    2bf6:	f894 3024 	ldrb.w	r3, [r4, #36]	; 0x24
    2bfa:	4a1f      	ldr	r2, [pc, #124]	; (2c78 <grd_rc_hopfreq+0xd4>)
    2bfc:	b963      	cbnz	r3, 2c18 <grd_rc_hopfreq+0x74>
    2bfe:	f892 30af 	ldrb.w	r3, [r2, #175]	; 0xaf
    2c02:	b94b      	cbnz	r3, 2c18 <grd_rc_hopfreq+0x74>
    2c04:	f892 30ab 	ldrb.w	r3, [r2, #171]	; 0xab
    2c08:	2b03      	cmp	r3, #3
    2c0a:	d105      	bne.n	2c18 <grd_rc_hopfreq+0x74>
    2c0c:	f008 fc7c 	bl	b508 <__grd_RfBandSelectChannelDoSwitch_veneer>
    2c10:	e002      	b.n	2c18 <grd_rc_hopfreq+0x74>
    2c12:	2300      	movs	r3, #0
    2c14:	f8c5 314c 	str.w	r3, [r5, #332]	; 0x14c
    2c18:	f895 2148 	ldrb.w	r2, [r5, #328]	; 0x148
    2c1c:	233f      	movs	r3, #63	; 0x3f
    2c1e:	2161      	movs	r1, #97	; 0x61
    2c20:	2080      	movs	r0, #128	; 0x80
    2c22:	f008 fc99 	bl	b558 <__BB_WriteRegMask_veneer>
    2c26:	f894 1098 	ldrb.w	r1, [r4, #152]	; 0x98
    2c2a:	4a14      	ldr	r2, [pc, #80]	; (2c7c <grd_rc_hopfreq+0xd8>)
    2c2c:	4b12      	ldr	r3, [pc, #72]	; (2c78 <grd_rc_hopfreq+0xd4>)
    2c2e:	b9b1      	cbnz	r1, 2c5e <grd_rc_hopfreq+0xba>
    2c30:	7bd8      	ldrb	r0, [r3, #15]
    2c32:	f892 1148 	ldrb.w	r1, [r2, #328]	; 0x148
    2c36:	e8bd 4038 	ldmia.w	sp!, {r3, r4, r5, lr}
    2c3a:	f007 ba2b 	b.w	a094 <BB_set_Rcfrq>
    2c3e:	4d0f      	ldr	r5, [pc, #60]	; (2c7c <grd_rc_hopfreq+0xd8>)
    2c40:	f894 20bf 	ldrb.w	r2, [r4, #191]	; 0xbf
    2c44:	f895 3148 	ldrb.w	r3, [r5, #328]	; 0x148
    2c48:	3301      	adds	r3, #1
    2c4a:	b2db      	uxtb	r3, r3
    2c4c:	4293      	cmp	r3, r2
    2c4e:	f885 3148 	strb.w	r3, [r5, #328]	; 0x148
    2c52:	d3bb      	bcc.n	2bcc <grd_rc_hopfreq+0x28>
    2c54:	f894 30be 	ldrb.w	r3, [r4, #190]	; 0xbe
    2c58:	f885 3148 	strb.w	r3, [r5, #328]	; 0x148
    2c5c:	e7b6      	b.n	2bcc <grd_rc_hopfreq+0x28>
    2c5e:	f892 2148 	ldrb.w	r2, [r2, #328]	; 0x148
    2c62:	7bd8      	ldrb	r0, [r3, #15]
    2c64:	4413      	add	r3, r2
    2c66:	f893 106e 	ldrb.w	r1, [r3, #110]	; 0x6e
    2c6a:	e8bd 4038 	ldmia.w	sp!, {r3, r4, r5, lr}
    2c6e:	f007 ba11 	b.w	a094 <BB_set_Rcfrq>
    2c72:	f8c0 314c 	str.w	r3, [r0, #332]	; 0x14c
    2c76:	e7cf      	b.n	2c18 <grd_rc_hopfreq+0x74>
    2c78:	200051ac 	andcs	r5, r0, ip, lsr #3
    2c7c:	20000aa8 	andcs	r0, r0, r8, lsr #21

00002c80 <BB_grd_OSDPlot>:
    2c80:	4b58      	ldr	r3, [pc, #352]	; (2de4 <BB_grd_OSDPlot+0x164>)
    2c82:	20ff      	movs	r0, #255	; 0xff
    2c84:	e92d 41f0 	stmdb	sp!, {r4, r5, r6, r7, r8, lr}
    2c88:	4c57      	ldr	r4, [pc, #348]	; (2de8 <BB_grd_OSDPlot+0x168>)
    2c8a:	2633      	movs	r6, #51	; 0x33
    2c8c:	789a      	ldrb	r2, [r3, #2]
    2c8e:	f04f 0800 	mov.w	r8, #0
    2c92:	4d56      	ldr	r5, [pc, #344]	; (2dec <BB_grd_OSDPlot+0x16c>)
    2c94:	78d9      	ldrb	r1, [r3, #3]
    2c96:	f884 2164 	strb.w	r2, [r4, #356]	; 0x164
    2c9a:	f895 2024 	ldrb.w	r2, [r5, #36]	; 0x24
    2c9e:	8066      	strh	r6, [r4, #2]
    2ca0:	f884 2171 	strb.w	r2, [r4, #369]	; 0x171
    2ca4:	f884 1165 	strb.w	r1, [r4, #357]	; 0x165
    2ca8:	f884 016e 	strb.w	r0, [r4, #366]	; 0x16e
    2cac:	f884 816f 	strb.w	r8, [r4, #367]	; 0x16f
    2cb0:	881b      	ldrh	r3, [r3, #0]
    2cb2:	8163      	strh	r3, [r4, #10]
    2cb4:	f002 f8fa 	bl	4eac <get_snr_average>
    2cb8:	21de      	movs	r1, #222	; 0xde
    2cba:	81a0      	strh	r0, [r4, #12]
    2cbc:	2080      	movs	r0, #128	; 0x80
    2cbe:	f008 fceb 	bl	b698 <__BB_ReadReg_veneer>
    2cc2:	4606      	mov	r6, r0
    2cc4:	21df      	movs	r1, #223	; 0xdf
    2cc6:	2080      	movs	r0, #128	; 0x80
    2cc8:	f008 fce6 	bl	b698 <__BB_ReadReg_veneer>
    2ccc:	21d7      	movs	r1, #215	; 0xd7
    2cce:	ea40 2606 	orr.w	r6, r0, r6, lsl #8
    2cd2:	2080      	movs	r0, #128	; 0x80
    2cd4:	81e6      	strh	r6, [r4, #14]
    2cd6:	f008 fcdf 	bl	b698 <__BB_ReadReg_veneer>
    2cda:	21d8      	movs	r1, #216	; 0xd8
    2cdc:	4607      	mov	r7, r0
    2cde:	2080      	movs	r0, #128	; 0x80
    2ce0:	f008 fcda 	bl	b698 <__BB_ReadReg_veneer>
    2ce4:	f895 604d 	ldrb.w	r6, [r5, #77]	; 0x4d
    2ce8:	ea40 2707 	orr.w	r7, r0, r7, lsl #8
    2cec:	21d1      	movs	r1, #209	; 0xd1
    2cee:	b2f6      	uxtb	r6, r6
    2cf0:	2080      	movs	r0, #128	; 0x80
    2cf2:	f8a4 7162 	strh.w	r7, [r4, #354]	; 0x162
    2cf6:	f008 fccf 	bl	b698 <__BB_ReadReg_veneer>
    2cfa:	f026 060f 	bic.w	r6, r6, #15
    2cfe:	f3c0 1203 	ubfx	r2, r0, #4, #4
    2d02:	7d2b      	ldrb	r3, [r5, #20]
    2d04:	21d0      	movs	r1, #208	; 0xd0
    2d06:	2080      	movs	r0, #128	; 0x80
    2d08:	4316      	orrs	r6, r2
    2d0a:	7463      	strb	r3, [r4, #17]
    2d0c:	f884 6168 	strb.w	r6, [r4, #360]	; 0x168
    2d10:	f008 fcc2 	bl	b698 <__BB_ReadReg_veneer>
    2d14:	f000 0303 	and.w	r3, r0, #3
    2d18:	21d0      	movs	r1, #208	; 0xd0
    2d1a:	2080      	movs	r0, #128	; 0x80
    2d1c:	f884 3169 	strb.w	r3, [r4, #361]	; 0x169
    2d20:	f008 fcba 	bl	b698 <__BB_ReadReg_veneer>
    2d24:	f3c0 0382 	ubfx	r3, r0, #2, #3
    2d28:	2104      	movs	r1, #4
    2d2a:	2080      	movs	r0, #128	; 0x80
    2d2c:	f884 316b 	strb.w	r3, [r4, #363]	; 0x16b
    2d30:	f008 fcb2 	bl	b698 <__BB_ReadReg_veneer>
    2d34:	f895 60ae 	ldrb.w	r6, [r5, #174]	; 0xae
    2d38:	f3c0 1780 	ubfx	r7, r0, #6, #1
    2d3c:	f895 303e 	ldrb.w	r3, [r5, #62]	; 0x3e
    2d40:	f000 0001 	and.w	r0, r0, #1
    2d44:	4641      	mov	r1, r8
    2d46:	f884 3170 	strb.w	r3, [r4, #368]	; 0x170
    2d4a:	f44f 72a8 	mov.w	r2, #336	; 0x150
    2d4e:	f884 017f 	strb.w	r0, [r4, #383]	; 0x17f
    2d52:	f884 717e 	strb.w	r7, [r4, #382]	; 0x17e
    2d56:	f884 616a 	strb.w	r6, [r4, #362]	; 0x16a
    2d5a:	4825      	ldr	r0, [pc, #148]	; (2df0 <BB_grd_OSDPlot+0x170>)
    2d5c:	f006 f9e8 	bl	9130 <memset>
    2d60:	2115      	movs	r1, #21
    2d62:	4823      	ldr	r0, [pc, #140]	; (2df0 <BB_grd_OSDPlot+0x170>)
    2d64:	f008 fc60 	bl	b628 <__BB_GetSweepNoise_veneer>
    2d68:	7aeb      	ldrb	r3, [r5, #11]
    2d6a:	b35b      	cbz	r3, 2dc4 <BB_grd_OSDPlot+0x144>
    2d6c:	7b6a      	ldrb	r2, [r5, #13]
    2d6e:	7bab      	ldrb	r3, [r5, #14]
    2d70:	f884 217c 	strb.w	r2, [r4, #380]	; 0x17c
    2d74:	f884 317d 	strb.w	r3, [r4, #381]	; 0x17d
    2d78:	4a1e      	ldr	r2, [pc, #120]	; (2df4 <BB_grd_OSDPlot+0x174>)
    2d7a:	2000      	movs	r0, #0
    2d7c:	4b1a      	ldr	r3, [pc, #104]	; (2de8 <BB_grd_OSDPlot+0x168>)
    2d7e:	21ff      	movs	r1, #255	; 0xff
    2d80:	f892 5151 	ldrb.w	r5, [r2, #337]	; 0x151
    2d84:	f892 4150 	ldrb.w	r4, [r2, #336]	; 0x150
    2d88:	f892 7152 	ldrb.w	r7, [r2, #338]	; 0x152
    2d8c:	f892 6153 	ldrb.w	r6, [r2, #339]	; 0x153
    2d90:	f883 5183 	strb.w	r5, [r3, #387]	; 0x183
    2d94:	f8b2 5154 	ldrh.w	r5, [r2, #340]	; 0x154
    2d98:	f883 4184 	strb.w	r4, [r3, #388]	; 0x184
    2d9c:	f8d2 4134 	ldr.w	r4, [r2, #308]	; 0x134
    2da0:	f8d2 2130 	ldr.w	r2, [r2, #304]	; 0x130
    2da4:	f883 7185 	strb.w	r7, [r3, #389]	; 0x185
    2da8:	f883 6186 	strb.w	r6, [r3, #390]	; 0x186
    2dac:	f8a3 518e 	strh.w	r5, [r3, #398]	; 0x18e
    2db0:	f8a3 418a 	strh.w	r4, [r3, #394]	; 0x18a
    2db4:	f8a3 218c 	strh.w	r2, [r3, #396]	; 0x18c
    2db8:	f883 016e 	strb.w	r0, [r3, #366]	; 0x16e
    2dbc:	f883 116f 	strb.w	r1, [r3, #367]	; 0x16f
    2dc0:	e8bd 81f0 	ldmia.w	sp!, {r4, r5, r6, r7, r8, pc}
    2dc4:	f895 00ae 	ldrb.w	r0, [r5, #174]	; 0xae
    2dc8:	7d29      	ldrb	r1, [r5, #20]
    2dca:	f008 fba5 	bl	b518 <__BB_get_bitrateByMcs_veneer>
    2dce:	f895 30ae 	ldrb.w	r3, [r5, #174]	; 0xae
    2dd2:	7d29      	ldrb	r1, [r5, #20]
    2dd4:	f884 017c 	strb.w	r0, [r4, #380]	; 0x17c
    2dd8:	4618      	mov	r0, r3
    2dda:	f008 fb9d 	bl	b518 <__BB_get_bitrateByMcs_veneer>
    2dde:	f884 017d 	strb.w	r0, [r4, #381]	; 0x17d
    2de2:	e7c9      	b.n	2d78 <BB_grd_OSDPlot+0xf8>
    2de4:	20004fdc 	ldrdcs	r4, [r0], -ip
    2de8:	21004300 	mrscs	r4, LR_irq
    2dec:	200051ac 	andcs	r5, r0, ip, lsr #3
    2df0:	21004312 	tstcs	r0, r2, lsl r3
    2df4:	20000aa8 	andcs	r0, r0, r8, lsr #21

00002df8 <Grd_TIM2_2_IRQHandler>:
    2df8:	b5f0      	push	{r4, r5, r6, r7, lr}
    2dfa:	482c      	ldr	r0, [pc, #176]	; (2eac <Grd_TIM2_2_IRQHandler+0xb4>)
    2dfc:	b083      	sub	sp, #12
    2dfe:	f7fd fe77 	bl	af0 <Reg_Read32>
    2e02:	4d2b      	ldr	r5, [pc, #172]	; (2eb0 <Grd_TIM2_2_IRQHandler+0xb8>)
    2e04:	4b2b      	ldr	r3, [pc, #172]	; (2eb4 <Grd_TIM2_2_IRQHandler+0xbc>)
    2e06:	f04f 6200 	mov.w	r2, #134217728	; 0x8000000
    2e0a:	4c2b      	ldr	r4, [pc, #172]	; (2eb8 <Grd_TIM2_2_IRQHandler+0xc0>)
    2e0c:	f8c3 2080 	str.w	r2, [r3, #128]	; 0x80
    2e10:	6868      	ldr	r0, [r5, #4]
    2e12:	f7fe f8ef 	bl	ff4 <TIM_StopTimer>
    2e16:	f8d4 60cc 	ldr.w	r6, [r4, #204]	; 0xcc
    2e1a:	f7fd ffc1 	bl	da0 <SysTicks_GetTickCount>
    2e1e:	4601      	mov	r1, r0
    2e20:	4630      	mov	r0, r6
    2e22:	f7fe f837 	bl	e94 <SysTicks_GetDiff>
    2e26:	7a23      	ldrb	r3, [r4, #8]
    2e28:	b14b      	cbz	r3, 2e3e <Grd_TIM2_2_IRQHandler+0x46>
    2e2a:	4b22      	ldr	r3, [pc, #136]	; (2eb4 <Grd_TIM2_2_IRQHandler+0xbc>)
    2e2c:	f04f 6200 	mov.w	r2, #134217728	; 0x8000000
    2e30:	6868      	ldr	r0, [r5, #4]
    2e32:	601a      	str	r2, [r3, #0]
    2e34:	b003      	add	sp, #12
    2e36:	e8bd 40f0 	ldmia.w	sp!, {r4, r5, r6, r7, lr}
    2e3a:	f7fe b905 	b.w	1048 <TIM_StartTimer>
    2e3e:	4606      	mov	r6, r0
    2e40:	7be0      	ldrb	r0, [r4, #15]
    2e42:	f003 07ff 	and.w	r7, r3, #255	; 0xff
    2e46:	f007 f9bd 	bl	a1c4 <BB_GetItFrqNum>
    2e4a:	7823      	ldrb	r3, [r4, #0]
    2e4c:	3301      	adds	r3, #1
    2e4e:	b2db      	uxtb	r3, r3
    2e50:	4298      	cmp	r0, r3
    2e52:	7023      	strb	r3, [r4, #0]
    2e54:	d800      	bhi.n	2e58 <Grd_TIM2_2_IRQHandler+0x60>
    2e56:	7027      	strb	r7, [r4, #0]
    2e58:	2e1e      	cmp	r6, #30
    2e5a:	d814      	bhi.n	2e86 <Grd_TIM2_2_IRQHandler+0x8e>
    2e5c:	2300      	movs	r3, #0
    2e5e:	7821      	ldrb	r1, [r4, #0]
    2e60:	201f      	movs	r0, #31
    2e62:	4c15      	ldr	r4, [pc, #84]	; (2eb8 <Grd_TIM2_2_IRQHandler+0xc0>)
    2e64:	9300      	str	r3, [sp, #0]
    2e66:	461a      	mov	r2, r3
    2e68:	f008 fbc6 	bl	b5f8 <__BB_add_cmds_veneer>
    2e6c:	f005 f8ee 	bl	804c <dlog_get_output_level>
    2e70:	2803      	cmp	r0, #3
    2e72:	d9da      	bls.n	2e2a <Grd_TIM2_2_IRQHandler+0x32>
    2e74:	f44f 71c6 	mov.w	r1, #396	; 0x18c
    2e78:	7823      	ldrb	r3, [r4, #0]
    2e7a:	4a10      	ldr	r2, [pc, #64]	; (2ebc <Grd_TIM2_2_IRQHandler+0xc4>)
    2e7c:	6809      	ldr	r1, [r1, #0]
    2e7e:	4810      	ldr	r0, [pc, #64]	; (2ec0 <Grd_TIM2_2_IRQHandler+0xc8>)
    2e80:	f006 f8ac 	bl	8fdc <printf>
    2e84:	e7d1      	b.n	2e2a <Grd_TIM2_2_IRQHandler+0x32>
    2e86:	7be0      	ldrb	r0, [r4, #15]
    2e88:	7821      	ldrb	r1, [r4, #0]
    2e8a:	f007 f867 	bl	9f5c <BB_set_ItFrqByCh>
    2e8e:	4c0a      	ldr	r4, [pc, #40]	; (2eb8 <Grd_TIM2_2_IRQHandler+0xc0>)
    2e90:	f005 f8dc 	bl	804c <dlog_get_output_level>
    2e94:	2803      	cmp	r0, #3
    2e96:	d9c8      	bls.n	2e2a <Grd_TIM2_2_IRQHandler+0x32>
    2e98:	f44f 71c6 	mov.w	r1, #396	; 0x18c
    2e9c:	7823      	ldrb	r3, [r4, #0]
    2e9e:	4a07      	ldr	r2, [pc, #28]	; (2ebc <Grd_TIM2_2_IRQHandler+0xc4>)
    2ea0:	6809      	ldr	r1, [r1, #0]
    2ea2:	4808      	ldr	r0, [pc, #32]	; (2ec4 <Grd_TIM2_2_IRQHandler+0xcc>)
    2ea4:	f006 f89a 	bl	8fdc <printf>
    2ea8:	e7bf      	b.n	2e2a <Grd_TIM2_2_IRQHandler+0x32>
    2eaa:	bf00      	nop
    2eac:	40080034 	andmi	r0, r8, r4, lsr r0
    2eb0:	0000bd58 	andeq	fp, r0, r8, asr sp
    2eb4:	e000e100 	and	lr, r0, r0, lsl #2
    2eb8:	200051ac 	andcs	r5, r0, ip, lsr #3
    2ebc:	0000bd8c 	andeq	fp, r0, ip, lsl #27
    2ec0:	0000bf7c 	andeq	fp, r0, ip, ror pc
    2ec4:	0000bf90 	muleq	r0, r0, pc	; <UNPREDICTABLE>

00002ec8 <grd_calc_dist_judge_raw_data.constprop.5>:
    2ec8:	1e43      	subs	r3, r0, #1
    2eca:	2b01      	cmp	r3, #1
    2ecc:	d901      	bls.n	2ed2 <grd_calc_dist_judge_raw_data.constprop.5+0xa>
    2ece:	2001      	movs	r0, #1
    2ed0:	4770      	bx	lr
    2ed2:	4a18      	ldr	r2, [pc, #96]	; (2f34 <grd_calc_dist_judge_raw_data.constprop.5+0x6c>)
    2ed4:	f8d2 3138 	ldr.w	r3, [r2, #312]	; 0x138
    2ed8:	2b00      	cmp	r3, #0
    2eda:	d0f8      	beq.n	2ece <grd_calc_dist_judge_raw_data.constprop.5+0x6>
    2edc:	3b01      	subs	r3, #1
    2ede:	eb03 0343 	add.w	r3, r3, r3, lsl #1
    2ee2:	4413      	add	r3, r2
    2ee4:	b430      	push	{r4, r5}
    2ee6:	1c5d      	adds	r5, r3, #1
    2ee8:	786c      	ldrb	r4, [r5, #1]
    2eea:	785b      	ldrb	r3, [r3, #1]
    2eec:	0224      	lsls	r4, r4, #8
    2eee:	78ad      	ldrb	r5, [r5, #2]
    2ef0:	ea44 4303 	orr.w	r3, r4, r3, lsl #16
    2ef4:	432b      	orrs	r3, r5
    2ef6:	1ac9      	subs	r1, r1, r3
    2ef8:	2900      	cmp	r1, #0
    2efa:	bfb8      	it	lt
    2efc:	4249      	neglt	r1, r1
    2efe:	eb01 0141 	add.w	r1, r1, r1, lsl #1
    2f02:	2927      	cmp	r1, #39	; 0x27
    2f04:	d90d      	bls.n	2f22 <grd_calc_dist_judge_raw_data.constprop.5+0x5a>
    2f06:	f8d2 3158 	ldr.w	r3, [r2, #344]	; 0x158
    2f0a:	3301      	adds	r3, #1
    2f0c:	2b1e      	cmp	r3, #30
    2f0e:	d90d      	bls.n	2f2c <grd_calc_dist_judge_raw_data.constprop.5+0x64>
    2f10:	2300      	movs	r3, #0
    2f12:	7010      	strb	r0, [r2, #0]
    2f14:	4618      	mov	r0, r3
    2f16:	f8c2 3158 	str.w	r3, [r2, #344]	; 0x158
    2f1a:	f8c2 3138 	str.w	r3, [r2, #312]	; 0x138
    2f1e:	bc30      	pop	{r4, r5}
    2f20:	4770      	bx	lr
    2f22:	2300      	movs	r3, #0
    2f24:	2001      	movs	r0, #1
    2f26:	f8c2 3158 	str.w	r3, [r2, #344]	; 0x158
    2f2a:	e7f8      	b.n	2f1e <grd_calc_dist_judge_raw_data.constprop.5+0x56>
    2f2c:	f8c2 3158 	str.w	r3, [r2, #344]	; 0x158
    2f30:	2000      	movs	r0, #0
    2f32:	e7f4      	b.n	2f1e <grd_calc_dist_judge_raw_data.constprop.5+0x56>
    2f34:	20000aa8 	andcs	r0, r0, r8, lsr #21

00002f38 <BB_GRD_start>:
    2f38:	e92d 4ff8 	stmdb	sp!, {r3, r4, r5, r6, r7, r8, r9, sl, fp, lr}
    2f3c:	4c53      	ldr	r4, [pc, #332]	; (308c <BB_GRD_start+0x154>)
    2f3e:	2701      	movs	r7, #1
    2f40:	2600      	movs	r6, #0
    2f42:	4d53      	ldr	r5, [pc, #332]	; (3090 <BB_GRD_start+0x158>)
    2f44:	f884 703d 	strb.w	r7, [r4, #61]	; 0x3d
    2f48:	4638      	mov	r0, r7
    2f4a:	f894 304c 	ldrb.w	r3, [r4, #76]	; 0x4c
    2f4e:	f04f 0b02 	mov.w	fp, #2
    2f52:	f8df 8154 	ldr.w	r8, [pc, #340]	; 30a8 <BB_GRD_start+0x170>
    2f56:	f04f 0930 	mov.w	r9, #48	; 0x30
    2f5a:	b2db      	uxtb	r3, r3
    2f5c:	46a2      	mov	sl, r4
    2f5e:	7523      	strb	r3, [r4, #20]
    2f60:	f884 602d 	strb.w	r6, [r4, #45]	; 0x2d
    2f64:	f884 70af 	strb.w	r7, [r4, #175]	; 0xaf
    2f68:	f002 fdc4 	bl	5af4 <BB_SetTrxMode>
    2f6c:	2380      	movs	r3, #128	; 0x80
    2f6e:	2161      	movs	r1, #97	; 0x61
    2f70:	f884 60a8 	strb.w	r6, [r4, #168]	; 0xa8
    2f74:	461a      	mov	r2, r3
    2f76:	4618      	mov	r0, r3
    2f78:	f008 faee 	bl	b558 <__BB_WriteRegMask_veneer>
    2f7c:	f894 20a8 	ldrb.w	r2, [r4, #168]	; 0xa8
    2f80:	2340      	movs	r3, #64	; 0x40
    2f82:	2161      	movs	r1, #97	; 0x61
    2f84:	0192      	lsls	r2, r2, #6
    2f86:	2080      	movs	r0, #128	; 0x80
    2f88:	f002 02c0 	and.w	r2, r2, #192	; 0xc0
    2f8c:	f008 fae4 	bl	b558 <__BB_WriteRegMask_veneer>
    2f90:	f894 00ae 	ldrb.w	r0, [r4, #174]	; 0xae
    2f94:	7d21      	ldrb	r1, [r4, #20]
    2f96:	f002 f881 	bl	509c <grd_set_txmsg_mcs_change>
    2f9a:	2306      	movs	r3, #6
    2f9c:	f885 b144 	strb.w	fp, [r5, #324]	; 0x144
    2fa0:	f640 51ac 	movw	r1, #3500	; 0xdac
    2fa4:	f885 3145 	strb.w	r3, [r5, #325]	; 0x145
    2fa8:	f04f 0303 	mov.w	r3, #3
    2fac:	f885 3146 	strb.w	r3, [r5, #326]	; 0x146
    2fb0:	f8d5 0144 	ldr.w	r0, [r5, #324]	; 0x144
    2fb4:	f7fe f870 	bl	1098 <TIM_RegisterTimer>
    2fb8:	4632      	mov	r2, r6
    2fba:	4936      	ldr	r1, [pc, #216]	; (3094 <BB_GRD_start+0x15c>)
    2fbc:	201f      	movs	r0, #31
    2fbe:	f7fe faa3 	bl	1508 <reg_IrqHandle>
    2fc2:	2307      	movs	r3, #7
    2fc4:	f04f 0203 	mov.w	r2, #3
    2fc8:	f885 b15c 	strb.w	fp, [r5, #348]	; 0x15c
    2fcc:	f885 315d 	strb.w	r3, [r5, #349]	; 0x15d
    2fd0:	f240 41e2 	movw	r1, #1250	; 0x4e2
    2fd4:	f885 215e 	strb.w	r2, [r5, #350]	; 0x15e
    2fd8:	f888 931f 	strb.w	r9, [r8, #799]	; 0x31f
    2fdc:	f8d5 015c 	ldr.w	r0, [r5, #348]	; 0x15c
    2fe0:	f7fe f85a 	bl	1098 <TIM_RegisterTimer>
    2fe4:	4632      	mov	r2, r6
    2fe6:	492c      	ldr	r1, [pc, #176]	; (3098 <BB_GRD_start+0x160>)
    2fe8:	2020      	movs	r0, #32
    2fea:	f7fe fa8d 	bl	1508 <reg_IrqHandle>
    2fee:	2305      	movs	r3, #5
    2ff0:	f04f 0203 	mov.w	r2, #3
    2ff4:	f885 b140 	strb.w	fp, [r5, #320]	; 0x140
    2ff8:	f44f 51fa 	mov.w	r1, #8000	; 0x1f40
    2ffc:	f885 2142 	strb.w	r2, [r5, #322]	; 0x142
    3000:	f888 9320 	strb.w	r9, [r8, #800]	; 0x320
    3004:	f885 3141 	strb.w	r3, [r5, #321]	; 0x141
    3008:	f8d5 0140 	ldr.w	r0, [r5, #320]	; 0x140
    300c:	f7fe f844 	bl	1098 <TIM_RegisterTimer>
    3010:	4632      	mov	r2, r6
    3012:	4922      	ldr	r1, [pc, #136]	; (309c <BB_GRD_start+0x164>)
    3014:	201e      	movs	r0, #30
    3016:	f7fe fa77 	bl	1508 <reg_IrqHandle>
    301a:	f888 931e 	strb.w	r9, [r8, #798]	; 0x31e
    301e:	4631      	mov	r1, r6
    3020:	7be0      	ldrb	r0, [r4, #15]
    3022:	f007 f837 	bl	a094 <BB_set_Rcfrq>
    3026:	7027      	strb	r7, [r4, #0]
    3028:	4639      	mov	r1, r7
    302a:	7be0      	ldrb	r0, [r4, #15]
    302c:	f006 ff96 	bl	9f5c <BB_set_ItFrqByCh>
    3030:	233f      	movs	r3, #63	; 0x3f
    3032:	463a      	mov	r2, r7
    3034:	2162      	movs	r1, #98	; 0x62
    3036:	2080      	movs	r0, #128	; 0x80
    3038:	f884 702d 	strb.w	r7, [r4, #45]	; 0x2d
    303c:	7be5      	ldrb	r5, [r4, #15]
    303e:	f008 fa8b 	bl	b558 <__BB_WriteRegMask_veneer>
    3042:	f894 00ab 	ldrb.w	r0, [r4, #171]	; 0xab
    3046:	f894 10ae 	ldrb.w	r1, [r4, #174]	; 0xae
    304a:	f008 fb05 	bl	b658 <__BB_SweepStart_veneer>
    304e:	7be0      	ldrb	r0, [r4, #15]
    3050:	f81a 1b98 	ldrb.w	r1, [sl], #152
    3054:	f008 fb10 	bl	b678 <__BB_Sweep_updateCh_veneer>
    3058:	2010      	movs	r0, #16
    305a:	4651      	mov	r1, sl
    305c:	f002 fb8c 	bl	5778 <BB_DtSendToBuf>
    3060:	480f      	ldr	r0, [pc, #60]	; (30a0 <BB_GRD_start+0x168>)
    3062:	f003 f9e1 	bl	6428 <BB_ComInit>
    3066:	f002 fa3b 	bl	54e0 <BB_GetDevInfo>
    306a:	f104 0016 	add.w	r0, r4, #22
    306e:	f003 fdcf 	bl	6c10 <grd_SetRCId>
    3072:	4632      	mov	r2, r6
    3074:	490b      	ldr	r1, [pc, #44]	; (30a4 <BB_GRD_start+0x16c>)
    3076:	2049      	movs	r0, #73	; 0x49
    3078:	f7fe fa46 	bl	1508 <reg_IrqHandle>
    307c:	f44f 7300 	mov.w	r3, #512	; 0x200
    3080:	f888 9349 	strb.w	r9, [r8, #841]	; 0x349
    3084:	f8c8 3008 	str.w	r3, [r8, #8]
    3088:	e8bd 8ff8 	ldmia.w	sp!, {r3, r4, r5, r6, r7, r8, r9, sl, fp, pc}
    308c:	200051ac 	andcs	r5, r0, ip, lsr #3
    3090:	20000aa8 	andcs	r0, r0, r8, lsr #21
    3094:	00004b81 	andeq	r4, r0, r1, lsl #23
    3098:	000036dd 	ldrdeq	r3, [r0], -sp
    309c:	00004d1d 	andeq	r4, r0, sp, lsl sp
    30a0:	000028f1 	strdeq	r2, [r0], -r1
    30a4:	00002939 	andeq	r2, r0, r9, lsr r9
    30a8:	e000e100 	and	lr, r0, r0, lsl #2

000030ac <sub_band_rc_switch>:
    30ac:	b570      	push	{r4, r5, r6, lr}
    30ae:	4c3c      	ldr	r4, [pc, #240]	; (31a0 <sub_band_rc_switch+0xf4>)
    30b0:	2200      	movs	r2, #0
    30b2:	7be0      	ldrb	r0, [r4, #15]
    30b4:	f894 10ae 	ldrb.w	r1, [r4, #174]	; 0xae
    30b8:	f007 fd56 	bl	ab68 <BB_GetSubBandEndCH>
    30bc:	2200      	movs	r2, #0
    30be:	4605      	mov	r5, r0
    30c0:	7be0      	ldrb	r0, [r4, #15]
    30c2:	f894 10ae 	ldrb.w	r1, [r4, #174]	; 0xae
    30c6:	f007 fd35 	bl	ab34 <BB_GetSubBandStartCH>
    30ca:	4606      	mov	r6, r0
    30cc:	7be0      	ldrb	r0, [r4, #15]
    30ce:	f007 f879 	bl	a1c4 <BB_GetItFrqNum>
    30d2:	1bad      	subs	r5, r5, r6
    30d4:	b200      	sxth	r0, r0
    30d6:	f8d4 60c4 	ldr.w	r6, [r4, #196]	; 0xc4
    30da:	ebc0 00c0 	rsb	r0, r0, r0, lsl #3
    30de:	00c3      	lsls	r3, r0, #3
    30e0:	fb05 3503 	mla	r5, r5, r3, r3
    30e4:	f7fd fe5c 	bl	da0 <SysTicks_GetTickCount>
    30e8:	4601      	mov	r1, r0
    30ea:	4630      	mov	r0, r6
    30ec:	f7fd fed2 	bl	e94 <SysTicks_GetDiff>
    30f0:	4285      	cmp	r5, r0
    30f2:	d300      	bcc.n	30f6 <sub_band_rc_switch+0x4a>
    30f4:	bd70      	pop	{r4, r5, r6, pc}
    30f6:	f7fd fe53 	bl	da0 <SysTicks_GetTickCount>
    30fa:	f8c4 00c4 	str.w	r0, [r4, #196]	; 0xc4
    30fe:	f004 ffa5 	bl	804c <dlog_get_output_level>
    3102:	2802      	cmp	r0, #2
    3104:	d828      	bhi.n	3158 <sub_band_rc_switch+0xac>
    3106:	f894 10bd 	ldrb.w	r1, [r4, #189]	; 0xbd
    310a:	f894 20c2 	ldrb.w	r2, [r4, #194]	; 0xc2
    310e:	4b24      	ldr	r3, [pc, #144]	; (31a0 <sub_band_rc_switch+0xf4>)
    3110:	4291      	cmp	r1, r2
    3112:	d031      	beq.n	3178 <sub_band_rc_switch+0xcc>
    3114:	f893 30c2 	ldrb.w	r3, [r3, #194]	; 0xc2
    3118:	4d21      	ldr	r5, [pc, #132]	; (31a0 <sub_band_rc_switch+0xf4>)
    311a:	b2db      	uxtb	r3, r3
    311c:	f884 30bd 	strb.w	r3, [r4, #189]	; 0xbd
    3120:	f004 ff94 	bl	804c <dlog_get_output_level>
    3124:	2802      	cmp	r0, #2
    3126:	d831      	bhi.n	318c <sub_band_rc_switch+0xe0>
    3128:	7be0      	ldrb	r0, [r4, #15]
    312a:	f894 10ae 	ldrb.w	r1, [r4, #174]	; 0xae
    312e:	f894 20bd 	ldrb.w	r2, [r4, #189]	; 0xbd
    3132:	f007 fcff 	bl	ab34 <BB_GetSubBandStartCH>
    3136:	f884 00be 	strb.w	r0, [r4, #190]	; 0xbe
    313a:	7be0      	ldrb	r0, [r4, #15]
    313c:	f894 10ae 	ldrb.w	r1, [r4, #174]	; 0xae
    3140:	f894 20bd 	ldrb.w	r2, [r4, #189]	; 0xbd
    3144:	f007 fd10 	bl	ab68 <BB_GetSubBandEndCH>
    3148:	4b16      	ldr	r3, [pc, #88]	; (31a4 <sub_band_rc_switch+0xf8>)
    314a:	f884 00bf 	strb.w	r0, [r4, #191]	; 0xbf
    314e:	f894 20be 	ldrb.w	r2, [r4, #190]	; 0xbe
    3152:	f883 2148 	strb.w	r2, [r3, #328]	; 0x148
    3156:	bd70      	pop	{r4, r5, r6, pc}
    3158:	f44f 71c6 	mov.w	r1, #396	; 0x18c
    315c:	f894 30bd 	ldrb.w	r3, [r4, #189]	; 0xbd
    3160:	4a11      	ldr	r2, [pc, #68]	; (31a8 <sub_band_rc_switch+0xfc>)
    3162:	6809      	ldr	r1, [r1, #0]
    3164:	4811      	ldr	r0, [pc, #68]	; (31ac <sub_band_rc_switch+0x100>)
    3166:	f005 ff39 	bl	8fdc <printf>
    316a:	f894 10bd 	ldrb.w	r1, [r4, #189]	; 0xbd
    316e:	f894 20c2 	ldrb.w	r2, [r4, #194]	; 0xc2
    3172:	4b0b      	ldr	r3, [pc, #44]	; (31a0 <sub_band_rc_switch+0xf4>)
    3174:	4291      	cmp	r1, r2
    3176:	d1cd      	bne.n	3114 <sub_band_rc_switch+0x68>
    3178:	f893 30c3 	ldrb.w	r3, [r3, #195]	; 0xc3
    317c:	4d08      	ldr	r5, [pc, #32]	; (31a0 <sub_band_rc_switch+0xf4>)
    317e:	b2db      	uxtb	r3, r3
    3180:	f884 30bd 	strb.w	r3, [r4, #189]	; 0xbd
    3184:	f004 ff62 	bl	804c <dlog_get_output_level>
    3188:	2802      	cmp	r0, #2
    318a:	d9cd      	bls.n	3128 <sub_band_rc_switch+0x7c>
    318c:	f44f 71c6 	mov.w	r1, #396	; 0x18c
    3190:	f895 30bd 	ldrb.w	r3, [r5, #189]	; 0xbd
    3194:	4a04      	ldr	r2, [pc, #16]	; (31a8 <sub_band_rc_switch+0xfc>)
    3196:	6809      	ldr	r1, [r1, #0]
    3198:	4805      	ldr	r0, [pc, #20]	; (31b0 <sub_band_rc_switch+0x104>)
    319a:	f005 ff1f 	bl	8fdc <printf>
    319e:	e7c3      	b.n	3128 <sub_band_rc_switch+0x7c>
    31a0:	200051ac 	andcs	r5, r0, ip, lsr #3
    31a4:	20000aa8 	andcs	r0, r0, r8, lsr #21
    31a8:	0000bda4 	andeq	fp, r0, r4, lsr #27
    31ac:	0000bfa4 	andeq	fp, r0, r4, lsr #31
    31b0:	0000bfbc 			; <UNDEFINED> instruction: 0x0000bfbc

000031b4 <grd_freq_skip_pre_judge>:
    31b4:	e92d 43f8 	stmdb	sp!, {r3, r4, r5, r6, r7, r8, r9, lr}
    31b8:	4d33      	ldr	r5, [pc, #204]	; (3288 <grd_freq_skip_pre_judge+0xd4>)
    31ba:	f895 403d 	ldrb.w	r4, [r5, #61]	; 0x3d
    31be:	b2e4      	uxtb	r4, r4
    31c0:	2c03      	cmp	r4, #3
    31c2:	d002      	beq.n	31ca <grd_freq_skip_pre_judge+0x16>
    31c4:	2000      	movs	r0, #0
    31c6:	e8bd 83f8 	ldmia.w	sp!, {r3, r4, r5, r6, r7, r8, r9, pc}
    31ca:	4e30      	ldr	r6, [pc, #192]	; (328c <grd_freq_skip_pre_judge+0xd8>)
    31cc:	f8d6 3160 	ldr.w	r3, [r6, #352]	; 0x160
    31d0:	2b0f      	cmp	r3, #15
    31d2:	d805      	bhi.n	31e0 <grd_freq_skip_pre_judge+0x2c>
    31d4:	3301      	adds	r3, #1
    31d6:	2000      	movs	r0, #0
    31d8:	f8c6 3160 	str.w	r3, [r6, #352]	; 0x160
    31dc:	e8bd 83f8 	ldmia.w	sp!, {r3, r4, r5, r6, r7, r8, r9, pc}
    31e0:	f895 704d 	ldrb.w	r7, [r5, #77]	; 0x4d
    31e4:	21d1      	movs	r1, #209	; 0xd1
    31e6:	2080      	movs	r0, #128	; 0x80
    31e8:	093f      	lsrs	r7, r7, #4
    31ea:	f008 fa55 	bl	b698 <__BB_ReadReg_veneer>
    31ee:	f3c0 1003 	ubfx	r0, r0, #4, #4
    31f2:	2f06      	cmp	r7, #6
    31f4:	d901      	bls.n	31fa <grd_freq_skip_pre_judge+0x46>
    31f6:	2806      	cmp	r0, #6
    31f8:	d825      	bhi.n	3246 <grd_freq_skip_pre_judge+0x92>
    31fa:	2f02      	cmp	r7, #2
    31fc:	d9e2      	bls.n	31c4 <grd_freq_skip_pre_judge+0x10>
    31fe:	2802      	cmp	r0, #2
    3200:	d9e0      	bls.n	31c4 <grd_freq_skip_pre_judge+0x10>
    3202:	7d2a      	ldrb	r2, [r5, #20]
    3204:	2001      	movs	r0, #1
    3206:	4b22      	ldr	r3, [pc, #136]	; (3290 <grd_freq_skip_pre_judge+0xdc>)
    3208:	4c1f      	ldr	r4, [pc, #124]	; (3288 <grd_freq_skip_pre_judge+0xd4>)
    320a:	eb03 0342 	add.w	r3, r3, r2, lsl #1
    320e:	f8b3 1060 	ldrh.w	r1, [r3, #96]	; 0x60
    3212:	f001 fdc5 	bl	4da0 <grd_check_piecewiseSnrPass>
    3216:	fa5f f980 	uxtb.w	r9, r0
    321a:	f1b9 0f01 	cmp.w	r9, #1
    321e:	d0d1      	beq.n	31c4 <grd_freq_skip_pre_judge+0x10>
    3220:	f008 f982 	bl	b528 <__get_opt_channel_veneer>
    3224:	4607      	mov	r7, r0
    3226:	2303      	movs	r3, #3
    3228:	7be0      	ldrb	r0, [r4, #15]
    322a:	4639      	mov	r1, r7
    322c:	7822      	ldrb	r2, [r4, #0]
    322e:	46b8      	mov	r8, r7
    3230:	f008 fa02 	bl	b638 <__BB_CompareCh1Ch2ByPowerAver_veneer>
    3234:	2800      	cmp	r0, #0
    3236:	d0c5      	beq.n	31c4 <grd_freq_skip_pre_judge+0x10>
    3238:	f1b9 0f00 	cmp.w	r9, #0
    323c:	d00e      	beq.n	325c <grd_freq_skip_pre_judge+0xa8>
    323e:	7067      	strb	r7, [r4, #1]
    3240:	2001      	movs	r0, #1
    3242:	e8bd 83f8 	ldmia.w	sp!, {r3, r4, r5, r6, r7, r8, r9, pc}
    3246:	f008 f96f 	bl	b528 <__get_opt_channel_veneer>
    324a:	4680      	mov	r8, r0
    324c:	4623      	mov	r3, r4
    324e:	7be8      	ldrb	r0, [r5, #15]
    3250:	4641      	mov	r1, r8
    3252:	782a      	ldrb	r2, [r5, #0]
    3254:	f008 f9f0 	bl	b638 <__BB_CompareCh1Ch2ByPowerAver_veneer>
    3258:	2800      	cmp	r0, #0
    325a:	d0b3      	beq.n	31c4 <grd_freq_skip_pre_judge+0x10>
    325c:	2400      	movs	r4, #0
    325e:	f885 8000 	strb.w	r8, [r5]
    3262:	7be8      	ldrb	r0, [r5, #15]
    3264:	7829      	ldrb	r1, [r5, #0]
    3266:	f8c6 4160 	str.w	r4, [r6, #352]	; 0x160
    326a:	f008 fa05 	bl	b678 <__BB_Sweep_updateCh_veneer>
    326e:	7beb      	ldrb	r3, [r5, #15]
    3270:	2162      	movs	r1, #98	; 0x62
    3272:	782a      	ldrb	r2, [r5, #0]
    3274:	233f      	movs	r3, #63	; 0x3f
    3276:	2080      	movs	r0, #128	; 0x80
    3278:	f008 f96e 	bl	b558 <__BB_WriteRegMask_veneer>
    327c:	2304      	movs	r3, #4
    327e:	4620      	mov	r0, r4
    3280:	f885 303d 	strb.w	r3, [r5, #61]	; 0x3d
    3284:	e8bd 83f8 	ldmia.w	sp!, {r3, r4, r5, r6, r7, r8, r9, pc}
    3288:	200051ac 	andcs	r5, r0, ip, lsr #3
    328c:	20000aa8 	andcs	r0, r0, r8, lsr #21
    3290:	0000bd58 	andeq	fp, r0, r8, asr sp

00003294 <grd_freq_skip_post_judge>:
    3294:	b510      	push	{r4, lr}
    3296:	4c15      	ldr	r4, [pc, #84]	; (32ec <grd_freq_skip_post_judge+0x58>)
    3298:	f894 303d 	ldrb.w	r3, [r4, #61]	; 0x3d
    329c:	2b03      	cmp	r3, #3
    329e:	d000      	beq.n	32a2 <grd_freq_skip_post_judge+0xe>
    32a0:	bd10      	pop	{r4, pc}
    32a2:	7d22      	ldrb	r2, [r4, #20]
    32a4:	2000      	movs	r0, #0
    32a6:	4b12      	ldr	r3, [pc, #72]	; (32f0 <grd_freq_skip_post_judge+0x5c>)
    32a8:	eb03 0342 	add.w	r3, r3, r2, lsl #1
    32ac:	f8b3 1060 	ldrh.w	r1, [r3, #96]	; 0x60
    32b0:	f001 fd76 	bl	4da0 <grd_check_piecewiseSnrPass>
    32b4:	2800      	cmp	r0, #0
    32b6:	d1f3      	bne.n	32a0 <grd_freq_skip_post_judge+0xc>
    32b8:	7822      	ldrb	r2, [r4, #0]
    32ba:	7863      	ldrb	r3, [r4, #1]
    32bc:	429a      	cmp	r2, r3
    32be:	d010      	beq.n	32e2 <grd_freq_skip_post_judge+0x4e>
    32c0:	7863      	ldrb	r3, [r4, #1]
    32c2:	4a0c      	ldr	r2, [pc, #48]	; (32f4 <grd_freq_skip_post_judge+0x60>)
    32c4:	b2db      	uxtb	r3, r3
    32c6:	f8c2 0160 	str.w	r0, [r2, #352]	; 0x160
    32ca:	7023      	strb	r3, [r4, #0]
    32cc:	7be0      	ldrb	r0, [r4, #15]
    32ce:	7821      	ldrb	r1, [r4, #0]
    32d0:	f008 f9d2 	bl	b678 <__BB_Sweep_updateCh_veneer>
    32d4:	7be3      	ldrb	r3, [r4, #15]
    32d6:	2162      	movs	r1, #98	; 0x62
    32d8:	7822      	ldrb	r2, [r4, #0]
    32da:	233f      	movs	r3, #63	; 0x3f
    32dc:	2080      	movs	r0, #128	; 0x80
    32de:	f008 f93b 	bl	b558 <__BB_WriteRegMask_veneer>
    32e2:	2304      	movs	r3, #4
    32e4:	f884 303d 	strb.w	r3, [r4, #61]	; 0x3d
    32e8:	bd10      	pop	{r4, pc}
    32ea:	bf00      	nop
    32ec:	200051ac 	andcs	r5, r0, ip, lsr #3
    32f0:	0000bd58 	andeq	fp, r0, r8, asr sp
    32f4:	20000aa8 	andcs	r0, r0, r8, lsr #21

000032f8 <grd_is_bb_fec_lock>:
    32f8:	b530      	push	{r4, r5, lr}
    32fa:	21da      	movs	r1, #218	; 0xda
    32fc:	b087      	sub	sp, #28
    32fe:	2080      	movs	r0, #128	; 0x80
    3300:	f008 f9ca 	bl	b698 <__BB_ReadReg_veneer>
    3304:	07c3      	lsls	r3, r0, #31
    3306:	d41a      	bmi.n	333e <grd_is_bb_fec_lock+0x46>
    3308:	4d29      	ldr	r5, [pc, #164]	; (33b0 <grd_is_bb_fec_lock+0xb8>)
    330a:	2400      	movs	r4, #0
    330c:	f895 3024 	ldrb.w	r3, [r5, #36]	; 0x24
    3310:	4d27      	ldr	r5, [pc, #156]	; (33b0 <grd_is_bb_fec_lock+0xb8>)
    3312:	429c      	cmp	r4, r3
    3314:	d010      	beq.n	3338 <grd_is_bb_fec_lock+0x40>
    3316:	2300      	movs	r3, #0
    3318:	a903      	add	r1, sp, #12
    331a:	4826      	ldr	r0, [pc, #152]	; (33b4 <grd_is_bb_fec_lock+0xbc>)
    331c:	9304      	str	r3, [sp, #16]
    331e:	9303      	str	r3, [sp, #12]
    3320:	f8cd 3013 	str.w	r3, [sp, #19]
    3324:	f885 4024 	strb.w	r4, [r5, #36]	; 0x24
    3328:	f88d 400d 	strb.w	r4, [sp, #13]
    332c:	f004 fad2 	bl	78d4 <SYS_EVENT_NotifyInterCore>
    3330:	f004 fe8c 	bl	804c <dlog_get_output_level>
    3334:	2802      	cmp	r0, #2
    3336:	d81e      	bhi.n	3376 <grd_is_bb_fec_lock+0x7e>
    3338:	4620      	mov	r0, r4
    333a:	b007      	add	sp, #28
    333c:	bd30      	pop	{r4, r5, pc}
    333e:	f003 fc37 	bl	6bb0 <BB_grd_checkVtIdMatch>
    3342:	4d1b      	ldr	r5, [pc, #108]	; (33b0 <grd_is_bb_fec_lock+0xb8>)
    3344:	0040      	lsls	r0, r0, #1
    3346:	f040 0401 	orr.w	r4, r0, #1
    334a:	b2e4      	uxtb	r4, r4
    334c:	2c01      	cmp	r4, #1
    334e:	d1dd      	bne.n	330c <grd_is_bb_fec_lock+0x14>
    3350:	f895 30c8 	ldrb.w	r3, [r5, #200]	; 0xc8
    3354:	b9e3      	cbnz	r3, 3390 <grd_is_bb_fec_lock+0x98>
    3356:	2001      	movs	r0, #1
    3358:	f008 f8ee 	bl	b538 <__BB_softReset_veneer>
    335c:	f004 fe76 	bl	804c <dlog_get_output_level>
    3360:	2803      	cmp	r0, #3
    3362:	d9d2      	bls.n	330a <grd_is_bb_fec_lock+0x12>
    3364:	f44f 73c6 	mov.w	r3, #396	; 0x18c
    3368:	4a13      	ldr	r2, [pc, #76]	; (33b8 <grd_is_bb_fec_lock+0xc0>)
    336a:	4814      	ldr	r0, [pc, #80]	; (33bc <grd_is_bb_fec_lock+0xc4>)
    336c:	2400      	movs	r4, #0
    336e:	6819      	ldr	r1, [r3, #0]
    3370:	f005 fe34 	bl	8fdc <printf>
    3374:	e7ca      	b.n	330c <grd_is_bb_fec_lock+0x14>
    3376:	782d      	ldrb	r5, [r5, #0]
    3378:	f44f 71c6 	mov.w	r1, #396	; 0x18c
    337c:	4623      	mov	r3, r4
    337e:	4a0e      	ldr	r2, [pc, #56]	; (33b8 <grd_is_bb_fec_lock+0xc0>)
    3380:	6809      	ldr	r1, [r1, #0]
    3382:	480f      	ldr	r0, [pc, #60]	; (33c0 <grd_is_bb_fec_lock+0xc8>)
    3384:	9500      	str	r5, [sp, #0]
    3386:	f005 fe29 	bl	8fdc <printf>
    338a:	4620      	mov	r0, r4
    338c:	b007      	add	sp, #28
    338e:	bd30      	pop	{r4, r5, pc}
    3390:	2300      	movs	r3, #0
    3392:	2204      	movs	r2, #4
    3394:	a903      	add	r1, sp, #12
    3396:	4807      	ldr	r0, [pc, #28]	; (33b4 <grd_is_bb_fec_lock+0xbc>)
    3398:	9303      	str	r3, [sp, #12]
    339a:	9304      	str	r3, [sp, #16]
    339c:	f88d 400d 	strb.w	r4, [sp, #13]
    33a0:	f8cd 3013 	str.w	r3, [sp, #19]
    33a4:	f88d 200c 	strb.w	r2, [sp, #12]
    33a8:	f004 fa94 	bl	78d4 <SYS_EVENT_NotifyInterCore>
    33ac:	e7d3      	b.n	3356 <grd_is_bb_fec_lock+0x5e>
    33ae:	bf00      	nop
    33b0:	200051ac 	andcs	r5, r0, ip, lsr #3
    33b4:	20000003 	andcs	r0, r0, r3
    33b8:	0000bdc4 	andeq	fp, r0, r4, asr #27
    33bc:	0000bfd8 	ldrdeq	fp, [r0], -r8
    33c0:	0000bffc 	strdeq	fp, [r0], -ip

000033c4 <grd_fec_judge>:
    33c4:	b5f0      	push	{r4, r5, r6, r7, lr}
    33c6:	4cbb      	ldr	r4, [pc, #748]	; (36b4 <grd_fec_judge+0x2f0>)
    33c8:	b085      	sub	sp, #20
    33ca:	f894 503d 	ldrb.w	r5, [r4, #61]	; 0x3d
    33ce:	b2ed      	uxtb	r5, r5
    33d0:	2d01      	cmp	r5, #1
    33d2:	f000 8099 	beq.w	3508 <grd_fec_judge+0x144>
    33d6:	f894 303d 	ldrb.w	r3, [r4, #61]	; 0x3d
    33da:	2b05      	cmp	r3, #5
    33dc:	d009      	beq.n	33f2 <grd_fec_judge+0x2e>
    33de:	f894 303d 	ldrb.w	r3, [r4, #61]	; 0x3d
    33e2:	2b03      	cmp	r3, #3
    33e4:	d005      	beq.n	33f2 <grd_fec_judge+0x2e>
    33e6:	f894 303d 	ldrb.w	r3, [r4, #61]	; 0x3d
    33ea:	2b04      	cmp	r3, #4
    33ec:	d07f      	beq.n	34ee <grd_fec_judge+0x12a>
    33ee:	b005      	add	sp, #20
    33f0:	bdf0      	pop	{r4, r5, r6, r7, pc}
    33f2:	f7ff ff81 	bl	32f8 <grd_is_bb_fec_lock>
    33f6:	f884 0024 	strb.w	r0, [r4, #36]	; 0x24
    33fa:	f894 3024 	ldrb.w	r3, [r4, #36]	; 0x24
    33fe:	4dad      	ldr	r5, [pc, #692]	; (36b4 <grd_fec_judge+0x2f0>)
    3400:	2b00      	cmp	r3, #0
    3402:	d166      	bne.n	34d2 <grd_fec_judge+0x10e>
    3404:	f895 30c8 	ldrb.w	r3, [r5, #200]	; 0xc8
    3408:	b113      	cbz	r3, 3410 <grd_fec_judge+0x4c>
    340a:	2305      	movs	r3, #5
    340c:	f885 303d 	strb.w	r3, [r5, #61]	; 0x3d
    3410:	7923      	ldrb	r3, [r4, #4]
    3412:	4aa8      	ldr	r2, [pc, #672]	; (36b4 <grd_fec_judge+0x2f0>)
    3414:	3301      	adds	r3, #1
    3416:	b2db      	uxtb	r3, r3
    3418:	7123      	strb	r3, [r4, #4]
    341a:	7923      	ldrb	r3, [r4, #4]
    341c:	2b40      	cmp	r3, #64	; 0x40
    341e:	d9e6      	bls.n	33ee <grd_fec_judge+0x2a>
    3420:	2305      	movs	r3, #5
    3422:	f882 303d 	strb.w	r3, [r2, #61]	; 0x3d
    3426:	f004 fe11 	bl	804c <dlog_get_output_level>
    342a:	2802      	cmp	r0, #2
    342c:	f200 80ae 	bhi.w	358c <grd_fec_judge+0x1c8>
    3430:	f894 50bc 	ldrb.w	r5, [r4, #188]	; 0xbc
    3434:	4e9f      	ldr	r6, [pc, #636]	; (36b4 <grd_fec_judge+0x2f0>)
    3436:	b2ed      	uxtb	r5, r5
    3438:	2d01      	cmp	r5, #1
    343a:	f000 80ea 	beq.w	3612 <grd_fec_judge+0x24e>
    343e:	7a23      	ldrb	r3, [r4, #8]
    3440:	4a9c      	ldr	r2, [pc, #624]	; (36b4 <grd_fec_judge+0x2f0>)
    3442:	bb8b      	cbnz	r3, 34a8 <grd_fec_judge+0xe4>
    3444:	f892 30c8 	ldrb.w	r3, [r2, #200]	; 0xc8
    3448:	f003 01ff 	and.w	r1, r3, #255	; 0xff
    344c:	bb63      	cbnz	r3, 34a8 <grd_fec_judge+0xe4>
    344e:	7bd0      	ldrb	r0, [r2, #15]
    3450:	ab03      	add	r3, sp, #12
    3452:	9101      	str	r1, [sp, #4]
    3454:	f10d 020b 	add.w	r2, sp, #11
    3458:	9100      	str	r1, [sp, #0]
    345a:	2101      	movs	r1, #1
    345c:	f008 f8f4 	bl	b648 <__BB_selectBestCh_veneer>
    3460:	4605      	mov	r5, r0
    3462:	f004 fdf3 	bl	804c <dlog_get_output_level>
    3466:	2802      	cmp	r0, #2
    3468:	f200 8110 	bhi.w	368c <grd_fec_judge+0x2c8>
    346c:	f008 f8fc 	bl	b668 <__BB_ResetRcMap_veneer>
    3470:	b1d5      	cbz	r5, 34a8 <grd_fec_judge+0xe4>
    3472:	f89d 100b 	ldrb.w	r1, [sp, #11]
    3476:	7021      	strb	r1, [r4, #0]
    3478:	7be0      	ldrb	r0, [r4, #15]
    347a:	f008 f8fd 	bl	b678 <__BB_Sweep_updateCh_veneer>
    347e:	f89d 100b 	ldrb.w	r1, [sp, #11]
    3482:	7be0      	ldrb	r0, [r4, #15]
    3484:	f006 fd6a 	bl	9f5c <BB_set_ItFrqByCh>
    3488:	2201      	movs	r2, #1
    348a:	233f      	movs	r3, #63	; 0x3f
    348c:	2162      	movs	r1, #98	; 0x62
    348e:	f884 202d 	strb.w	r2, [r4, #45]	; 0x2d
    3492:	2080      	movs	r0, #128	; 0x80
    3494:	7be2      	ldrb	r2, [r4, #15]
    3496:	7822      	ldrb	r2, [r4, #0]
    3498:	f008 f85e 	bl	b558 <__BB_WriteRegMask_veneer>
    349c:	f894 30bc 	ldrb.w	r3, [r4, #188]	; 0xbc
    34a0:	2b01      	cmp	r3, #1
    34a2:	d101      	bne.n	34a8 <grd_fec_judge+0xe4>
    34a4:	f7ff fe02 	bl	30ac <sub_band_rc_switch>
    34a8:	2200      	movs	r2, #0
    34aa:	4b82      	ldr	r3, [pc, #520]	; (36b4 <grd_fec_judge+0x2f0>)
    34ac:	7122      	strb	r2, [r4, #4]
    34ae:	7aa2      	ldrb	r2, [r4, #10]
    34b0:	2a00      	cmp	r2, #0
    34b2:	d19c      	bne.n	33ee <grd_fec_judge+0x2a>
    34b4:	7d19      	ldrb	r1, [r3, #20]
    34b6:	f893 204c 	ldrb.w	r2, [r3, #76]	; 0x4c
    34ba:	4291      	cmp	r1, r2
    34bc:	d997      	bls.n	33ee <grd_fec_judge+0x2a>
    34be:	f893 204c 	ldrb.w	r2, [r3, #76]	; 0x4c
    34c2:	b2d2      	uxtb	r2, r2
    34c4:	751a      	strb	r2, [r3, #20]
    34c6:	f893 00ae 	ldrb.w	r0, [r3, #174]	; 0xae
    34ca:	7d19      	ldrb	r1, [r3, #20]
    34cc:	f001 fde6 	bl	509c <grd_set_txmsg_mcs_change>
    34d0:	e78d      	b.n	33ee <grd_fec_judge+0x2a>
    34d2:	2300      	movs	r3, #0
    34d4:	2203      	movs	r2, #3
    34d6:	f885 203d 	strb.w	r2, [r5, #61]	; 0x3d
    34da:	712b      	strb	r3, [r5, #4]
    34dc:	f895 30bc 	ldrb.w	r3, [r5, #188]	; 0xbc
    34e0:	2b01      	cmp	r3, #1
    34e2:	d05b      	beq.n	359c <grd_fec_judge+0x1d8>
    34e4:	2301      	movs	r3, #1
    34e6:	f884 30c0 	strb.w	r3, [r4, #192]	; 0xc0
    34ea:	b005      	add	sp, #20
    34ec:	bdf0      	pop	{r4, r5, r6, r7, pc}
    34ee:	7be0      	ldrb	r0, [r4, #15]
    34f0:	7821      	ldrb	r1, [r4, #0]
    34f2:	f006 fd33 	bl	9f5c <BB_set_ItFrqByCh>
    34f6:	4a70      	ldr	r2, [pc, #448]	; (36b8 <grd_fec_judge+0x2f4>)
    34f8:	2100      	movs	r1, #0
    34fa:	2305      	movs	r3, #5
    34fc:	f8c2 1160 	str.w	r1, [r2, #352]	; 0x160
    3500:	f884 303d 	strb.w	r3, [r4, #61]	; 0x3d
    3504:	b005      	add	sp, #20
    3506:	bdf0      	pop	{r4, r5, r6, r7, pc}
    3508:	f7ff fef6 	bl	32f8 <grd_is_bb_fec_lock>
    350c:	f884 0024 	strb.w	r0, [r4, #36]	; 0x24
    3510:	f894 3024 	ldrb.w	r3, [r4, #36]	; 0x24
    3514:	2b00      	cmp	r3, #0
    3516:	d135      	bne.n	3584 <grd_fec_judge+0x1c0>
    3518:	7923      	ldrb	r3, [r4, #4]
    351a:	b2db      	uxtb	r3, r3
    351c:	1c5a      	adds	r2, r3, #1
    351e:	2b14      	cmp	r3, #20
    3520:	b2d2      	uxtb	r2, r2
    3522:	7122      	strb	r2, [r4, #4]
    3524:	f67f af63 	bls.w	33ee <grd_fec_judge+0x2a>
    3528:	7a23      	ldrb	r3, [r4, #8]
    352a:	bb43      	cbnz	r3, 357e <grd_fec_judge+0x1ba>
    352c:	f894 30c8 	ldrb.w	r3, [r4, #200]	; 0xc8
    3530:	f003 01ff 	and.w	r1, r3, #255	; 0xff
    3534:	bb1b      	cbnz	r3, 357e <grd_fec_judge+0x1ba>
    3536:	9101      	str	r1, [sp, #4]
    3538:	ab03      	add	r3, sp, #12
    353a:	9100      	str	r1, [sp, #0]
    353c:	f10d 020b 	add.w	r2, sp, #11
    3540:	7be0      	ldrb	r0, [r4, #15]
    3542:	4629      	mov	r1, r5
    3544:	f008 f880 	bl	b648 <__BB_selectBestCh_veneer>
    3548:	b1c8      	cbz	r0, 357e <grd_fec_judge+0x1ba>
    354a:	f89d 100b 	ldrb.w	r1, [sp, #11]
    354e:	7021      	strb	r1, [r4, #0]
    3550:	7be0      	ldrb	r0, [r4, #15]
    3552:	f008 f891 	bl	b678 <__BB_Sweep_updateCh_veneer>
    3556:	f89d 100b 	ldrb.w	r1, [sp, #11]
    355a:	7be0      	ldrb	r0, [r4, #15]
    355c:	f006 fcfe 	bl	9f5c <BB_set_ItFrqByCh>
    3560:	f884 502d 	strb.w	r5, [r4, #45]	; 0x2d
    3564:	2162      	movs	r1, #98	; 0x62
    3566:	7be3      	ldrb	r3, [r4, #15]
    3568:	2080      	movs	r0, #128	; 0x80
    356a:	233f      	movs	r3, #63	; 0x3f
    356c:	7822      	ldrb	r2, [r4, #0]
    356e:	f007 fff3 	bl	b558 <__BB_WriteRegMask_veneer>
    3572:	f894 30bc 	ldrb.w	r3, [r4, #188]	; 0xbc
    3576:	2b01      	cmp	r3, #1
    3578:	d101      	bne.n	357e <grd_fec_judge+0x1ba>
    357a:	f7ff fd97 	bl	30ac <sub_band_rc_switch>
    357e:	2300      	movs	r3, #0
    3580:	7123      	strb	r3, [r4, #4]
    3582:	e734      	b.n	33ee <grd_fec_judge+0x2a>
    3584:	2305      	movs	r3, #5
    3586:	f884 303d 	strb.w	r3, [r4, #61]	; 0x3d
    358a:	e730      	b.n	33ee <grd_fec_judge+0x2a>
    358c:	f44f 73c6 	mov.w	r3, #396	; 0x18c
    3590:	4a4a      	ldr	r2, [pc, #296]	; (36bc <grd_fec_judge+0x2f8>)
    3592:	484b      	ldr	r0, [pc, #300]	; (36c0 <grd_fec_judge+0x2fc>)
    3594:	6819      	ldr	r1, [r3, #0]
    3596:	f005 fd21 	bl	8fdc <printf>
    359a:	e749      	b.n	3430 <grd_fec_judge+0x6c>
    359c:	4e46      	ldr	r6, [pc, #280]	; (36b8 <grd_fec_judge+0x2f4>)
    359e:	f896 3164 	ldrb.w	r3, [r6, #356]	; 0x164
    35a2:	2b00      	cmp	r3, #0
    35a4:	d19e      	bne.n	34e4 <grd_fec_judge+0x120>
    35a6:	f895 3024 	ldrb.w	r3, [r5, #36]	; 0x24
    35aa:	2b00      	cmp	r3, #0
    35ac:	d09a      	beq.n	34e4 <grd_fec_judge+0x120>
    35ae:	f895 20bd 	ldrb.w	r2, [r5, #189]	; 0xbd
    35b2:	782b      	ldrb	r3, [r5, #0]
    35b4:	429a      	cmp	r2, r3
    35b6:	d095      	beq.n	34e4 <grd_fec_judge+0x120>
    35b8:	f004 fd48 	bl	804c <dlog_get_output_level>
    35bc:	2802      	cmp	r0, #2
    35be:	d86d      	bhi.n	369c <grd_fec_judge+0x2d8>
    35c0:	7823      	ldrb	r3, [r4, #0]
    35c2:	2201      	movs	r2, #1
    35c4:	a903      	add	r1, sp, #12
    35c6:	2020      	movs	r0, #32
    35c8:	b2db      	uxtb	r3, r3
    35ca:	f886 2164 	strb.w	r2, [r6, #356]	; 0x164
    35ce:	f884 30bd 	strb.w	r3, [r4, #189]	; 0xbd
    35d2:	f894 20bd 	ldrb.w	r2, [r4, #189]	; 0xbd
    35d6:	f894 305d 	ldrb.w	r3, [r4, #93]	; 0x5d
    35da:	f88d 200c 	strb.w	r2, [sp, #12]
    35de:	3340      	adds	r3, #64	; 0x40
    35e0:	b2db      	uxtb	r3, r3
    35e2:	f886 3165 	strb.w	r3, [r6, #357]	; 0x165
    35e6:	f88d 300d 	strb.w	r3, [sp, #13]
    35ea:	f002 f8c5 	bl	5778 <BB_DtSendToBuf>
    35ee:	f004 fd2d 	bl	804c <dlog_get_output_level>
    35f2:	2802      	cmp	r0, #2
    35f4:	f67f af76 	bls.w	34e4 <grd_fec_judge+0x120>
    35f8:	f89d 200d 	ldrb.w	r2, [sp, #13]
    35fc:	f44f 71c6 	mov.w	r1, #396	; 0x18c
    3600:	f89d 300c 	ldrb.w	r3, [sp, #12]
    3604:	6809      	ldr	r1, [r1, #0]
    3606:	482f      	ldr	r0, [pc, #188]	; (36c4 <grd_fec_judge+0x300>)
    3608:	9200      	str	r2, [sp, #0]
    360a:	4a2f      	ldr	r2, [pc, #188]	; (36c8 <grd_fec_judge+0x304>)
    360c:	f005 fce6 	bl	8fdc <printf>
    3610:	e768      	b.n	34e4 <grd_fec_judge+0x120>
    3612:	f007 ffc9 	bl	b5a8 <__BB_isSweepFull_veneer>
    3616:	2800      	cmp	r0, #0
    3618:	f43f af11 	beq.w	343e <grd_fec_judge+0x7a>
    361c:	f896 30c0 	ldrb.w	r3, [r6, #192]	; 0xc0
    3620:	2b00      	cmp	r3, #0
    3622:	f43f af0c 	beq.w	343e <grd_fec_judge+0x7a>
    3626:	f896 30c8 	ldrb.w	r3, [r6, #200]	; 0xc8
    362a:	f003 07ff 	and.w	r7, r3, #255	; 0xff
    362e:	2b00      	cmp	r3, #0
    3630:	f47f af05 	bne.w	343e <grd_fec_judge+0x7a>
    3634:	4628      	mov	r0, r5
    3636:	f886 70c0 	strb.w	r7, [r6, #192]	; 0xc0
    363a:	f002 fa5b 	bl	5af4 <BB_SetTrxMode>
    363e:	7037      	strb	r7, [r6, #0]
    3640:	7bf0      	ldrb	r0, [r6, #15]
    3642:	7831      	ldrb	r1, [r6, #0]
    3644:	f006 fc8a 	bl	9f5c <BB_set_ItFrqByCh>
    3648:	f886 502d 	strb.w	r5, [r6, #45]	; 0x2d
    364c:	2162      	movs	r1, #98	; 0x62
    364e:	7bf3      	ldrb	r3, [r6, #15]
    3650:	2080      	movs	r0, #128	; 0x80
    3652:	233f      	movs	r3, #63	; 0x3f
    3654:	7832      	ldrb	r2, [r6, #0]
    3656:	f007 ff7f 	bl	b558 <__BB_WriteRegMask_veneer>
    365a:	f896 00ab 	ldrb.w	r0, [r6, #171]	; 0xab
    365e:	f896 10ae 	ldrb.w	r1, [r6, #174]	; 0xae
    3662:	f007 fff9 	bl	b658 <__BB_SweepStart_veneer>
    3666:	7bf0      	ldrb	r0, [r6, #15]
    3668:	7831      	ldrb	r1, [r6, #0]
    366a:	f008 f805 	bl	b678 <__BB_Sweep_updateCh_veneer>
    366e:	f007 ffb3 	bl	b5d8 <__BB_resetSweepFull_veneer>
    3672:	f004 fceb 	bl	804c <dlog_get_output_level>
    3676:	2802      	cmp	r0, #2
    3678:	f67f aee1 	bls.w	343e <grd_fec_judge+0x7a>
    367c:	f44f 73c6 	mov.w	r3, #396	; 0x18c
    3680:	4a0e      	ldr	r2, [pc, #56]	; (36bc <grd_fec_judge+0x2f8>)
    3682:	4812      	ldr	r0, [pc, #72]	; (36cc <grd_fec_judge+0x308>)
    3684:	6819      	ldr	r1, [r3, #0]
    3686:	f005 fca9 	bl	8fdc <printf>
    368a:	e6d8      	b.n	343e <grd_fec_judge+0x7a>
    368c:	f44f 73c6 	mov.w	r3, #396	; 0x18c
    3690:	4a0a      	ldr	r2, [pc, #40]	; (36bc <grd_fec_judge+0x2f8>)
    3692:	480f      	ldr	r0, [pc, #60]	; (36d0 <grd_fec_judge+0x30c>)
    3694:	6819      	ldr	r1, [r3, #0]
    3696:	f005 fca1 	bl	8fdc <printf>
    369a:	e6e7      	b.n	346c <grd_fec_judge+0xa8>
    369c:	f895 30bd 	ldrb.w	r3, [r5, #189]	; 0xbd
    36a0:	f44f 71c6 	mov.w	r1, #396	; 0x18c
    36a4:	782a      	ldrb	r2, [r5, #0]
    36a6:	6809      	ldr	r1, [r1, #0]
    36a8:	480a      	ldr	r0, [pc, #40]	; (36d4 <grd_fec_judge+0x310>)
    36aa:	9200      	str	r2, [sp, #0]
    36ac:	4a0a      	ldr	r2, [pc, #40]	; (36d8 <grd_fec_judge+0x314>)
    36ae:	f005 fc95 	bl	8fdc <printf>
    36b2:	e785      	b.n	35c0 <grd_fec_judge+0x1fc>
    36b4:	200051ac 	andcs	r5, r0, ip, lsr #3
    36b8:	20000aa8 	andcs	r0, r0, r8, lsr #21
    36bc:	0000be00 	andeq	fp, r0, r0, lsl #28
    36c0:	0000c050 	andeq	ip, r0, r0, asr r0
    36c4:	0000c034 	andeq	ip, r0, r4, lsr r0
    36c8:	0000bdec 	andeq	fp, r0, ip, ror #27
    36cc:	0000c06c 	andeq	ip, r0, ip, rrx
    36d0:	0000c094 	muleq	r0, r4, r0
    36d4:	0000c018 	andeq	ip, r0, r8, lsl r0
    36d8:	0000bdd8 	ldrdeq	fp, [r0], -r8

000036dc <Grd_TIM2_7_IRQHandler>:
    36dc:	e92d 43f0 	stmdb	sp!, {r4, r5, r6, r7, r8, r9, lr}
    36e0:	4c98      	ldr	r4, [pc, #608]	; (3944 <Grd_TIM2_7_IRQHandler+0x268>)
    36e2:	b087      	sub	sp, #28
    36e4:	4898      	ldr	r0, [pc, #608]	; (3948 <Grd_TIM2_7_IRQHandler+0x26c>)
    36e6:	f7fd fa03 	bl	af0 <Reg_Read32>
    36ea:	f894 303e 	ldrb.w	r3, [r4, #62]	; 0x3e
    36ee:	b95b      	cbnz	r3, 3708 <Grd_TIM2_7_IRQHandler+0x2c>
    36f0:	4d96      	ldr	r5, [pc, #600]	; (394c <Grd_TIM2_7_IRQHandler+0x270>)
    36f2:	f895 3166 	ldrb.w	r3, [r5, #358]	; 0x166
    36f6:	2b07      	cmp	r3, #7
    36f8:	f200 80f6 	bhi.w	38e8 <Grd_TIM2_7_IRQHandler+0x20c>
    36fc:	e8df f003 	tbb	[pc, r3]
    3700:	70433b22 	subvc	r3, r3, r2, lsr #22
    3704:	10aba3c3 	adcne	sl, fp, r3, asr #7
    3708:	4a91      	ldr	r2, [pc, #580]	; (3950 <Grd_TIM2_7_IRQHandler+0x274>)
    370a:	2101      	movs	r1, #1
    370c:	4b8f      	ldr	r3, [pc, #572]	; (394c <Grd_TIM2_7_IRQHandler+0x270>)
    370e:	f8c2 1084 	str.w	r1, [r2, #132]	; 0x84
    3712:	f8d3 015c 	ldr.w	r0, [r3, #348]	; 0x15c
    3716:	f7fd fc6d 	bl	ff4 <TIM_StopTimer>
    371a:	b007      	add	sp, #28
    371c:	e8bd 83f0 	ldmia.w	sp!, {r4, r5, r6, r7, r8, r9, pc}
    3720:	4a8b      	ldr	r2, [pc, #556]	; (3950 <Grd_TIM2_7_IRQHandler+0x274>)
    3722:	2101      	movs	r1, #1
    3724:	2308      	movs	r3, #8
    3726:	f8d5 015c 	ldr.w	r0, [r5, #348]	; 0x15c
    372a:	f8c2 1084 	str.w	r1, [r2, #132]	; 0x84
    372e:	f885 3166 	strb.w	r3, [r5, #358]	; 0x166
    3732:	f7fd fc5f 	bl	ff4 <TIM_StopTimer>
    3736:	f895 3282 	ldrb.w	r3, [r5, #642]	; 0x282
    373a:	2b00      	cmp	r3, #0
    373c:	d0ed      	beq.n	371a <Grd_TIM2_7_IRQHandler+0x3e>
    373e:	f7ff fda9 	bl	3294 <grd_freq_skip_post_judge>
    3742:	e7ea      	b.n	371a <Grd_TIM2_7_IRQHandler+0x3e>
    3744:	4c83      	ldr	r4, [pc, #524]	; (3954 <Grd_TIM2_7_IRQHandler+0x278>)
    3746:	f001 fb85 	bl	4e54 <grd_get_it_snr>
    374a:	21a0      	movs	r1, #160	; 0xa0
    374c:	8020      	strh	r0, [r4, #0]
    374e:	2080      	movs	r0, #128	; 0x80
    3750:	f007 ffa2 	bl	b698 <__BB_ReadReg_veneer>
    3754:	21a1      	movs	r1, #161	; 0xa1
    3756:	70a0      	strb	r0, [r4, #2]
    3758:	2080      	movs	r0, #128	; 0x80
    375a:	f007 ff9d 	bl	b698 <__BB_ReadReg_veneer>
    375e:	70e0      	strb	r0, [r4, #3]
    3760:	2000      	movs	r0, #0
    3762:	f007 ffa1 	bl	b6a8 <__BB_GetSweepedChResult_veneer>
    3766:	f003 fbbb 	bl	6ee0 <BB_grd_checkSearchEnd>
    376a:	f895 3166 	ldrb.w	r3, [r5, #358]	; 0x166
    376e:	3301      	adds	r3, #1
    3770:	f885 3166 	strb.w	r3, [r5, #358]	; 0x166
    3774:	e7d1      	b.n	371a <Grd_TIM2_7_IRQHandler+0x3e>
    3776:	f7ff fe25 	bl	33c4 <grd_fec_judge>
    377a:	f895 3166 	ldrb.w	r3, [r5, #358]	; 0x166
    377e:	3301      	adds	r3, #1
    3780:	f885 3166 	strb.w	r3, [r5, #358]	; 0x166
    3784:	e7c9      	b.n	371a <Grd_TIM2_7_IRQHandler+0x3e>
    3786:	7a63      	ldrb	r3, [r4, #9]
    3788:	2b00      	cmp	r3, #0
    378a:	f000 80d4 	beq.w	3936 <Grd_TIM2_7_IRQHandler+0x25a>
    378e:	f894 3024 	ldrb.w	r3, [r4, #36]	; 0x24
    3792:	2b00      	cmp	r3, #0
    3794:	f040 80cc 	bne.w	3930 <Grd_TIM2_7_IRQHandler+0x254>
    3798:	f894 305d 	ldrb.w	r3, [r4, #93]	; 0x5d
    379c:	215f      	movs	r1, #95	; 0x5f
    379e:	20c0      	movs	r0, #192	; 0xc0
    37a0:	4e68      	ldr	r6, [pc, #416]	; (3944 <Grd_TIM2_7_IRQHandler+0x268>)
    37a2:	3301      	adds	r3, #1
    37a4:	b2db      	uxtb	r3, r3
    37a6:	f884 305d 	strb.w	r3, [r4, #93]	; 0x5d
    37aa:	f894 205d 	ldrb.w	r2, [r4, #93]	; 0x5d
    37ae:	f007 fea3 	bl	b4f8 <__BB_WriteReg_veneer>
    37b2:	f894 30bc 	ldrb.w	r3, [r4, #188]	; 0xbc
    37b6:	2b01      	cmp	r3, #1
    37b8:	f000 81e3 	beq.w	3b82 <Grd_TIM2_7_IRQHandler+0x4a6>
    37bc:	f895 3168 	ldrb.w	r3, [r5, #360]	; 0x168
    37c0:	4a62      	ldr	r2, [pc, #392]	; (394c <Grd_TIM2_7_IRQHandler+0x270>)
    37c2:	b13b      	cbz	r3, 37d4 <Grd_TIM2_7_IRQHandler+0xf8>
    37c4:	f894 105d 	ldrb.w	r1, [r4, #93]	; 0x5d
    37c8:	f892 0169 	ldrb.w	r0, [r2, #361]	; 0x169
    37cc:	4b5d      	ldr	r3, [pc, #372]	; (3944 <Grd_TIM2_7_IRQHandler+0x268>)
    37ce:	4288      	cmp	r0, r1
    37d0:	f000 808e 	beq.w	38f0 <Grd_TIM2_7_IRQHandler+0x214>
    37d4:	f895 3166 	ldrb.w	r3, [r5, #358]	; 0x166
    37d8:	3301      	adds	r3, #1
    37da:	f885 3166 	strb.w	r3, [r5, #358]	; 0x166
    37de:	e79c      	b.n	371a <Grd_TIM2_7_IRQHandler+0x3e>
    37e0:	2304      	movs	r3, #4
    37e2:	f885 3166 	strb.w	r3, [r5, #358]	; 0x166
    37e6:	f001 fe7b 	bl	54e0 <BB_GetDevInfo>
    37ea:	f894 3024 	ldrb.w	r3, [r4, #36]	; 0x24
    37ee:	2b00      	cmp	r3, #0
    37f0:	f040 80a4 	bne.w	393c <Grd_TIM2_7_IRQHandler+0x260>
    37f4:	a905      	add	r1, sp, #20
    37f6:	f10d 0013 	add.w	r0, sp, #19
    37fa:	f007 fedd 	bl	b5b8 <__grd_doRfbandChange_veneer>
    37fe:	2801      	cmp	r0, #1
    3800:	d18b      	bne.n	371a <Grd_TIM2_7_IRQHandler+0x3e>
    3802:	f89d 3013 	ldrb.w	r3, [sp, #19]
    3806:	4e4f      	ldr	r6, [pc, #316]	; (3944 <Grd_TIM2_7_IRQHandler+0x268>)
    3808:	7023      	strb	r3, [r4, #0]
    380a:	7be0      	ldrb	r0, [r4, #15]
    380c:	7821      	ldrb	r1, [r4, #0]
    380e:	f007 ff33 	bl	b678 <__BB_Sweep_updateCh_veneer>
    3812:	f894 30bc 	ldrb.w	r3, [r4, #188]	; 0xbc
    3816:	2b01      	cmp	r3, #1
    3818:	f000 82b3 	beq.w	3d82 <Grd_TIM2_7_IRQHandler+0x6a6>
    381c:	2300      	movs	r3, #0
    381e:	f885 3148 	strb.w	r3, [r5, #328]	; 0x148
    3822:	f007 ff21 	bl	b668 <__BB_ResetRcMap_veneer>
    3826:	f7ff f9bd 	bl	2ba4 <grd_rc_hopfreq>
    382a:	7be0      	ldrb	r0, [r4, #15]
    382c:	f894 1050 	ldrb.w	r1, [r4, #80]	; 0x50
    3830:	f006 fb94 	bl	9f5c <BB_set_ItFrqByCh>
    3834:	7be3      	ldrb	r3, [r4, #15]
    3836:	2162      	movs	r1, #98	; 0x62
    3838:	f894 2050 	ldrb.w	r2, [r4, #80]	; 0x50
    383c:	233f      	movs	r3, #63	; 0x3f
    383e:	2080      	movs	r0, #128	; 0x80
    3840:	f007 fe8a 	bl	b558 <__BB_WriteRegMask_veneer>
    3844:	e769      	b.n	371a <Grd_TIM2_7_IRQHandler+0x3e>
    3846:	2306      	movs	r3, #6
    3848:	f885 3166 	strb.w	r3, [r5, #358]	; 0x166
    384c:	f7ff fa18 	bl	2c80 <BB_grd_OSDPlot>
    3850:	f003 f964 	bl	6b1c <BB_SpiGrdDataTransChProc>
    3854:	e761      	b.n	371a <Grd_TIM2_7_IRQHandler+0x3e>
    3856:	2307      	movs	r3, #7
    3858:	21da      	movs	r1, #218	; 0xda
    385a:	2080      	movs	r0, #128	; 0x80
    385c:	4e3b      	ldr	r6, [pc, #236]	; (394c <Grd_TIM2_7_IRQHandler+0x270>)
    385e:	f885 3166 	strb.w	r3, [r5, #358]	; 0x166
    3862:	f007 ff19 	bl	b698 <__BB_ReadReg_veneer>
    3866:	f884 004d 	strb.w	r0, [r4, #77]	; 0x4d
    386a:	7a23      	ldrb	r3, [r4, #8]
    386c:	4a35      	ldr	r2, [pc, #212]	; (3944 <Grd_TIM2_7_IRQHandler+0x268>)
    386e:	b9c3      	cbnz	r3, 38a2 <Grd_TIM2_7_IRQHandler+0x1c6>
    3870:	f892 3024 	ldrb.w	r3, [r2, #36]	; 0x24
    3874:	b1ab      	cbz	r3, 38a2 <Grd_TIM2_7_IRQHandler+0x1c6>
    3876:	f892 30c8 	ldrb.w	r3, [r2, #200]	; 0xc8
    387a:	b993      	cbnz	r3, 38a2 <Grd_TIM2_7_IRQHandler+0x1c6>
    387c:	f7ff fc9a 	bl	31b4 <grd_freq_skip_pre_judge>
    3880:	f886 0282 	strb.w	r0, [r6, #642]	; 0x282
    3884:	e010      	b.n	38a8 <Grd_TIM2_7_IRQHandler+0x1cc>
    3886:	f894 303d 	ldrb.w	r3, [r4, #61]	; 0x3d
    388a:	2205      	movs	r2, #5
    388c:	4e2f      	ldr	r6, [pc, #188]	; (394c <Grd_TIM2_7_IRQHandler+0x270>)
    388e:	b2db      	uxtb	r3, r3
    3890:	f885 2166 	strb.w	r2, [r5, #358]	; 0x166
    3894:	4a2b      	ldr	r2, [pc, #172]	; (3944 <Grd_TIM2_7_IRQHandler+0x268>)
    3896:	2b03      	cmp	r3, #3
    3898:	d05e      	beq.n	3958 <Grd_TIM2_7_IRQHandler+0x27c>
    389a:	2300      	movs	r3, #0
    389c:	f8c5 313c 	str.w	r3, [r5, #316]	; 0x13c
    38a0:	e73b      	b.n	371a <Grd_TIM2_7_IRQHandler+0x3e>
    38a2:	2300      	movs	r3, #0
    38a4:	f885 3282 	strb.w	r3, [r5, #642]	; 0x282
    38a8:	f894 2024 	ldrb.w	r2, [r4, #36]	; 0x24
    38ac:	f04f 0500 	mov.w	r5, #0
    38b0:	f894 3024 	ldrb.w	r3, [r4, #36]	; 0x24
    38b4:	2403      	movs	r4, #3
    38b6:	f362 0541 	bfi	r5, r2, #1, #1
    38ba:	f3c3 0340 	ubfx	r3, r3, #1, #1
    38be:	f363 1586 	bfi	r5, r3, #6, #1
    38c2:	f003 fb9f 	bl	7004 <BB_grd_isSearching>
    38c6:	2160      	movs	r1, #96	; 0x60
    38c8:	f360 15c7 	bfi	r5, r0, #7, #1
    38cc:	2080      	movs	r0, #128	; 0x80
    38ce:	f364 0585 	bfi	r5, r4, #2, #4
    38d2:	b2ea      	uxtb	r2, r5
    38d4:	f007 fe10 	bl	b4f8 <__BB_WriteReg_veneer>
    38d8:	f003 f822 	bl	6920 <BB_ComCycleMsgProcess>
    38dc:	4621      	mov	r1, r4
    38de:	2200      	movs	r2, #0
    38e0:	2001      	movs	r0, #1
    38e2:	f003 f83d 	bl	6960 <BB_ComCycleSendMsg>
    38e6:	e718      	b.n	371a <Grd_TIM2_7_IRQHandler+0x3e>
    38e8:	2300      	movs	r3, #0
    38ea:	f885 3166 	strb.w	r3, [r5, #358]	; 0x166
    38ee:	e714      	b.n	371a <Grd_TIM2_7_IRQHandler+0x3e>
    38f0:	2000      	movs	r0, #0
    38f2:	f893 1032 	ldrb.w	r1, [r3, #50]	; 0x32
    38f6:	f882 0168 	strb.w	r0, [r2, #360]	; 0x168
    38fa:	2900      	cmp	r1, #0
    38fc:	f040 813b 	bne.w	3b76 <Grd_TIM2_7_IRQHandler+0x49a>
    3900:	f893 2033 	ldrb.w	r2, [r3, #51]	; 0x33
    3904:	2a00      	cmp	r2, #0
    3906:	f040 8136 	bne.w	3b76 <Grd_TIM2_7_IRQHandler+0x49a>
    390a:	f893 2034 	ldrb.w	r2, [r3, #52]	; 0x34
    390e:	2a00      	cmp	r2, #0
    3910:	f040 8131 	bne.w	3b76 <Grd_TIM2_7_IRQHandler+0x49a>
    3914:	f893 2035 	ldrb.w	r2, [r3, #53]	; 0x35
    3918:	2a00      	cmp	r2, #0
    391a:	f040 812c 	bne.w	3b76 <Grd_TIM2_7_IRQHandler+0x49a>
    391e:	f893 2036 	ldrb.w	r2, [r3, #54]	; 0x36
    3922:	f002 01ff 	and.w	r1, r2, #255	; 0xff
    3926:	2a00      	cmp	r2, #0
    3928:	f040 8125 	bne.w	3b76 <Grd_TIM2_7_IRQHandler+0x49a>
    392c:	7259      	strb	r1, [r3, #9]
    392e:	e751      	b.n	37d4 <Grd_TIM2_7_IRQHandler+0xf8>
    3930:	f007 fe22 	bl	b578 <__grd_checkBlockMode_veneer>
    3934:	e730      	b.n	3798 <Grd_TIM2_7_IRQHandler+0xbc>
    3936:	f7ff f935 	bl	2ba4 <grd_rc_hopfreq>
    393a:	e728      	b.n	378e <Grd_TIM2_7_IRQHandler+0xb2>
    393c:	f001 fcb0 	bl	52a0 <grd_judge_qam_band_switch>
    3940:	e758      	b.n	37f4 <Grd_TIM2_7_IRQHandler+0x118>
    3942:	bf00      	nop
    3944:	200051ac 	andcs	r5, r0, ip, lsr #3
    3948:	40080098 	mulmi	r8, r8, r0
    394c:	20000aa8 	andcs	r0, r0, r8, lsr #21
    3950:	e000e100 	and	lr, r0, r0, lsl #2
    3954:	20004fdc 	ldrdcs	r4, [r0], -ip
    3958:	f892 2024 	ldrb.w	r2, [r2, #36]	; 0x24
    395c:	2a00      	cmp	r2, #0
    395e:	d09c      	beq.n	389a <Grd_TIM2_7_IRQHandler+0x1be>
    3960:	f8d6 213c 	ldr.w	r2, [r6, #316]	; 0x13c
    3964:	3201      	adds	r2, #1
    3966:	2a02      	cmp	r2, #2
    3968:	f200 8125 	bhi.w	3bb6 <Grd_TIM2_7_IRQHandler+0x4da>
    396c:	f8c6 213c 	str.w	r2, [r6, #316]	; 0x13c
    3970:	f894 305e 	ldrb.w	r3, [r4, #94]	; 0x5e
    3974:	4abc      	ldr	r2, [pc, #752]	; (3c68 <Grd_TIM2_7_IRQHandler+0x58c>)
    3976:	b2db      	uxtb	r3, r3
    3978:	2b01      	cmp	r3, #1
    397a:	f47f aece 	bne.w	371a <Grd_TIM2_7_IRQHandler+0x3e>
    397e:	f895 7170 	ldrb.w	r7, [r5, #368]	; 0x170
    3982:	f892 0068 	ldrb.w	r0, [r2, #104]	; 0x68
    3986:	f892 1068 	ldrb.w	r1, [r2, #104]	; 0x68
    398a:	1c7e      	adds	r6, r7, #1
    398c:	f892 e068 	ldrb.w	lr, [r2, #104]	; 0x68
    3990:	b2f6      	uxtb	r6, r6
    3992:	49b6      	ldr	r1, [pc, #728]	; (3c6c <Grd_TIM2_7_IRQHandler+0x590>)
    3994:	fbb7 f2f0 	udiv	r2, r7, r0
    3998:	fb02 7210 	mls	r2, r2, r0, r7
    399c:	4576      	cmp	r6, lr
    399e:	788f      	ldrb	r7, [r1, #2]
    39a0:	fa55 f282 	uxtab	r2, r5, r2
    39a4:	f885 6170 	strb.w	r6, [r5, #368]	; 0x170
    39a8:	48b1      	ldr	r0, [pc, #708]	; (3c70 <Grd_TIM2_7_IRQHandler+0x594>)
    39aa:	f882 7174 	strb.w	r7, [r2, #372]	; 0x174
    39ae:	f0c0 824b 	bcc.w	3e48 <Grd_TIM2_7_IRQHandler+0x76c>
    39b2:	2200      	movs	r2, #0
    39b4:	f880 31f4 	strb.w	r3, [r0, #500]	; 0x1f4
    39b8:	f880 2170 	strb.w	r2, [r0, #368]	; 0x170
    39bc:	f894 3068 	ldrb.w	r3, [r4, #104]	; 0x68
    39c0:	f003 02ff 	and.w	r2, r3, #255	; 0xff
    39c4:	b163      	cbz	r3, 39e0 <Grd_TIM2_7_IRQHandler+0x304>
    39c6:	2200      	movs	r2, #0
    39c8:	4613      	mov	r3, r2
    39ca:	18ee      	adds	r6, r5, r3
    39cc:	3301      	adds	r3, #1
    39ce:	f894 0068 	ldrb.w	r0, [r4, #104]	; 0x68
    39d2:	f896 6174 	ldrb.w	r6, [r6, #372]	; 0x174
    39d6:	b2db      	uxtb	r3, r3
    39d8:	4432      	add	r2, r6
    39da:	4283      	cmp	r3, r0
    39dc:	b292      	uxth	r2, r2
    39de:	d3f4      	bcc.n	39ca <Grd_TIM2_7_IRQHandler+0x2ee>
    39e0:	f894 7068 	ldrb.w	r7, [r4, #104]	; 0x68
    39e4:	f894 3068 	ldrb.w	r3, [r4, #104]	; 0x68
    39e8:	fb92 f7f7 	sdiv	r7, r2, r7
    39ec:	f003 02ff 	and.w	r2, r3, #255	; 0xff
    39f0:	b163      	cbz	r3, 3a0c <Grd_TIM2_7_IRQHandler+0x330>
    39f2:	2200      	movs	r2, #0
    39f4:	4613      	mov	r3, r2
    39f6:	18ee      	adds	r6, r5, r3
    39f8:	3301      	adds	r3, #1
    39fa:	f894 0068 	ldrb.w	r0, [r4, #104]	; 0x68
    39fe:	f896 6174 	ldrb.w	r6, [r6, #372]	; 0x174
    3a02:	b2db      	uxtb	r3, r3
    3a04:	4432      	add	r2, r6
    3a06:	4283      	cmp	r3, r0
    3a08:	b292      	uxth	r2, r2
    3a0a:	d3f4      	bcc.n	39f6 <Grd_TIM2_7_IRQHandler+0x31a>
    3a0c:	f894 3068 	ldrb.w	r3, [r4, #104]	; 0x68
    3a10:	f894 6064 	ldrb.w	r6, [r4, #100]	; 0x64
    3a14:	4894      	ldr	r0, [pc, #592]	; (3c68 <Grd_TIM2_7_IRQHandler+0x58c>)
    3a16:	fb92 f2f3 	sdiv	r2, r2, r3
    3a1a:	42ba      	cmp	r2, r7
    3a1c:	bf28      	it	cs
    3a1e:	463a      	movcs	r2, r7
    3a20:	b2d3      	uxtb	r3, r2
    3a22:	42b3      	cmp	r3, r6
    3a24:	f0c0 82a2 	bcc.w	3f6c <Grd_TIM2_7_IRQHandler+0x890>
    3a28:	f890 6065 	ldrb.w	r6, [r0, #101]	; 0x65
    3a2c:	42b3      	cmp	r3, r6
    3a2e:	bf94      	ite	ls
    3a30:	2600      	movls	r6, #0
    3a32:	2601      	movhi	r6, #1
    3a34:	f895 01f5 	ldrb.w	r0, [r5, #501]	; 0x1f5
    3a38:	f894 3067 	ldrb.w	r3, [r4, #103]	; 0x67
    3a3c:	880f      	ldrh	r7, [r1, #0]
    3a3e:	1c42      	adds	r2, r0, #1
    3a40:	fbb0 f1f3 	udiv	r1, r0, r3
    3a44:	fb01 0313 	mls	r3, r1, r3, r0
    3a48:	b2d2      	uxtb	r2, r2
    3a4a:	f894 0067 	ldrb.w	r0, [r4, #103]	; 0x67
    3a4e:	b2db      	uxtb	r3, r3
    3a50:	f885 21f5 	strb.w	r2, [r5, #501]	; 0x1f5
    3a54:	4282      	cmp	r2, r0
    3a56:	4986      	ldr	r1, [pc, #536]	; (3c70 <Grd_TIM2_7_IRQHandler+0x594>)
    3a58:	eb05 0343 	add.w	r3, r5, r3, lsl #1
    3a5c:	f8a3 71f8 	strh.w	r7, [r3, #504]	; 0x1f8
    3a60:	f0c0 81eb 	bcc.w	3e3a <Grd_TIM2_7_IRQHandler+0x75e>
    3a64:	2200      	movs	r2, #0
    3a66:	2301      	movs	r3, #1
    3a68:	f881 21f5 	strb.w	r2, [r1, #501]	; 0x1f5
    3a6c:	f881 3278 	strb.w	r3, [r1, #632]	; 0x278
    3a70:	f894 3067 	ldrb.w	r3, [r4, #103]	; 0x67
    3a74:	f003 02ff 	and.w	r2, r3, #255	; 0xff
    3a78:	b163      	cbz	r3, 3a94 <Grd_TIM2_7_IRQHandler+0x3b8>
    3a7a:	2200      	movs	r2, #0
    3a7c:	4613      	mov	r3, r2
    3a7e:	eb05 0043 	add.w	r0, r5, r3, lsl #1
    3a82:	3301      	adds	r3, #1
    3a84:	f894 1067 	ldrb.w	r1, [r4, #103]	; 0x67
    3a88:	b2db      	uxtb	r3, r3
    3a8a:	f8b0 01f8 	ldrh.w	r0, [r0, #504]	; 0x1f8
    3a8e:	428b      	cmp	r3, r1
    3a90:	4402      	add	r2, r0
    3a92:	d3f4      	bcc.n	3a7e <Grd_TIM2_7_IRQHandler+0x3a2>
    3a94:	f894 0067 	ldrb.w	r0, [r4, #103]	; 0x67
    3a98:	f8b4 3060 	ldrh.w	r3, [r4, #96]	; 0x60
    3a9c:	4972      	ldr	r1, [pc, #456]	; (3c68 <Grd_TIM2_7_IRQHandler+0x58c>)
    3a9e:	b29b      	uxth	r3, r3
    3aa0:	fbb2 f2f0 	udiv	r2, r2, r0
    3aa4:	429a      	cmp	r2, r3
    3aa6:	f0c0 81fb 	bcc.w	3ea0 <Grd_TIM2_7_IRQHandler+0x7c4>
    3aaa:	f8b1 7062 	ldrh.w	r7, [r1, #98]	; 0x62
    3aae:	b2bf      	uxth	r7, r7
    3ab0:	42ba      	cmp	r2, r7
    3ab2:	f04f 37ff 	mov.w	r7, #4294967295
    3ab6:	bf98      	it	ls
    3ab8:	2700      	movls	r7, #0
    3aba:	4b6e      	ldr	r3, [pc, #440]	; (3c74 <Grd_TIM2_7_IRQHandler+0x598>)
    3abc:	21d7      	movs	r1, #215	; 0xd7
    3abe:	6818      	ldr	r0, [r3, #0]
    3ac0:	9005      	str	r0, [sp, #20]
    3ac2:	2080      	movs	r0, #128	; 0x80
    3ac4:	f007 fde8 	bl	b698 <__BB_ReadReg_veneer>
    3ac8:	4680      	mov	r8, r0
    3aca:	21d8      	movs	r1, #216	; 0xd8
    3acc:	2080      	movs	r0, #128	; 0x80
    3ace:	f007 fde3 	bl	b698 <__BB_ReadReg_veneer>
    3ad2:	21d0      	movs	r1, #208	; 0xd0
    3ad4:	ea40 2808 	orr.w	r8, r0, r8, lsl #8
    3ad8:	2080      	movs	r0, #128	; 0x80
    3ada:	f007 fddd 	bl	b698 <__BB_ReadReg_veneer>
    3ade:	f894 10ae 	ldrb.w	r1, [r4, #174]	; 0xae
    3ae2:	f000 0003 	and.w	r0, r0, #3
    3ae6:	aa06      	add	r2, sp, #24
    3ae8:	2900      	cmp	r1, #0
    3aea:	fa1f f888 	uxth.w	r8, r8
    3aee:	4402      	add	r2, r0
    3af0:	f04f 0364 	mov.w	r3, #100	; 0x64
    3af4:	bf0c      	ite	eq
    3af6:	2102      	moveq	r1, #2
    3af8:	2101      	movne	r1, #1
    3afa:	f812 0c04 	ldrb.w	r0, [r2, #-4]
    3afe:	fb03 f308 	mul.w	r3, r3, r8
    3b02:	f8b4 206c 	ldrh.w	r2, [r4, #108]	; 0x6c
    3b06:	fb10 f101 	smulbb	r1, r0, r1
    3b0a:	b292      	uxth	r2, r2
    3b0c:	fb93 f3f1 	sdiv	r3, r3, r1
    3b10:	b29b      	uxth	r3, r3
    3b12:	4293      	cmp	r3, r2
    3b14:	f240 819e 	bls.w	3e54 <Grd_TIM2_7_IRQHandler+0x778>
    3b18:	2200      	movs	r2, #0
    3b1a:	2301      	movs	r3, #1
    3b1c:	f8c5 227c 	str.w	r2, [r5, #636]	; 0x27c
    3b20:	f8b4 206a 	ldrh.w	r2, [r4, #106]	; 0x6a
    3b24:	f8d5 027c 	ldr.w	r0, [r5, #636]	; 0x27c
    3b28:	b292      	uxth	r2, r2
    3b2a:	4951      	ldr	r1, [pc, #324]	; (3c70 <Grd_TIM2_7_IRQHandler+0x594>)
    3b2c:	4282      	cmp	r2, r0
    3b2e:	f340 8205 	ble.w	3f3c <Grd_TIM2_7_IRQHandler+0x860>
    3b32:	f891 2280 	ldrb.w	r2, [r1, #640]	; 0x280
    3b36:	3201      	adds	r2, #1
    3b38:	b2d2      	uxtb	r2, r2
    3b3a:	2a07      	cmp	r2, #7
    3b3c:	f881 2280 	strb.w	r2, [r1, #640]	; 0x280
    3b40:	f240 8165 	bls.w	3e0e <Grd_TIM2_7_IRQHandler+0x732>
    3b44:	2200      	movs	r2, #0
    3b46:	f881 2280 	strb.w	r2, [r1, #640]	; 0x280
    3b4a:	f881 2281 	strb.w	r2, [r1, #641]	; 0x281
    3b4e:	2e01      	cmp	r6, #1
    3b50:	bf18      	it	ne
    3b52:	2f01      	cmpne	r7, #1
    3b54:	d002      	beq.n	3b5c <Grd_TIM2_7_IRQHandler+0x480>
    3b56:	2b01      	cmp	r3, #1
    3b58:	f47f addf 	bne.w	371a <Grd_TIM2_7_IRQHandler+0x3e>
